Disassembly of section .text:

00011158 <_start1>:
   11158:	b0000001 	imm	1
   1115c:	31a05cb0 	addik	r13, r0, 23728	// 15cb0 <_SDA_BASE_>
   11160:	b0000001 	imm	1
   11164:	30405ca8 	addik	r2, r0, 23720	// 15ca8 <_SDA2_BASE_>
   11168:	b0000001 	imm	1
   1116c:	30206e68 	addik	r1, r0, 28264
   11170:	b9f40288 	brlid	r15, 648	// 113f8 <_crtinit>
   11174:	80000000 	or	r0, r0, r0
   11178:	b9f4057c 	brlid	r15, 1404	// 116f4 <exit>
   1117c:	30a30000 	addik	r5, r3, 0

00011180 <_exit>:
   11180:	b8000000 	bri	0	// 11180 <_exit>

00011184 <deregister_tm_clones>:
   11184:	b0000001 	imm	1
   11188:	30a04898 	addik	r5, r0, 18584	// 14898 <__TMC_END__>
   1118c:	b0000001 	imm	1
   11190:	3060489b 	addik	r3, r0, 18587
   11194:	30800006 	addik	r4, r0, 6
   11198:	14651800 	rsubk	r3, r5, r3
   1119c:	16432003 	cmpu	r18, r3, r4
   111a0:	bcb2002c 	bgei	r18, 44		// 111cc
   111a4:	b0000000 	imm	0
   111a8:	30600000 	addik	r3, r0, 0
   111ac:	bc030020 	beqi	r3, 32		// 111cc
   111b0:	3021ffe4 	addik	r1, r1, -28
   111b4:	f9e10000 	swi	r15, r1, 0
   111b8:	99fc1800 	brald	r15, r3
   111bc:	80000000 	or	r0, r0, r0
   111c0:	e9e10000 	lwi	r15, r1, 0
   111c4:	b60f0008 	rtsd	r15, 8
   111c8:	3021001c 	addik	r1, r1, 28
   111cc:	b60f0008 	rtsd	r15, 8
   111d0:	80000000 	or	r0, r0, r0

000111d4 <register_tm_clones>:
   111d4:	b0000001 	imm	1
   111d8:	30a04898 	addik	r5, r0, 18584	// 14898 <__TMC_END__>
   111dc:	b0000001 	imm	1
   111e0:	30604898 	addik	r3, r0, 18584	// 14898 <__TMC_END__>
   111e4:	14651800 	rsubk	r3, r5, r3
   111e8:	10801800 	addk	r4, r0, r3
   111ec:	90830001 	sra	r4, r3
   111f0:	90840001 	sra	r4, r4
   111f4:	10c02000 	addk	r6, r0, r4
   111f8:	90c40041 	srl	r6, r4
   111fc:	90c60041 	srl	r6, r6
   11200:	90c60041 	srl	r6, r6
   11204:	90c60041 	srl	r6, r6
   11208:	90c60041 	srl	r6, r6
   1120c:	90c60041 	srl	r6, r6
   11210:	90c60041 	srl	r6, r6
   11214:	90c60041 	srl	r6, r6
   11218:	90c60041 	srl	r6, r6
   1121c:	90c60041 	srl	r6, r6
   11220:	90c60041 	srl	r6, r6
   11224:	90c60041 	srl	r6, r6
   11228:	90c60041 	srl	r6, r6
   1122c:	90c60041 	srl	r6, r6
   11230:	90c60041 	srl	r6, r6
   11234:	90c60041 	srl	r6, r6
   11238:	90c60041 	srl	r6, r6
   1123c:	90c60041 	srl	r6, r6
   11240:	90c60041 	srl	r6, r6
   11244:	90c60041 	srl	r6, r6
   11248:	90c60041 	srl	r6, r6
   1124c:	90c60041 	srl	r6, r6
   11250:	90c60041 	srl	r6, r6
   11254:	90c60041 	srl	r6, r6
   11258:	90c60041 	srl	r6, r6
   1125c:	90c60041 	srl	r6, r6
   11260:	90c60041 	srl	r6, r6
   11264:	90c60041 	srl	r6, r6
   11268:	90c60041 	srl	r6, r6
   1126c:	90c60041 	srl	r6, r6
   11270:	90c60041 	srl	r6, r6
   11274:	10c62000 	addk	r6, r6, r4
   11278:	90c60001 	sra	r6, r6
   1127c:	bc06002c 	beqi	r6, 44		// 112a8
   11280:	b0000000 	imm	0
   11284:	30600000 	addik	r3, r0, 0
   11288:	bc030020 	beqi	r3, 32		// 112a8
   1128c:	3021ffe4 	addik	r1, r1, -28
   11290:	f9e10000 	swi	r15, r1, 0
   11294:	99fc1800 	brald	r15, r3
   11298:	80000000 	or	r0, r0, r0
   1129c:	e9e10000 	lwi	r15, r1, 0
   112a0:	b60f0008 	rtsd	r15, 8
   112a4:	3021001c 	addik	r1, r1, 28
   112a8:	b60f0008 	rtsd	r15, 8
   112ac:	80000000 	or	r0, r0, r0

000112b0 <__do_global_dtors_aux>:
   112b0:	b0000001 	imm	1
   112b4:	e0605cb0 	lbui	r3, r0, 23728	// 15cb0 <_SDA_BASE_>
   112b8:	bc2300d0 	bnei	r3, 208		// 11388
   112bc:	b0000001 	imm	1
   112c0:	30a048fc 	addik	r5, r0, 18684	// 148fc <__CTOR_END__>
   112c4:	b0000001 	imm	1
   112c8:	30804900 	addik	r4, r0, 18688	// 14900 <__DTOR_END__>
   112cc:	b0000001 	imm	1
   112d0:	e8605cb4 	lwi	r3, r0, 23732	// 15cb4 <dtor_idx.5085>
   112d4:	3021ffdc 	addik	r1, r1, -36
   112d8:	14852000 	rsubk	r4, r5, r4
   112dc:	fa61001c 	swi	r19, r1, 28
   112e0:	fac10020 	swi	r22, r1, 32
   112e4:	12602000 	addk	r19, r0, r4
   112e8:	92640001 	sra	r19, r4
   112ec:	92730001 	sra	r19, r19
   112f0:	f9e10000 	swi	r15, r1, 0
   112f4:	3273ffff 	addik	r19, r19, -1
   112f8:	b0000001 	imm	1
   112fc:	32c048fc 	addik	r22, r0, 18684	// 148fc <__CTOR_END__>
   11300:	16531803 	cmpu	r18, r19, r3
   11304:	beb20038 	bgeid	r18, 56		// 1133c
   11308:	30630001 	addik	r3, r3, 1
   1130c:	10831800 	addk	r4, r3, r3
   11310:	10842000 	addk	r4, r4, r4
   11314:	c884b000 	lw	r4, r4, r22
   11318:	b0000001 	imm	1
   1131c:	f8605cb4 	swi	r3, r0, 23732	// 15cb4 <dtor_idx.5085>
   11320:	99fc2000 	brald	r15, r4
   11324:	80000000 	or	r0, r0, r0
   11328:	b0000001 	imm	1
   1132c:	e8605cb4 	lwi	r3, r0, 23732	// 15cb4 <dtor_idx.5085>
   11330:	16531803 	cmpu	r18, r19, r3
   11334:	be52ffd8 	bltid	r18, -40		// 1130c
   11338:	30630001 	addik	r3, r3, 1
   1133c:	b9f4fe48 	brlid	r15, -440	// 11184 <deregister_tm_clones>
   11340:	80000000 	or	r0, r0, r0
   11344:	b0000000 	imm	0
   11348:	30600000 	addik	r3, r0, 0
   1134c:	be030020 	beqid	r3, 32		// 1136c
   11350:	e9e10000 	lwi	r15, r1, 0
   11354:	b0000001 	imm	1
   11358:	30a05ca8 	addik	r5, r0, 23720	// 15ca8 <_SDA2_BASE_>
   1135c:	b000fffe 	imm	-2
   11360:	b9f4eca0 	brlid	r15, -4960	// 0 <_start>
   11364:	80000000 	or	r0, r0, r0
   11368:	e9e10000 	lwi	r15, r1, 0
   1136c:	ea61001c 	lwi	r19, r1, 28
   11370:	eac10020 	lwi	r22, r1, 32
   11374:	30600001 	addik	r3, r0, 1
   11378:	b0000001 	imm	1
   1137c:	f0605cb0 	sbi	r3, r0, 23728	// 15cb0 <_SDA_BASE_>
   11380:	b60f0008 	rtsd	r15, 8
   11384:	30210024 	addik	r1, r1, 36
   11388:	b60f0008 	rtsd	r15, 8
   1138c:	80000000 	or	r0, r0, r0

00011390 <frame_dummy>:
   11390:	b0000000 	imm	0
   11394:	30600000 	addik	r3, r0, 0
   11398:	3021ffe4 	addik	r1, r1, -28
   1139c:	be030020 	beqid	r3, 32		// 113bc
   113a0:	f9e10000 	swi	r15, r1, 0
   113a4:	b0000001 	imm	1
   113a8:	30c05cb8 	addik	r6, r0, 23736	// 15cb8 <object.5095>
   113ac:	b0000001 	imm	1
   113b0:	30a05ca8 	addik	r5, r0, 23720	// 15ca8 <_SDA2_BASE_>
   113b4:	99fc1800 	brald	r15, r3
   113b8:	80000000 	or	r0, r0, r0
   113bc:	b0000001 	imm	1
   113c0:	30a05cac 	addik	r5, r0, 23724	// 15cac <__JCR_END__>
   113c4:	e8650000 	lwi	r3, r5, 0
   113c8:	bc230018 	bnei	r3, 24		// 113e0
   113cc:	b9f4fe08 	brlid	r15, -504	// 111d4 <register_tm_clones>
   113d0:	80000000 	or	r0, r0, r0
   113d4:	e9e10000 	lwi	r15, r1, 0
   113d8:	b60f0008 	rtsd	r15, 8
   113dc:	3021001c 	addik	r1, r1, 28
   113e0:	b0000000 	imm	0
   113e4:	30600000 	addik	r3, r0, 0
   113e8:	bc03ffe4 	beqi	r3, -28		// 113cc
   113ec:	99fc1800 	brald	r15, r3
   113f0:	80000000 	or	r0, r0, r0
   113f4:	b800ffd8 	bri	-40		// 113cc

000113f8 <_crtinit>:
   113f8:	2021ffec 	addi	r1, r1, -20
   113fc:	f9e10000 	swi	r15, r1, 0
   11400:	b0000001 	imm	1
   11404:	20c05cb0 	addi	r6, r0, 23728	// 15cb0 <_SDA_BASE_>
   11408:	b0000001 	imm	1
   1140c:	20e05cb0 	addi	r7, r0, 23728	// 15cb0 <_SDA_BASE_>
   11410:	06463800 	rsub	r18, r6, r7
   11414:	bc720014 	blei	r18, 20		// 11428
   11418:	f8060000 	swi	r0, r6, 0
   1141c:	20c60004 	addi	r6, r6, 4
   11420:	06463800 	rsub	r18, r6, r7
   11424:	bc92fff4 	bgti	r18, -12		// 11418
   11428:	b0000001 	imm	1
   1142c:	20c05cb0 	addi	r6, r0, 23728	// 15cb0 <_SDA_BASE_>
   11430:	b0000001 	imm	1
   11434:	20e05e74 	addi	r7, r0, 24180	// 15e74 <__bss_end>
   11438:	06463800 	rsub	r18, r6, r7
   1143c:	bc720014 	blei	r18, 20		// 11450
   11440:	f8060000 	swi	r0, r6, 0
   11444:	20c60004 	addi	r6, r6, 4
   11448:	06463800 	rsub	r18, r6, r7
   1144c:	bc92fff4 	bgti	r18, -12		// 11440
   11450:	b9f41048 	brlid	r15, 4168	// 12498 <_program_init>
   11454:	80000000 	or	r0, r0, r0
   11458:	b9f43440 	brlid	r15, 13376	// 14898 <__TMC_END__>
   1145c:	80000000 	or	r0, r0, r0
   11460:	20c00000 	addi	r6, r0, 0
   11464:	20e00000 	addi	r7, r0, 0
   11468:	b000ffff 	imm	-1
   1146c:	b9f44e08 	brlid	r15, 19976	// 6274 <main>
   11470:	20a00000 	addi	r5, r0, 0
   11474:	32630000 	addik	r19, r3, 0
   11478:	b9f4345c 	brlid	r15, 13404	// 148d4 <__fini>
   1147c:	80000000 	or	r0, r0, r0
   11480:	b9f41010 	brlid	r15, 4112	// 12490 <_program_clean>
   11484:	80000000 	or	r0, r0, r0
   11488:	c9e10000 	lw	r15, r1, r0
   1148c:	30730000 	addik	r3, r19, 0
   11490:	b60f0008 	rtsd	r15, 8
   11494:	20210014 	addi	r1, r1, 20

00011498 <_hw_exception_handler>:
   11498:	b8000000 	bri	0	// 11498 <_hw_exception_handler>

0001149c <microblaze_enable_dcache>:
   1149c:	95008001 	mfs	r8, rmsr
   114a0:	a1080080 	ori	r8, r8, 128
   114a4:	9408c001 	mts	rmsr, r8
   114a8:	b60f0008 	rtsd	r15, 8
   114ac:	80000000 	or	r0, r0, r0

000114b0 <microblaze_enable_icache>:
   114b0:	95008001 	mfs	r8, rmsr
   114b4:	a1080020 	ori	r8, r8, 32
   114b8:	9408c001 	mts	rmsr, r8
   114bc:	b60f0008 	rtsd	r15, 8
   114c0:	80000000 	or	r0, r0, r0

000114c4 <microblaze_enable_interrupts>:
   114c4:	95808001 	mfs	r12, rmsr
   114c8:	a18c0002 	ori	r12, r12, 2
   114cc:	940cc001 	mts	rmsr, r12
   114d0:	b60f0008 	rtsd	r15, 8
   114d4:	80000000 	or	r0, r0, r0

000114d8 <microblaze_disable_dcache>:
   114d8:	3021fffc 	addik	r1, r1, -4
   114dc:	95608001 	mfs	r11, rmsr
   114e0:	a56bff7f 	andi	r11, r11, -129
   114e4:	940bc001 	mts	rmsr, r11
   114e8:	b60f0008 	rtsd	r15, 8
   114ec:	20210004 	addi	r1, r1, 4

000114f0 <microblaze_disable_icache>:
   114f0:	95008001 	mfs	r8, rmsr
   114f4:	a508ffdf 	andi	r8, r8, -33
   114f8:	9408c001 	mts	rmsr, r8
   114fc:	b60f0008 	rtsd	r15, 8
   11500:	80000000 	or	r0, r0, r0

00011504 <microblaze_disable_interrupts>:
   11504:	95808001 	mfs	r12, rmsr
   11508:	a58cfffd 	andi	r12, r12, -3
   1150c:	940cc001 	mts	rmsr, r12
   11510:	b60f0008 	rtsd	r15, 8
   11514:	80000000 	or	r0, r0, r0

00011518 <microblaze_flush_cache_ext>:
   11518:	b60f0008 	rtsd	r15, 8
   1151c:	80000000 	or	r0, r0, r0

00011520 <microblaze_invalidate_cache_ext>:
   11520:	b60f0008 	rtsd	r15, 8
   11524:	80000000 	or	r0, r0, r0

00011528 <microblaze_invalidate_dcache>:
   11528:	b60f0008 	rtsd	r15, 8
   1152c:	80000000 	or	r0, r0, r0

00011530 <microblaze_invalidate_icache>:
   11530:	b60f0008 	rtsd	r15, 8
   11534:	80000000 	or	r0, r0, r0

00011538 <__mulsi3>:
   11538:	00600000 	add	r3, r0, r0
   1153c:	bc05004c 	beqi	r5, 76		// 11588
   11540:	bc060048 	beqi	r6, 72		// 11588
   11544:	bea5000c 	bgeid	r5, 12		// 11550
   11548:	88853000 	xor	r4, r5, r6
   1154c:	24a50000 	rsubi	r5, r5, 0
   11550:	bca60008 	bgei	r6, 8		// 11558
   11554:	24c60000 	rsubi	r6, r6, 0
   11558:	b8000008 	bri	8		// 11560
   1155c:	00a52800 	add	r5, r5, r5
   11560:	90c60041 	srl	r6, r6
   11564:	08e00000 	addc	r7, r0, r0
   11568:	bc07fff4 	beqi	r7, -12		// 1155c
   1156c:	be26fff0 	bneid	r6, -16		// 1155c
   11570:	00632800 	add	r3, r3, r5
   11574:	bc44000c 	blti	r4, 12		// 11580
   11578:	b60f0008 	rtsd	r15, 8
   1157c:	80000000 	or	r0, r0, r0
   11580:	b60f0008 	rtsd	r15, 8
   11584:	04630000 	rsub	r3, r3, r0
   11588:	b60f0008 	rtsd	r15, 8
   1158c:	20600000 	addi	r3, r0, 0

00011590 <__udivsi3>:
   11590:	3021fff4 	addik	r1, r1, -12
   11594:	fba10000 	swi	r29, r1, 0
   11598:	fbc10004 	swi	r30, r1, 4
   1159c:	fbe10008 	swi	r31, r1, 8
   115a0:	bc060080 	beqi	r6, 128		// 11620
   115a4:	be05007c 	beqid	r5, 124		// 11620
   115a8:	33c00000 	addik	r30, r0, 0
   115ac:	33a00020 	addik	r29, r0, 32	// 20 <_vector_hw_exception>
   115b0:	06453000 	rsub	r18, r5, r6
   115b4:	be120070 	beqid	r18, 112		// 11624
   115b8:	30600001 	addik	r3, r0, 1
   115bc:	8a453000 	xor	r18, r5, r6
   115c0:	beb20010 	bgeid	r18, 16		// 115d0
   115c4:	00600000 	add	r3, r0, r0
   115c8:	bc46005c 	blti	r6, 92		// 11624
   115cc:	b800000c 	bri	12		// 115d8
   115d0:	06462800 	rsub	r18, r6, r5
   115d4:	bc520050 	blti	r18, 80		// 11624
   115d8:	bc86000c 	bgti	r6, 12		// 115e4
   115dc:	b8100048 	brid	72		// 11624
   115e0:	30600001 	addik	r3, r0, 1
   115e4:	bc450010 	blti	r5, 16		// 115f4
   115e8:	00a52800 	add	r5, r5, r5
   115ec:	be85fffc 	bgtid	r5, -4		// 115e8
   115f0:	33bdffff 	addik	r29, r29, -1
   115f4:	00a52800 	add	r5, r5, r5
   115f8:	0bdef000 	addc	r30, r30, r30
   115fc:	07e6f000 	rsub	r31, r6, r30
   11600:	bc5f000c 	blti	r31, 12		// 1160c
   11604:	83c0f800 	or	r30, r0, r31
   11608:	30630001 	addik	r3, r3, 1
   1160c:	33bdffff 	addik	r29, r29, -1
   11610:	bc1d000c 	beqi	r29, 12		// 1161c
   11614:	00631800 	add	r3, r3, r3
   11618:	b800ffdc 	bri	-36		// 115f4
   1161c:	b8000008 	bri	8		// 11624
   11620:	80600000 	or	r3, r0, r0
   11624:	eba10000 	lwi	r29, r1, 0
   11628:	ebc10004 	lwi	r30, r1, 4
   1162c:	ebe10008 	lwi	r31, r1, 8
   11630:	b60f0008 	rtsd	r15, 8
   11634:	3021000c 	addik	r1, r1, 12

00011638 <__umodsi3>:
   11638:	3021fff4 	addik	r1, r1, -12
   1163c:	fba10000 	swi	r29, r1, 0
   11640:	fbc10004 	swi	r30, r1, 4
   11644:	fbe10008 	swi	r31, r1, 8
   11648:	bc060094 	beqi	r6, 148		// 116dc
   1164c:	be050090 	beqid	r5, 144		// 116dc
   11650:	30600000 	addik	r3, r0, 0
   11654:	33c00000 	addik	r30, r0, 0
   11658:	33a00020 	addik	r29, r0, 32	// 20 <_vector_hw_exception>
   1165c:	06453000 	rsub	r18, r5, r6
   11660:	bc120080 	beqi	r18, 128		// 116e0
   11664:	8a453000 	xor	r18, r5, r6
   11668:	beb20010 	bgeid	r18, 16		// 11678
   1166c:	30650000 	addik	r3, r5, 0
   11670:	bc460070 	blti	r6, 112		// 116e0
   11674:	b800000c 	bri	12		// 11680
   11678:	06453000 	rsub	r18, r5, r6
   1167c:	bc920064 	bgti	r18, 100		// 116e0
   11680:	be860020 	bgtid	r6, 32		// 116a0
   11684:	30600000 	addik	r3, r0, 0
   11688:	b0007fff 	imm	32767
   1168c:	3240ffff 	addik	r18, r0, -1
   11690:	84a59000 	and	r5, r5, r18
   11694:	84c69000 	and	r6, r6, r18
   11698:	b8100048 	brid	72		// 116e0
   1169c:	04662800 	rsub	r3, r6, r5
   116a0:	bc450010 	blti	r5, 16		// 116b0
   116a4:	00a52800 	add	r5, r5, r5
   116a8:	bea5fffc 	bgeid	r5, -4		// 116a4
   116ac:	33bdffff 	addik	r29, r29, -1
   116b0:	00a52800 	add	r5, r5, r5
   116b4:	08631800 	addc	r3, r3, r3
   116b8:	07e61800 	rsub	r31, r6, r3
   116bc:	bc5f000c 	blti	r31, 12		// 116c8
   116c0:	8060f800 	or	r3, r0, r31
   116c4:	33de0001 	addik	r30, r30, 1
   116c8:	33bdffff 	addik	r29, r29, -1
   116cc:	bc1d000c 	beqi	r29, 12		// 116d8
   116d0:	03def000 	add	r30, r30, r30
   116d4:	b800ffdc 	bri	-36		// 116b0
   116d8:	b8000008 	bri	8		// 116e0
   116dc:	80600000 	or	r3, r0, r0
   116e0:	eba10000 	lwi	r29, r1, 0
   116e4:	ebc10004 	lwi	r30, r1, 4
   116e8:	ebe10008 	lwi	r31, r1, 8
   116ec:	b60f0008 	rtsd	r15, 8
   116f0:	3021000c 	addik	r1, r1, 12

000116f4 <exit>:
   116f4:	3021ffdc 	addik	r1, r1, -36
   116f8:	f9e10000 	swi	r15, r1, 0
   116fc:	fa610020 	swi	r19, r1, 32
   11700:	12610000 	addk	r19, r1, r0
   11704:	f8b3001c 	swi	r5, r19, 28
   11708:	10c00000 	addk	r6, r0, r0
   1170c:	e8b3001c 	lwi	r5, r19, 28
   11710:	b9f40b34 	brlid	r15, 2868	// 12244 <__call_exitprocs>
   11714:	80000000 	or	r0, r0, r0
   11718:	b0000001 	imm	1
   1171c:	e8605b54 	lwi	r3, r0, 23380	// 15b54 <_global_impure_ptr>
   11720:	e8630028 	lwi	r3, r3, 40
   11724:	bc030024 	beqi	r3, 36		// 11748
   11728:	b0000001 	imm	1
   1172c:	e8605b54 	lwi	r3, r0, 23380	// 15b54 <_global_impure_ptr>
   11730:	e8630028 	lwi	r3, r3, 40
   11734:	b0000001 	imm	1
   11738:	e8805b54 	lwi	r4, r0, 23380	// 15b54 <_global_impure_ptr>
   1173c:	10a40000 	addk	r5, r4, r0
   11740:	99fc1800 	brald	r15, r3
   11744:	80000000 	or	r0, r0, r0
   11748:	e8b3001c 	lwi	r5, r19, 28
   1174c:	b000ffff 	imm	-1
   11750:	b9f4fa30 	brlid	r15, -1488	// 11180 <_exit>
   11754:	80000000 	or	r0, r0, r0

00011758 <memcmp>:
   11758:	3021ffe8 	addik	r1, r1, -24
   1175c:	fa610014 	swi	r19, r1, 20
   11760:	12610000 	addk	r19, r1, r0
   11764:	f8b3001c 	swi	r5, r19, 28
   11768:	f8d30020 	swi	r6, r19, 32
   1176c:	f8f30024 	swi	r7, r19, 36
   11770:	e873001c 	lwi	r3, r19, 28
   11774:	f8730004 	swi	r3, r19, 4
   11778:	e8730020 	lwi	r3, r19, 32
   1177c:	f8730008 	swi	r3, r19, 8
   11780:	e8930024 	lwi	r4, r19, 36
   11784:	30600003 	addik	r3, r0, 3
   11788:	16441803 	cmpu	r18, r4, r3
   1178c:	bcb200e0 	bgei	r18, 224		// 1186c
   11790:	e8930004 	lwi	r4, r19, 4
   11794:	e8730008 	lwi	r3, r19, 8
   11798:	80641800 	or	r3, r4, r3
   1179c:	a4630003 	andi	r3, r3, 3
   117a0:	bc2300cc 	bnei	r3, 204		// 1186c
   117a4:	e8730004 	lwi	r3, r19, 4
   117a8:	f873000c 	swi	r3, r19, 12
   117ac:	e8730008 	lwi	r3, r19, 8
   117b0:	f8730010 	swi	r3, r19, 16
   117b4:	b8000040 	bri	64		// 117f4
   117b8:	e873000c 	lwi	r3, r19, 12
   117bc:	e8830000 	lwi	r4, r3, 0
   117c0:	e8730010 	lwi	r3, r19, 16
   117c4:	e8630000 	lwi	r3, r3, 0
   117c8:	88641800 	xor	r3, r4, r3
   117cc:	bc23003c 	bnei	r3, 60		// 11808
   117d0:	e873000c 	lwi	r3, r19, 12
   117d4:	30630004 	addik	r3, r3, 4
   117d8:	f873000c 	swi	r3, r19, 12
   117dc:	e8730010 	lwi	r3, r19, 16
   117e0:	30630004 	addik	r3, r3, 4
   117e4:	f8730010 	swi	r3, r19, 16
   117e8:	e8730024 	lwi	r3, r19, 36
   117ec:	3063fffc 	addik	r3, r3, -4
   117f0:	f8730024 	swi	r3, r19, 36
   117f4:	e8930024 	lwi	r4, r19, 36
   117f8:	30600003 	addik	r3, r0, 3
   117fc:	16441803 	cmpu	r18, r4, r3
   11800:	bc52ffb8 	blti	r18, -72		// 117b8
   11804:	b8000008 	bri	8		// 1180c
   11808:	80000000 	or	r0, r0, r0
   1180c:	e873000c 	lwi	r3, r19, 12
   11810:	f8730004 	swi	r3, r19, 4
   11814:	e8730010 	lwi	r3, r19, 16
   11818:	f8730008 	swi	r3, r19, 8
   1181c:	b8000050 	bri	80		// 1186c
   11820:	e8730004 	lwi	r3, r19, 4
   11824:	e0830000 	lbui	r4, r3, 0
   11828:	e8730008 	lwi	r3, r19, 8
   1182c:	e0630000 	lbui	r3, r3, 0
   11830:	88641800 	xor	r3, r4, r3
   11834:	bc030020 	beqi	r3, 32		// 11854
   11838:	e8730004 	lwi	r3, r19, 4
   1183c:	e0630000 	lbui	r3, r3, 0
   11840:	10830000 	addk	r4, r3, r0
   11844:	e8730008 	lwi	r3, r19, 8
   11848:	e0630000 	lbui	r3, r3, 0
   1184c:	14632000 	rsubk	r3, r3, r4
   11850:	b8000030 	bri	48		// 11880
   11854:	e8730004 	lwi	r3, r19, 4
   11858:	30630001 	addik	r3, r3, 1
   1185c:	f8730004 	swi	r3, r19, 4
   11860:	e8730008 	lwi	r3, r19, 8
   11864:	30630001 	addik	r3, r3, 1
   11868:	f8730008 	swi	r3, r19, 8
   1186c:	e8730024 	lwi	r3, r19, 36
   11870:	3083ffff 	addik	r4, r3, -1
   11874:	f8930024 	swi	r4, r19, 36
   11878:	bc23ffa8 	bnei	r3, -88		// 11820
   1187c:	10600000 	addk	r3, r0, r0
   11880:	10330000 	addk	r1, r19, r0
   11884:	ea610014 	lwi	r19, r1, 20
   11888:	30210018 	addik	r1, r1, 24
   1188c:	b60f0008 	rtsd	r15, 8
   11890:	80000000 	or	r0, r0, r0

00011894 <memcpy>:
   11894:	3021ffe8 	addik	r1, r1, -24
   11898:	fa610014 	swi	r19, r1, 20
   1189c:	12610000 	addk	r19, r1, r0
   118a0:	f8b3001c 	swi	r5, r19, 28
   118a4:	f8d30020 	swi	r6, r19, 32
   118a8:	f8f30024 	swi	r7, r19, 36
   118ac:	e873001c 	lwi	r3, r19, 28
   118b0:	f8730004 	swi	r3, r19, 4
   118b4:	e8730020 	lwi	r3, r19, 32
   118b8:	f8730008 	swi	r3, r19, 8
   118bc:	e8930024 	lwi	r4, r19, 36
   118c0:	3060000f 	addik	r3, r0, 15
   118c4:	16441803 	cmpu	r18, r4, r3
   118c8:	bcb20140 	bgei	r18, 320		// 11a08
   118cc:	e8930008 	lwi	r4, r19, 8
   118d0:	e8730004 	lwi	r3, r19, 4
   118d4:	80641800 	or	r3, r4, r3
   118d8:	a4630003 	andi	r3, r3, 3
   118dc:	bc23012c 	bnei	r3, 300		// 11a08
   118e0:	e8730004 	lwi	r3, r19, 4
   118e4:	f873000c 	swi	r3, r19, 12
   118e8:	e8730008 	lwi	r3, r19, 8
   118ec:	f8730010 	swi	r3, r19, 16
   118f0:	b8000090 	bri	144		// 11980
   118f4:	e873000c 	lwi	r3, r19, 12
   118f8:	30830004 	addik	r4, r3, 4
   118fc:	f893000c 	swi	r4, r19, 12
   11900:	e8930010 	lwi	r4, r19, 16
   11904:	30a40004 	addik	r5, r4, 4
   11908:	f8b30010 	swi	r5, r19, 16
   1190c:	e8840000 	lwi	r4, r4, 0
   11910:	f8830000 	swi	r4, r3, 0
   11914:	e873000c 	lwi	r3, r19, 12
   11918:	30830004 	addik	r4, r3, 4
   1191c:	f893000c 	swi	r4, r19, 12
   11920:	e8930010 	lwi	r4, r19, 16
   11924:	30a40004 	addik	r5, r4, 4
   11928:	f8b30010 	swi	r5, r19, 16
   1192c:	e8840000 	lwi	r4, r4, 0
   11930:	f8830000 	swi	r4, r3, 0
   11934:	e873000c 	lwi	r3, r19, 12
   11938:	30830004 	addik	r4, r3, 4
   1193c:	f893000c 	swi	r4, r19, 12
   11940:	e8930010 	lwi	r4, r19, 16
   11944:	30a40004 	addik	r5, r4, 4
   11948:	f8b30010 	swi	r5, r19, 16
   1194c:	e8840000 	lwi	r4, r4, 0
   11950:	f8830000 	swi	r4, r3, 0
   11954:	e873000c 	lwi	r3, r19, 12
   11958:	30830004 	addik	r4, r3, 4
   1195c:	f893000c 	swi	r4, r19, 12
   11960:	e8930010 	lwi	r4, r19, 16
   11964:	30a40004 	addik	r5, r4, 4
   11968:	f8b30010 	swi	r5, r19, 16
   1196c:	e8840000 	lwi	r4, r4, 0
   11970:	f8830000 	swi	r4, r3, 0
   11974:	e8730024 	lwi	r3, r19, 36
   11978:	3063fff0 	addik	r3, r3, -16
   1197c:	f8730024 	swi	r3, r19, 36
   11980:	e8930024 	lwi	r4, r19, 36
   11984:	3060000f 	addik	r3, r0, 15
   11988:	16441803 	cmpu	r18, r4, r3
   1198c:	bc52ff68 	blti	r18, -152		// 118f4
   11990:	b8000030 	bri	48		// 119c0
   11994:	e873000c 	lwi	r3, r19, 12
   11998:	30830004 	addik	r4, r3, 4
   1199c:	f893000c 	swi	r4, r19, 12
   119a0:	e8930010 	lwi	r4, r19, 16
   119a4:	30a40004 	addik	r5, r4, 4
   119a8:	f8b30010 	swi	r5, r19, 16
   119ac:	e8840000 	lwi	r4, r4, 0
   119b0:	f8830000 	swi	r4, r3, 0
   119b4:	e8730024 	lwi	r3, r19, 36
   119b8:	3063fffc 	addik	r3, r3, -4
   119bc:	f8730024 	swi	r3, r19, 36
   119c0:	e8930024 	lwi	r4, r19, 36
   119c4:	30600003 	addik	r3, r0, 3
   119c8:	16441803 	cmpu	r18, r4, r3
   119cc:	bc52ffc8 	blti	r18, -56		// 11994
   119d0:	e873000c 	lwi	r3, r19, 12
   119d4:	f8730004 	swi	r3, r19, 4
   119d8:	e8730010 	lwi	r3, r19, 16
   119dc:	f8730008 	swi	r3, r19, 8
   119e0:	b8000028 	bri	40		// 11a08
   119e4:	e8730004 	lwi	r3, r19, 4
   119e8:	30830001 	addik	r4, r3, 1
   119ec:	f8930004 	swi	r4, r19, 4
   119f0:	e8930008 	lwi	r4, r19, 8
   119f4:	30a40001 	addik	r5, r4, 1
   119f8:	f8b30008 	swi	r5, r19, 8
   119fc:	e0840000 	lbui	r4, r4, 0
   11a00:	90840060 	sext8	r4, r4
   11a04:	f0830000 	sbi	r4, r3, 0
   11a08:	e8730024 	lwi	r3, r19, 36
   11a0c:	3083ffff 	addik	r4, r3, -1
   11a10:	f8930024 	swi	r4, r19, 36
   11a14:	bc23ffd0 	bnei	r3, -48		// 119e4
   11a18:	e873001c 	lwi	r3, r19, 28
   11a1c:	10330000 	addk	r1, r19, r0
   11a20:	ea610014 	lwi	r19, r1, 20
   11a24:	30210018 	addik	r1, r1, 24
   11a28:	b60f0008 	rtsd	r15, 8
   11a2c:	80000000 	or	r0, r0, r0

00011a30 <memmove>:
   11a30:	3021ffe8 	addik	r1, r1, -24
   11a34:	fa610014 	swi	r19, r1, 20
   11a38:	12610000 	addk	r19, r1, r0
   11a3c:	f8b3001c 	swi	r5, r19, 28
   11a40:	f8d30020 	swi	r6, r19, 32
   11a44:	f8f30024 	swi	r7, r19, 36
   11a48:	e873001c 	lwi	r3, r19, 28
   11a4c:	f8730004 	swi	r3, r19, 4
   11a50:	e8730020 	lwi	r3, r19, 32
   11a54:	f8730008 	swi	r3, r19, 8
   11a58:	e8930008 	lwi	r4, r19, 8
   11a5c:	e8730004 	lwi	r3, r19, 4
   11a60:	16432003 	cmpu	r18, r3, r4
   11a64:	bcb20080 	bgei	r18, 128		// 11ae4
   11a68:	e8930008 	lwi	r4, r19, 8
   11a6c:	e8730024 	lwi	r3, r19, 36
   11a70:	10841800 	addk	r4, r4, r3
   11a74:	e8730004 	lwi	r3, r19, 4
   11a78:	16441803 	cmpu	r18, r4, r3
   11a7c:	bcb20068 	bgei	r18, 104		// 11ae4
   11a80:	e8930008 	lwi	r4, r19, 8
   11a84:	e8730024 	lwi	r3, r19, 36
   11a88:	10641800 	addk	r3, r4, r3
   11a8c:	f8730008 	swi	r3, r19, 8
   11a90:	e8930004 	lwi	r4, r19, 4
   11a94:	e8730024 	lwi	r3, r19, 36
   11a98:	10641800 	addk	r3, r4, r3
   11a9c:	f8730004 	swi	r3, r19, 4
   11aa0:	b8000030 	bri	48		// 11ad0
   11aa4:	e8730004 	lwi	r3, r19, 4
   11aa8:	3063ffff 	addik	r3, r3, -1
   11aac:	f8730004 	swi	r3, r19, 4
   11ab0:	e8730008 	lwi	r3, r19, 8
   11ab4:	3063ffff 	addik	r3, r3, -1
   11ab8:	f8730008 	swi	r3, r19, 8
   11abc:	e8730008 	lwi	r3, r19, 8
   11ac0:	e0630000 	lbui	r3, r3, 0
   11ac4:	90830060 	sext8	r4, r3
   11ac8:	e8730004 	lwi	r3, r19, 4
   11acc:	f0830000 	sbi	r4, r3, 0
   11ad0:	e8730024 	lwi	r3, r19, 36
   11ad4:	3083ffff 	addik	r4, r3, -1
   11ad8:	f8930024 	swi	r4, r19, 36
   11adc:	bc23ffc8 	bnei	r3, -56		// 11aa4
   11ae0:	b8000160 	bri	352		// 11c40
   11ae4:	e8930024 	lwi	r4, r19, 36
   11ae8:	3060000f 	addik	r3, r0, 15
   11aec:	16441803 	cmpu	r18, r4, r3
   11af0:	bcb20140 	bgei	r18, 320		// 11c30
   11af4:	e8930008 	lwi	r4, r19, 8
   11af8:	e8730004 	lwi	r3, r19, 4
   11afc:	80641800 	or	r3, r4, r3
   11b00:	a4630003 	andi	r3, r3, 3
   11b04:	bc23012c 	bnei	r3, 300		// 11c30
   11b08:	e8730004 	lwi	r3, r19, 4
   11b0c:	f873000c 	swi	r3, r19, 12
   11b10:	e8730008 	lwi	r3, r19, 8
   11b14:	f8730010 	swi	r3, r19, 16
   11b18:	b8000090 	bri	144		// 11ba8
   11b1c:	e873000c 	lwi	r3, r19, 12
   11b20:	30830004 	addik	r4, r3, 4
   11b24:	f893000c 	swi	r4, r19, 12
   11b28:	e8930010 	lwi	r4, r19, 16
   11b2c:	30a40004 	addik	r5, r4, 4
   11b30:	f8b30010 	swi	r5, r19, 16
   11b34:	e8840000 	lwi	r4, r4, 0
   11b38:	f8830000 	swi	r4, r3, 0
   11b3c:	e873000c 	lwi	r3, r19, 12
   11b40:	30830004 	addik	r4, r3, 4
   11b44:	f893000c 	swi	r4, r19, 12
   11b48:	e8930010 	lwi	r4, r19, 16
   11b4c:	30a40004 	addik	r5, r4, 4
   11b50:	f8b30010 	swi	r5, r19, 16
   11b54:	e8840000 	lwi	r4, r4, 0
   11b58:	f8830000 	swi	r4, r3, 0
   11b5c:	e873000c 	lwi	r3, r19, 12
   11b60:	30830004 	addik	r4, r3, 4
   11b64:	f893000c 	swi	r4, r19, 12
   11b68:	e8930010 	lwi	r4, r19, 16
   11b6c:	30a40004 	addik	r5, r4, 4
   11b70:	f8b30010 	swi	r5, r19, 16
   11b74:	e8840000 	lwi	r4, r4, 0
   11b78:	f8830000 	swi	r4, r3, 0
   11b7c:	e873000c 	lwi	r3, r19, 12
   11b80:	30830004 	addik	r4, r3, 4
   11b84:	f893000c 	swi	r4, r19, 12
   11b88:	e8930010 	lwi	r4, r19, 16
   11b8c:	30a40004 	addik	r5, r4, 4
   11b90:	f8b30010 	swi	r5, r19, 16
   11b94:	e8840000 	lwi	r4, r4, 0
   11b98:	f8830000 	swi	r4, r3, 0
   11b9c:	e8730024 	lwi	r3, r19, 36
   11ba0:	3063fff0 	addik	r3, r3, -16
   11ba4:	f8730024 	swi	r3, r19, 36
   11ba8:	e8930024 	lwi	r4, r19, 36
   11bac:	3060000f 	addik	r3, r0, 15
   11bb0:	16441803 	cmpu	r18, r4, r3
   11bb4:	bc52ff68 	blti	r18, -152		// 11b1c
   11bb8:	b8000030 	bri	48		// 11be8
   11bbc:	e873000c 	lwi	r3, r19, 12
   11bc0:	30830004 	addik	r4, r3, 4
   11bc4:	f893000c 	swi	r4, r19, 12
   11bc8:	e8930010 	lwi	r4, r19, 16
   11bcc:	30a40004 	addik	r5, r4, 4
   11bd0:	f8b30010 	swi	r5, r19, 16
   11bd4:	e8840000 	lwi	r4, r4, 0
   11bd8:	f8830000 	swi	r4, r3, 0
   11bdc:	e8730024 	lwi	r3, r19, 36
   11be0:	3063fffc 	addik	r3, r3, -4
   11be4:	f8730024 	swi	r3, r19, 36
   11be8:	e8930024 	lwi	r4, r19, 36
   11bec:	30600003 	addik	r3, r0, 3
   11bf0:	16441803 	cmpu	r18, r4, r3
   11bf4:	bc52ffc8 	blti	r18, -56		// 11bbc
   11bf8:	e873000c 	lwi	r3, r19, 12
   11bfc:	f8730004 	swi	r3, r19, 4
   11c00:	e8730010 	lwi	r3, r19, 16
   11c04:	f8730008 	swi	r3, r19, 8
   11c08:	b8000028 	bri	40		// 11c30
   11c0c:	e8730004 	lwi	r3, r19, 4
   11c10:	30830001 	addik	r4, r3, 1
   11c14:	f8930004 	swi	r4, r19, 4
   11c18:	e8930008 	lwi	r4, r19, 8
   11c1c:	30a40001 	addik	r5, r4, 1
   11c20:	f8b30008 	swi	r5, r19, 8
   11c24:	e0840000 	lbui	r4, r4, 0
   11c28:	90840060 	sext8	r4, r4
   11c2c:	f0830000 	sbi	r4, r3, 0
   11c30:	e8730024 	lwi	r3, r19, 36
   11c34:	3083ffff 	addik	r4, r3, -1
   11c38:	f8930024 	swi	r4, r19, 36
   11c3c:	bc23ffd0 	bnei	r3, -48		// 11c0c
   11c40:	e873001c 	lwi	r3, r19, 28
   11c44:	10330000 	addk	r1, r19, r0
   11c48:	ea610014 	lwi	r19, r1, 20
   11c4c:	30210018 	addik	r1, r1, 24
   11c50:	b60f0008 	rtsd	r15, 8
   11c54:	80000000 	or	r0, r0, r0

00011c58 <memset>:
   11c58:	3021ffe4 	addik	r1, r1, -28
   11c5c:	fa610018 	swi	r19, r1, 24
   11c60:	12610000 	addk	r19, r1, r0
   11c64:	f8b30020 	swi	r5, r19, 32
   11c68:	f8d30024 	swi	r6, r19, 36
   11c6c:	f8f30028 	swi	r7, r19, 40
   11c70:	e8730020 	lwi	r3, r19, 32
   11c74:	f8730004 	swi	r3, r19, 4
   11c78:	e8730024 	lwi	r3, r19, 36
   11c7c:	a46300ff 	andi	r3, r3, 255
   11c80:	f8730014 	swi	r3, r19, 20
   11c84:	b8000038 	bri	56		// 11cbc
   11c88:	e8730028 	lwi	r3, r19, 40
   11c8c:	3083ffff 	addik	r4, r3, -1
   11c90:	f8930028 	swi	r4, r19, 40
   11c94:	bc030020 	beqi	r3, 32		// 11cb4
   11c98:	e8730004 	lwi	r3, r19, 4
   11c9c:	30830001 	addik	r4, r3, 1
   11ca0:	f8930004 	swi	r4, r19, 4
   11ca4:	e8930024 	lwi	r4, r19, 36
   11ca8:	90840060 	sext8	r4, r4
   11cac:	f0830000 	sbi	r4, r3, 0
   11cb0:	b800000c 	bri	12		// 11cbc
   11cb4:	e8730020 	lwi	r3, r19, 32
   11cb8:	b80001e4 	bri	484		// 11e9c
   11cbc:	e8730004 	lwi	r3, r19, 4
   11cc0:	a4630003 	andi	r3, r3, 3
   11cc4:	bc23ffc4 	bnei	r3, -60		// 11c88
   11cc8:	e8930028 	lwi	r4, r19, 40
   11ccc:	30600003 	addik	r3, r0, 3
   11cd0:	16441803 	cmpu	r18, r4, r3
   11cd4:	bcb201b4 	bgei	r18, 436		// 11e88
   11cd8:	e8730004 	lwi	r3, r19, 4
   11cdc:	f8730010 	swi	r3, r19, 16
   11ce0:	e8730014 	lwi	r3, r19, 20
   11ce4:	10631800 	addk	r3, r3, r3
   11ce8:	10631800 	addk	r3, r3, r3
   11cec:	10631800 	addk	r3, r3, r3
   11cf0:	10631800 	addk	r3, r3, r3
   11cf4:	10631800 	addk	r3, r3, r3
   11cf8:	10631800 	addk	r3, r3, r3
   11cfc:	10631800 	addk	r3, r3, r3
   11d00:	10631800 	addk	r3, r3, r3
   11d04:	10830000 	addk	r4, r3, r0
   11d08:	e8730014 	lwi	r3, r19, 20
   11d0c:	80641800 	or	r3, r4, r3
   11d10:	f873000c 	swi	r3, r19, 12
   11d14:	e873000c 	lwi	r3, r19, 12
   11d18:	10631800 	addk	r3, r3, r3
   11d1c:	10631800 	addk	r3, r3, r3
   11d20:	10631800 	addk	r3, r3, r3
   11d24:	10631800 	addk	r3, r3, r3
   11d28:	10631800 	addk	r3, r3, r3
   11d2c:	10631800 	addk	r3, r3, r3
   11d30:	10631800 	addk	r3, r3, r3
   11d34:	10631800 	addk	r3, r3, r3
   11d38:	10631800 	addk	r3, r3, r3
   11d3c:	10631800 	addk	r3, r3, r3
   11d40:	10631800 	addk	r3, r3, r3
   11d44:	10631800 	addk	r3, r3, r3
   11d48:	10631800 	addk	r3, r3, r3
   11d4c:	10631800 	addk	r3, r3, r3
   11d50:	10631800 	addk	r3, r3, r3
   11d54:	10631800 	addk	r3, r3, r3
   11d58:	10830000 	addk	r4, r3, r0
   11d5c:	e873000c 	lwi	r3, r19, 12
   11d60:	80632000 	or	r3, r3, r4
   11d64:	f873000c 	swi	r3, r19, 12
   11d68:	30600020 	addik	r3, r0, 32	// 20 <_vector_hw_exception>
   11d6c:	f8730008 	swi	r3, r19, 8
   11d70:	b8000040 	bri	64		// 11db0
   11d74:	e8b3000c 	lwi	r5, r19, 12
   11d78:	e8930008 	lwi	r4, r19, 8
   11d7c:	a644001f 	andi	r18, r4, 31
   11d80:	10602800 	addk	r3, r0, r5
   11d84:	be120014 	beqid	r18, 20		// 11d98
   11d88:	10630000 	addk	r3, r3, r0
   11d8c:	3252ffff 	addik	r18, r18, -1
   11d90:	be32fffc 	bneid	r18, -4		// 11d8c
   11d94:	10631800 	addk	r3, r3, r3
   11d98:	e893000c 	lwi	r4, r19, 12
   11d9c:	80641800 	or	r3, r4, r3
   11da0:	f873000c 	swi	r3, r19, 12
   11da4:	e8730008 	lwi	r3, r19, 8
   11da8:	10631800 	addk	r3, r3, r3
   11dac:	f8730008 	swi	r3, r19, 8
   11db0:	e8930008 	lwi	r4, r19, 8
   11db4:	3060001f 	addik	r3, r0, 31
   11db8:	16441803 	cmpu	r18, r4, r3
   11dbc:	bcb2ffb8 	bgei	r18, -72		// 11d74
   11dc0:	b8000060 	bri	96		// 11e20
   11dc4:	e8730010 	lwi	r3, r19, 16
   11dc8:	30830004 	addik	r4, r3, 4
   11dcc:	f8930010 	swi	r4, r19, 16
   11dd0:	e893000c 	lwi	r4, r19, 12
   11dd4:	f8830000 	swi	r4, r3, 0
   11dd8:	e8730010 	lwi	r3, r19, 16
   11ddc:	30830004 	addik	r4, r3, 4
   11de0:	f8930010 	swi	r4, r19, 16
   11de4:	e893000c 	lwi	r4, r19, 12
   11de8:	f8830000 	swi	r4, r3, 0
   11dec:	e8730010 	lwi	r3, r19, 16
   11df0:	30830004 	addik	r4, r3, 4
   11df4:	f8930010 	swi	r4, r19, 16
   11df8:	e893000c 	lwi	r4, r19, 12
   11dfc:	f8830000 	swi	r4, r3, 0
   11e00:	e8730010 	lwi	r3, r19, 16
   11e04:	30830004 	addik	r4, r3, 4
   11e08:	f8930010 	swi	r4, r19, 16
   11e0c:	e893000c 	lwi	r4, r19, 12
   11e10:	f8830000 	swi	r4, r3, 0
   11e14:	e8730028 	lwi	r3, r19, 40
   11e18:	3063fff0 	addik	r3, r3, -16
   11e1c:	f8730028 	swi	r3, r19, 40
   11e20:	e8930028 	lwi	r4, r19, 40
   11e24:	3060000f 	addik	r3, r0, 15
   11e28:	16441803 	cmpu	r18, r4, r3
   11e2c:	bc52ff98 	blti	r18, -104		// 11dc4
   11e30:	b8000024 	bri	36		// 11e54
   11e34:	e8730010 	lwi	r3, r19, 16
   11e38:	30830004 	addik	r4, r3, 4
   11e3c:	f8930010 	swi	r4, r19, 16
   11e40:	e893000c 	lwi	r4, r19, 12
   11e44:	f8830000 	swi	r4, r3, 0
   11e48:	e8730028 	lwi	r3, r19, 40
   11e4c:	3063fffc 	addik	r3, r3, -4
   11e50:	f8730028 	swi	r3, r19, 40
   11e54:	e8930028 	lwi	r4, r19, 40
   11e58:	30600003 	addik	r3, r0, 3
   11e5c:	16441803 	cmpu	r18, r4, r3
   11e60:	bc52ffd4 	blti	r18, -44		// 11e34
   11e64:	e8730010 	lwi	r3, r19, 16
   11e68:	f8730004 	swi	r3, r19, 4
   11e6c:	b800001c 	bri	28		// 11e88
   11e70:	e8730004 	lwi	r3, r19, 4
   11e74:	30830001 	addik	r4, r3, 1
   11e78:	f8930004 	swi	r4, r19, 4
   11e7c:	e8930024 	lwi	r4, r19, 36
   11e80:	90840060 	sext8	r4, r4
   11e84:	f0830000 	sbi	r4, r3, 0
   11e88:	e8730028 	lwi	r3, r19, 40
   11e8c:	3083ffff 	addik	r4, r3, -1
   11e90:	f8930028 	swi	r4, r19, 40
   11e94:	bc23ffdc 	bnei	r3, -36		// 11e70
   11e98:	e8730020 	lwi	r3, r19, 32
   11e9c:	10330000 	addk	r1, r19, r0
   11ea0:	ea610018 	lwi	r19, r1, 24
   11ea4:	3021001c 	addik	r1, r1, 28
   11ea8:	b60f0008 	rtsd	r15, 8
   11eac:	80000000 	or	r0, r0, r0

00011eb0 <strlen>:
   11eb0:	3021fff0 	addik	r1, r1, -16
   11eb4:	fa61000c 	swi	r19, r1, 12
   11eb8:	12610000 	addk	r19, r1, r0
   11ebc:	f8b30014 	swi	r5, r19, 20
   11ec0:	e8730014 	lwi	r3, r19, 20
   11ec4:	f8730008 	swi	r3, r19, 8
   11ec8:	e8730014 	lwi	r3, r19, 20
   11ecc:	a4630003 	andi	r3, r3, 3
   11ed0:	bc230060 	bnei	r3, 96		// 11f30
   11ed4:	e8730014 	lwi	r3, r19, 20
   11ed8:	f8730004 	swi	r3, r19, 4
   11edc:	b8000010 	bri	16		// 11eec
   11ee0:	e8730004 	lwi	r3, r19, 4
   11ee4:	30630004 	addik	r3, r3, 4
   11ee8:	f8730004 	swi	r3, r19, 4
   11eec:	e8730004 	lwi	r3, r19, 4
   11ef0:	e8630000 	lwi	r3, r3, 0
   11ef4:	b000fefe 	imm	-258
   11ef8:	3083feff 	addik	r4, r3, -257
   11efc:	e8730004 	lwi	r3, r19, 4
   11f00:	e8630000 	lwi	r3, r3, 0
   11f04:	a863ffff 	xori	r3, r3, -1
   11f08:	84641800 	and	r3, r4, r3
   11f0c:	b0008080 	imm	-32640
   11f10:	a4638080 	andi	r3, r3, -32640
   11f14:	bc03ffcc 	beqi	r3, -52		// 11ee0
   11f18:	e8730004 	lwi	r3, r19, 4
   11f1c:	f8730014 	swi	r3, r19, 20
   11f20:	b8000010 	bri	16		// 11f30
   11f24:	e8730014 	lwi	r3, r19, 20
   11f28:	30630001 	addik	r3, r3, 1
   11f2c:	f8730014 	swi	r3, r19, 20
   11f30:	e8730014 	lwi	r3, r19, 20
   11f34:	e0630000 	lbui	r3, r3, 0
   11f38:	90630060 	sext8	r3, r3
   11f3c:	bc23ffe8 	bnei	r3, -24		// 11f24
   11f40:	e8930014 	lwi	r4, r19, 20
   11f44:	e8730008 	lwi	r3, r19, 8
   11f48:	14632000 	rsubk	r3, r3, r4
   11f4c:	10330000 	addk	r1, r19, r0
   11f50:	ea61000c 	lwi	r19, r1, 12
   11f54:	30210010 	addik	r1, r1, 16
   11f58:	b60f0008 	rtsd	r15, 8
   11f5c:	80000000 	or	r0, r0, r0

00011f60 <strncmp>:
   11f60:	3021fff0 	addik	r1, r1, -16
   11f64:	fa61000c 	swi	r19, r1, 12
   11f68:	12610000 	addk	r19, r1, r0
   11f6c:	f8b30014 	swi	r5, r19, 20
   11f70:	f8d30018 	swi	r6, r19, 24
   11f74:	f8f3001c 	swi	r7, r19, 28
   11f78:	e873001c 	lwi	r3, r19, 28
   11f7c:	bc23000c 	bnei	r3, 12		// 11f88
   11f80:	10600000 	addk	r3, r0, r0
   11f84:	b8000148 	bri	328		// 120cc
   11f88:	e8930014 	lwi	r4, r19, 20
   11f8c:	e8730018 	lwi	r3, r19, 24
   11f90:	80641800 	or	r3, r4, r3
   11f94:	a4630003 	andi	r3, r3, 3
   11f98:	bc2300ec 	bnei	r3, 236		// 12084
   11f9c:	e8730014 	lwi	r3, r19, 20
   11fa0:	f8730004 	swi	r3, r19, 4
   11fa4:	e8730018 	lwi	r3, r19, 24
   11fa8:	f8730008 	swi	r3, r19, 8
   11fac:	b8000064 	bri	100		// 12010
   11fb0:	e873001c 	lwi	r3, r19, 28
   11fb4:	3063fffc 	addik	r3, r3, -4
   11fb8:	f873001c 	swi	r3, r19, 28
   11fbc:	e873001c 	lwi	r3, r19, 28
   11fc0:	bc030030 	beqi	r3, 48		// 11ff0
   11fc4:	e8730004 	lwi	r3, r19, 4
   11fc8:	e8630000 	lwi	r3, r3, 0
   11fcc:	b000fefe 	imm	-258
   11fd0:	3083feff 	addik	r4, r3, -257
   11fd4:	e8730004 	lwi	r3, r19, 4
   11fd8:	e8630000 	lwi	r3, r3, 0
   11fdc:	a863ffff 	xori	r3, r3, -1
   11fe0:	84641800 	and	r3, r4, r3
   11fe4:	b0008080 	imm	-32640
   11fe8:	a4638080 	andi	r3, r3, -32640
   11fec:	bc03000c 	beqi	r3, 12		// 11ff8
   11ff0:	10600000 	addk	r3, r0, r0
   11ff4:	b80000d8 	bri	216		// 120cc
   11ff8:	e8730004 	lwi	r3, r19, 4
   11ffc:	30630004 	addik	r3, r3, 4
   12000:	f8730004 	swi	r3, r19, 4
   12004:	e8730008 	lwi	r3, r19, 8
   12008:	30630004 	addik	r3, r3, 4
   1200c:	f8730008 	swi	r3, r19, 8
   12010:	e893001c 	lwi	r4, r19, 28
   12014:	30600003 	addik	r3, r0, 3
   12018:	16441803 	cmpu	r18, r4, r3
   1201c:	bcb2001c 	bgei	r18, 28		// 12038
   12020:	e8730004 	lwi	r3, r19, 4
   12024:	e8830000 	lwi	r4, r3, 0
   12028:	e8730008 	lwi	r3, r19, 8
   1202c:	e8630000 	lwi	r3, r3, 0
   12030:	88641800 	xor	r3, r4, r3
   12034:	bc03ff7c 	beqi	r3, -132		// 11fb0
   12038:	e8730004 	lwi	r3, r19, 4
   1203c:	f8730014 	swi	r3, r19, 20
   12040:	e8730008 	lwi	r3, r19, 8
   12044:	f8730018 	swi	r3, r19, 24
   12048:	b800003c 	bri	60		// 12084
   1204c:	e873001c 	lwi	r3, r19, 28
   12050:	bc030014 	beqi	r3, 20		// 12064
   12054:	e8730014 	lwi	r3, r19, 20
   12058:	e0630000 	lbui	r3, r3, 0
   1205c:	90630060 	sext8	r3, r3
   12060:	bc23000c 	bnei	r3, 12		// 1206c
   12064:	10600000 	addk	r3, r0, r0
   12068:	b8000064 	bri	100		// 120cc
   1206c:	e8730014 	lwi	r3, r19, 20
   12070:	30630001 	addik	r3, r3, 1
   12074:	f8730014 	swi	r3, r19, 20
   12078:	e8730018 	lwi	r3, r19, 24
   1207c:	30630001 	addik	r3, r3, 1
   12080:	f8730018 	swi	r3, r19, 24
   12084:	e873001c 	lwi	r3, r19, 28
   12088:	3083ffff 	addik	r4, r3, -1
   1208c:	f893001c 	swi	r4, r19, 28
   12090:	bc030024 	beqi	r3, 36		// 120b4
   12094:	e8730014 	lwi	r3, r19, 20
   12098:	e0630000 	lbui	r3, r3, 0
   1209c:	90830060 	sext8	r4, r3
   120a0:	e8730018 	lwi	r3, r19, 24
   120a4:	e0630000 	lbui	r3, r3, 0
   120a8:	90630060 	sext8	r3, r3
   120ac:	88641800 	xor	r3, r4, r3
   120b0:	bc03ff9c 	beqi	r3, -100		// 1204c
   120b4:	e8730014 	lwi	r3, r19, 20
   120b8:	e0630000 	lbui	r3, r3, 0
   120bc:	10830000 	addk	r4, r3, r0
   120c0:	e8730018 	lwi	r3, r19, 24
   120c4:	e0630000 	lbui	r3, r3, 0
   120c8:	14632000 	rsubk	r3, r3, r4
   120cc:	10330000 	addk	r1, r19, r0
   120d0:	ea61000c 	lwi	r19, r1, 12
   120d4:	30210010 	addik	r1, r1, 16
   120d8:	b60f0008 	rtsd	r15, 8
   120dc:	80000000 	or	r0, r0, r0

000120e0 <strncpy>:
   120e0:	3021ffe8 	addik	r1, r1, -24
   120e4:	fa610014 	swi	r19, r1, 20
   120e8:	12610000 	addk	r19, r1, r0
   120ec:	f8b3001c 	swi	r5, r19, 28
   120f0:	f8d30020 	swi	r6, r19, 32
   120f4:	f8f30024 	swi	r7, r19, 36
   120f8:	e873001c 	lwi	r3, r19, 28
   120fc:	f8730004 	swi	r3, r19, 4
   12100:	e8730020 	lwi	r3, r19, 32
   12104:	f8730008 	swi	r3, r19, 8
   12108:	e8930008 	lwi	r4, r19, 8
   1210c:	e8730004 	lwi	r3, r19, 4
   12110:	80641800 	or	r3, r4, r3
   12114:	a4630003 	andi	r3, r3, 3
   12118:	bc2300e0 	bnei	r3, 224		// 121f8
   1211c:	e8930024 	lwi	r4, r19, 36
   12120:	30600003 	addik	r3, r0, 3
   12124:	16441803 	cmpu	r18, r4, r3
   12128:	bcb200d0 	bgei	r18, 208		// 121f8
   1212c:	e8730004 	lwi	r3, r19, 4
   12130:	f873000c 	swi	r3, r19, 12
   12134:	e8730008 	lwi	r3, r19, 8
   12138:	f8730010 	swi	r3, r19, 16
   1213c:	b8000030 	bri	48		// 1216c
   12140:	e8730024 	lwi	r3, r19, 36
   12144:	3063fffc 	addik	r3, r3, -4
   12148:	f8730024 	swi	r3, r19, 36
   1214c:	e873000c 	lwi	r3, r19, 12
   12150:	30830004 	addik	r4, r3, 4
   12154:	f893000c 	swi	r4, r19, 12
   12158:	e8930010 	lwi	r4, r19, 16
   1215c:	30a40004 	addik	r5, r4, 4
   12160:	f8b30010 	swi	r5, r19, 16
   12164:	e8840000 	lwi	r4, r4, 0
   12168:	f8830000 	swi	r4, r3, 0
   1216c:	e8930024 	lwi	r4, r19, 36
   12170:	30600003 	addik	r3, r0, 3
   12174:	16441803 	cmpu	r18, r4, r3
   12178:	bcb20030 	bgei	r18, 48		// 121a8
   1217c:	e8730010 	lwi	r3, r19, 16
   12180:	e8630000 	lwi	r3, r3, 0
   12184:	b000fefe 	imm	-258
   12188:	3083feff 	addik	r4, r3, -257
   1218c:	e8730010 	lwi	r3, r19, 16
   12190:	e8630000 	lwi	r3, r3, 0
   12194:	a863ffff 	xori	r3, r3, -1
   12198:	84641800 	and	r3, r4, r3
   1219c:	b0008080 	imm	-32640
   121a0:	a4638080 	andi	r3, r3, -32640
   121a4:	bc03ff9c 	beqi	r3, -100		// 12140
   121a8:	e873000c 	lwi	r3, r19, 12
   121ac:	f8730004 	swi	r3, r19, 4
   121b0:	e8730010 	lwi	r3, r19, 16
   121b4:	f8730008 	swi	r3, r19, 8
   121b8:	b8000040 	bri	64		// 121f8
   121bc:	e8730024 	lwi	r3, r19, 36
   121c0:	3063ffff 	addik	r3, r3, -1
   121c4:	f8730024 	swi	r3, r19, 36
   121c8:	e8730004 	lwi	r3, r19, 4
   121cc:	30830001 	addik	r4, r3, 1
   121d0:	f8930004 	swi	r4, r19, 4
   121d4:	e8930008 	lwi	r4, r19, 8
   121d8:	30a40001 	addik	r5, r4, 1
   121dc:	f8b30008 	swi	r5, r19, 8
   121e0:	e0840000 	lbui	r4, r4, 0
   121e4:	90840060 	sext8	r4, r4
   121e8:	f0830000 	sbi	r4, r3, 0
   121ec:	e0630000 	lbui	r3, r3, 0
   121f0:	90630060 	sext8	r3, r3
   121f4:	bc030010 	beqi	r3, 16		// 12204
   121f8:	e8730024 	lwi	r3, r19, 36
   121fc:	bc23ffc0 	bnei	r3, -64		// 121bc
   12200:	b800001c 	bri	28		// 1221c
   12204:	80000000 	or	r0, r0, r0
   12208:	b8000014 	bri	20		// 1221c
   1220c:	e8730004 	lwi	r3, r19, 4
   12210:	30830001 	addik	r4, r3, 1
   12214:	f8930004 	swi	r4, r19, 4
   12218:	f0030000 	sbi	r0, r3, 0
   1221c:	e8730024 	lwi	r3, r19, 36
   12220:	3083ffff 	addik	r4, r3, -1
   12224:	f8930024 	swi	r4, r19, 36
   12228:	bc23ffe4 	bnei	r3, -28		// 1220c
   1222c:	e873001c 	lwi	r3, r19, 28
   12230:	10330000 	addk	r1, r19, r0
   12234:	ea610014 	lwi	r19, r1, 20
   12238:	30210018 	addik	r1, r1, 24
   1223c:	b60f0008 	rtsd	r15, 8
   12240:	80000000 	or	r0, r0, r0

00012244 <__call_exitprocs>:
   12244:	3021ffc4 	addik	r1, r1, -60
   12248:	f9e10000 	swi	r15, r1, 0
   1224c:	fa61002c 	swi	r19, r1, 44
   12250:	fac10030 	swi	r22, r1, 48
   12254:	fae10034 	swi	r23, r1, 52
   12258:	fb010038 	swi	r24, r1, 56
   1225c:	12610000 	addk	r19, r1, r0
   12260:	f8b30040 	swi	r5, r19, 64
   12264:	f8d30044 	swi	r6, r19, 68
   12268:	b0000001 	imm	1
   1226c:	e8605b54 	lwi	r3, r0, 23380	// 15b54 <_global_impure_ptr>
   12270:	eac30048 	lwi	r22, r3, 72
   12274:	b0000001 	imm	1
   12278:	e8605b54 	lwi	r3, r0, 23380	// 15b54 <_global_impure_ptr>
   1227c:	30630048 	addik	r3, r3, 72
   12280:	f873001c 	swi	r3, r19, 28
   12284:	b80001d4 	bri	468		// 12458
   12288:	eb160088 	lwi	r24, r22, 136
   1228c:	e8760004 	lwi	r3, r22, 4
   12290:	32e3ffff 	addik	r23, r3, -1
   12294:	b8000160 	bri	352		// 123f4
   12298:	30800001 	addik	r4, r0, 1
   1229c:	a657001f 	andi	r18, r23, 31
   122a0:	10602000 	addk	r3, r0, r4
   122a4:	be120014 	beqid	r18, 20		// 122b8
   122a8:	10630000 	addk	r3, r3, r0
   122ac:	3252ffff 	addik	r18, r18, -1
   122b0:	be32fffc 	bneid	r18, -4		// 122ac
   122b4:	10631800 	addk	r3, r3, r3
   122b8:	f8730020 	swi	r3, r19, 32
   122bc:	e8730044 	lwi	r3, r19, 68
   122c0:	bc030028 	beqi	r3, 40		// 122e8
   122c4:	bc180120 	beqi	r24, 288		// 123e4
   122c8:	30770020 	addik	r3, r23, 32
   122cc:	10631800 	addk	r3, r3, r3
   122d0:	10631800 	addk	r3, r3, r3
   122d4:	10781800 	addk	r3, r24, r3
   122d8:	e8830000 	lwi	r4, r3, 0
   122dc:	e8730044 	lwi	r3, r19, 68
   122e0:	88641800 	xor	r3, r4, r3
   122e4:	bc230100 	bnei	r3, 256		// 123e4
   122e8:	30770002 	addik	r3, r23, 2
   122ec:	10631800 	addk	r3, r3, r3
   122f0:	10631800 	addk	r3, r3, r3
   122f4:	10761800 	addk	r3, r22, r3
   122f8:	e8630000 	lwi	r3, r3, 0
   122fc:	f8730024 	swi	r3, r19, 36
   12300:	e8760004 	lwi	r3, r22, 4
   12304:	3063ffff 	addik	r3, r3, -1
   12308:	8863b800 	xor	r3, r3, r23
   1230c:	bc230014 	bnei	r3, 20		// 12320
   12310:	e8760004 	lwi	r3, r22, 4
   12314:	3063ffff 	addik	r3, r3, -1
   12318:	f8760004 	swi	r3, r22, 4
   1231c:	b8000018 	bri	24		// 12334
   12320:	30770002 	addik	r3, r23, 2
   12324:	10631800 	addk	r3, r3, r3
   12328:	10631800 	addk	r3, r3, r3
   1232c:	10761800 	addk	r3, r22, r3
   12330:	f8030000 	swi	r0, r3, 0
   12334:	e8730024 	lwi	r3, r19, 36
   12338:	bc0300b4 	beqi	r3, 180		// 123ec
   1233c:	e8760004 	lwi	r3, r22, 4
   12340:	f8730028 	swi	r3, r19, 40
   12344:	bc180014 	beqi	r24, 20		// 12358
   12348:	e8980100 	lwi	r4, r24, 256
   1234c:	e8730020 	lwi	r3, r19, 32
   12350:	84641800 	and	r3, r4, r3
   12354:	bc230014 	bnei	r3, 20		// 12368
   12358:	e8730024 	lwi	r3, r19, 36
   1235c:	99fc1800 	brald	r15, r3
   12360:	80000000 	or	r0, r0, r0
   12364:	b800005c 	bri	92		// 123c0
   12368:	e8980104 	lwi	r4, r24, 260
   1236c:	e8730020 	lwi	r3, r19, 32
   12370:	84641800 	and	r3, r4, r3
   12374:	bc23002c 	bnei	r3, 44		// 123a0
   12378:	1077b800 	addk	r3, r23, r23
   1237c:	10631800 	addk	r3, r3, r3
   12380:	10781800 	addk	r3, r24, r3
   12384:	e8830000 	lwi	r4, r3, 0
   12388:	e8730024 	lwi	r3, r19, 36
   1238c:	10c40000 	addk	r6, r4, r0
   12390:	e8b30040 	lwi	r5, r19, 64
   12394:	99fc1800 	brald	r15, r3
   12398:	80000000 	or	r0, r0, r0
   1239c:	b8000024 	bri	36		// 123c0
   123a0:	1077b800 	addk	r3, r23, r23
   123a4:	10631800 	addk	r3, r3, r3
   123a8:	10781800 	addk	r3, r24, r3
   123ac:	e8830000 	lwi	r4, r3, 0
   123b0:	e8730024 	lwi	r3, r19, 36
   123b4:	10a40000 	addk	r5, r4, r0
   123b8:	99fc1800 	brald	r15, r3
   123bc:	80000000 	or	r0, r0, r0
   123c0:	e8960004 	lwi	r4, r22, 4
   123c4:	e8730028 	lwi	r3, r19, 40
   123c8:	88641800 	xor	r3, r4, r3
   123cc:	bc23fe9c 	bnei	r3, -356		// 12268
   123d0:	e873001c 	lwi	r3, r19, 28
   123d4:	e8630000 	lwi	r3, r3, 0
   123d8:	8863b000 	xor	r3, r3, r22
   123dc:	bc23fe8c 	bnei	r3, -372		// 12268
   123e0:	b8000010 	bri	16		// 123f0
   123e4:	80000000 	or	r0, r0, r0
   123e8:	b8000008 	bri	8		// 123f0
   123ec:	80000000 	or	r0, r0, r0
   123f0:	32f7ffff 	addik	r23, r23, -1
   123f4:	bcb7fea4 	bgei	r23, -348		// 12298
   123f8:	b0000000 	imm	0
   123fc:	30600000 	addik	r3, r0, 0
   12400:	bc030060 	beqi	r3, 96		// 12460
   12404:	e8760004 	lwi	r3, r22, 4
   12408:	bc230048 	bnei	r3, 72		// 12450
   1240c:	e8760000 	lwi	r3, r22, 0
   12410:	bc030040 	beqi	r3, 64		// 12450
   12414:	e8960000 	lwi	r4, r22, 0
   12418:	e873001c 	lwi	r3, r19, 28
   1241c:	f8830000 	swi	r4, r3, 0
   12420:	bc180014 	beqi	r24, 20		// 12434
   12424:	10b80000 	addk	r5, r24, r0
   12428:	b000fffe 	imm	-2
   1242c:	b9f4dbd4 	brlid	r15, -9260	// 0 <_start>
   12430:	80000000 	or	r0, r0, r0
   12434:	10b60000 	addk	r5, r22, r0
   12438:	b000fffe 	imm	-2
   1243c:	b9f4dbc4 	brlid	r15, -9276	// 0 <_start>
   12440:	80000000 	or	r0, r0, r0
   12444:	e873001c 	lwi	r3, r19, 28
   12448:	eac30000 	lwi	r22, r3, 0
   1244c:	b800000c 	bri	12		// 12458
   12450:	fad3001c 	swi	r22, r19, 28
   12454:	ead60000 	lwi	r22, r22, 0
   12458:	bc36fe30 	bnei	r22, -464		// 12288
   1245c:	b8000008 	bri	8		// 12464
   12460:	80000000 	or	r0, r0, r0
   12464:	80000000 	or	r0, r0, r0
   12468:	e9e10000 	lwi	r15, r1, 0
   1246c:	10330000 	addk	r1, r19, r0
   12470:	ea61002c 	lwi	r19, r1, 44
   12474:	eac10030 	lwi	r22, r1, 48
   12478:	eae10034 	lwi	r23, r1, 52
   1247c:	eb010038 	lwi	r24, r1, 56
   12480:	3021003c 	addik	r1, r1, 60
   12484:	b60f0008 	rtsd	r15, 8
   12488:	80000000 	or	r0, r0, r0

0001248c <_exception_handler>:
   1248c:	98085800 	bra	r11

00012490 <_program_clean>:
   12490:	b60f0008 	rtsd	r15, 8
   12494:	80000000 	or	r0, r0, r0

00012498 <_program_init>:
   12498:	b60f0008 	rtsd	r15, 8
   1249c:	80000000 	or	r0, r0, r0

000124a0 <__do_global_ctors_aux>:
   124a0:	b0000001 	imm	1
   124a4:	e86048f4 	lwi	r3, r0, 18676	// 148f4 <__CTOR_LIST__>
   124a8:	a883ffff 	xori	r4, r3, -1
   124ac:	bc04003c 	beqi	r4, 60		// 124e8
   124b0:	3021fff8 	addik	r1, r1, -8
   124b4:	fa610004 	swi	r19, r1, 4
   124b8:	b0000001 	imm	1
   124bc:	326048f4 	addik	r19, r0, 18676	// 148f4 <__CTOR_LIST__>
   124c0:	f9e10000 	swi	r15, r1, 0
   124c4:	99fc1800 	brald	r15, r3
   124c8:	3273fffc 	addik	r19, r19, -4
   124cc:	e8730000 	lwi	r3, r19, 0
   124d0:	a883ffff 	xori	r4, r3, -1
   124d4:	be24fff0 	bneid	r4, -16		// 124c4
   124d8:	e9e10000 	lwi	r15, r1, 0
   124dc:	ea610004 	lwi	r19, r1, 4
   124e0:	b60f0008 	rtsd	r15, 8
   124e4:	30210008 	addik	r1, r1, 8
   124e8:	b60f0008 	rtsd	r15, 8
   124ec:	80000000 	or	r0, r0, r0

000124f0 <__interrupt_handler>:
   124f0:	3021ffac 	addik	r1, r1, -84
   124f4:	f9e10000 	swi	r15, r1, 0
   124f8:	f8210020 	swi	r1, r1, 32
   124fc:	f8610024 	swi	r3, r1, 36
   12500:	f8810028 	swi	r4, r1, 40
   12504:	f8a1002c 	swi	r5, r1, 44
   12508:	f8c10030 	swi	r6, r1, 48
   1250c:	f8e10034 	swi	r7, r1, 52
   12510:	f9010038 	swi	r8, r1, 56
   12514:	f921003c 	swi	r9, r1, 60
   12518:	f9410040 	swi	r10, r1, 64
   1251c:	b0000001 	imm	1
   12520:	30604864 	addik	r3, r0, 18532	// 14864 <MB_InterruptVectorTable>
   12524:	f9610044 	swi	r11, r1, 68
   12528:	f9810048 	swi	r12, r1, 72
   1252c:	fa21004c 	swi	r17, r1, 76
   12530:	95608001 	mfs	r11, rmsr
   12534:	e8830000 	lwi	r4, r3, 0
   12538:	e8a30004 	lwi	r5, r3, 4
   1253c:	fa410050 	swi	r18, r1, 80
   12540:	f961001c 	swi	r11, r1, 28
   12544:	99fc2000 	brald	r15, r4
   12548:	80000000 	or	r0, r0, r0
   1254c:	e9e10000 	lwi	r15, r1, 0
   12550:	e961001c 	lwi	r11, r1, 28
   12554:	e8210020 	lwi	r1, r1, 32
   12558:	940bc001 	mts	rmsr, r11
   1255c:	e8610024 	lwi	r3, r1, 36
   12560:	e8810028 	lwi	r4, r1, 40
   12564:	e8a1002c 	lwi	r5, r1, 44
   12568:	e8c10030 	lwi	r6, r1, 48
   1256c:	e8e10034 	lwi	r7, r1, 52
   12570:	e9010038 	lwi	r8, r1, 56
   12574:	e921003c 	lwi	r9, r1, 60
   12578:	e9410040 	lwi	r10, r1, 64
   1257c:	e9610044 	lwi	r11, r1, 68
   12580:	e9810048 	lwi	r12, r1, 72
   12584:	ea21004c 	lwi	r17, r1, 76
   12588:	ea410050 	lwi	r18, r1, 80
   1258c:	b62e0000 	rtid	r14, 0
   12590:	30210054 	addik	r1, r1, 84

00012594 <microblaze_register_handler>:
   12594:	b0000001 	imm	1
   12598:	30604864 	addik	r3, r0, 18532	// 14864 <MB_InterruptVectorTable>
   1259c:	f8a30000 	swi	r5, r3, 0
   125a0:	b60f0008 	rtsd	r15, 8
   125a4:	f8c30004 	swi	r6, r3, 4

000125a8 <usleep>:
   125a8:	30600019 	addik	r3, r0, 25
   125ac:	30a5ffff 	addik	r5, r5, -1
   125b0:	00e01800 	add	r7, r0, r3
   125b4:	30e7ffff 	addik	r7, r7, -1
   125b8:	be27fffc 	bneid	r7, -4		// 125b4
   125bc:	80000000 	or	r0, r0, r0
   125c0:	be25ffec 	bneid	r5, -20		// 125ac
   125c4:	80000000 	or	r0, r0, r0
   125c8:	b60f0008 	rtsd	r15, 8
   125cc:	10600000 	addk	r3, r0, r0

000125d0 <sleep>:
   125d0:	b000017d 	imm	381
   125d4:	30607840 	addik	r3, r0, 30784
   125d8:	30a5ffff 	addik	r5, r5, -1
   125dc:	00e01800 	add	r7, r0, r3
   125e0:	30e7ffff 	addik	r7, r7, -1
   125e4:	be27fffc 	bneid	r7, -4		// 125e0
   125e8:	80000000 	or	r0, r0, r0
   125ec:	be25ffec 	bneid	r5, -20		// 125d8
   125f0:	80000000 	or	r0, r0, r0
   125f4:	b60f0008 	rtsd	r15, 8
   125f8:	10600000 	addk	r3, r0, r0

000125fc <MB_Sleep>:
   125fc:	306061a8 	addik	r3, r0, 25000
   12600:	30a5ffff 	addik	r5, r5, -1
   12604:	00e01800 	add	r7, r0, r3
   12608:	30e7ffff 	addik	r7, r7, -1
   1260c:	be27fffc 	bneid	r7, -4		// 12608
   12610:	80000000 	or	r0, r0, r0
   12614:	be25ffec 	bneid	r5, -20		// 12600
   12618:	80000000 	or	r0, r0, r0
   1261c:	b60f0008 	rtsd	r15, 8
   12620:	80000000 	or	r0, r0, r0

00012624 <Xil_DCacheDisable>:
   12624:	3021fffc 	addik	r1, r1, -4
   12628:	f9e10000 	swi	r15, r1, 0
   1262c:	b000ffff 	imm	-1
   12630:	b9f4eee8 	brlid	r15, -4376	// 11518 <microblaze_flush_cache_ext>
   12634:	80000000 	or	r0, r0, r0
   12638:	b000ffff 	imm	-1
   1263c:	b9f4eeec 	brlid	r15, -4372	// 11528 <microblaze_invalidate_dcache>
   12640:	80000000 	or	r0, r0, r0
   12644:	b000ffff 	imm	-1
   12648:	b9f4eed8 	brlid	r15, -4392	// 11520 <microblaze_invalidate_cache_ext>
   1264c:	80000000 	or	r0, r0, r0
   12650:	b000ffff 	imm	-1
   12654:	b9f4eed4 	brlid	r15, -4396	// 11528 <microblaze_invalidate_dcache>
   12658:	80000000 	or	r0, r0, r0
   1265c:	b000ffff 	imm	-1
   12660:	b9f4ee78 	brlid	r15, -4488	// 114d8 <microblaze_disable_dcache>
   12664:	80000000 	or	r0, r0, r0
   12668:	e9e10000 	lwi	r15, r1, 0
   1266c:	b60f0008 	rtsd	r15, 8
   12670:	30210004 	addik	r1, r1, 4

00012674 <Xil_ICacheDisable>:
   12674:	3021fffc 	addik	r1, r1, -4
   12678:	f9e10000 	swi	r15, r1, 0
   1267c:	b000ffff 	imm	-1
   12680:	b9f4eea0 	brlid	r15, -4448	// 11520 <microblaze_invalidate_cache_ext>
   12684:	80000000 	or	r0, r0, r0
   12688:	b000ffff 	imm	-1
   1268c:	b9f4eea4 	brlid	r15, -4444	// 11530 <microblaze_invalidate_icache>
   12690:	80000000 	or	r0, r0, r0
   12694:	b000ffff 	imm	-1
   12698:	b9f4ee58 	brlid	r15, -4520	// 114f0 <microblaze_disable_icache>
   1269c:	80000000 	or	r0, r0, r0
   126a0:	e9e10000 	lwi	r15, r1, 0
   126a4:	b60f0008 	rtsd	r15, 8
   126a8:	30210004 	addik	r1, r1, 4

000126ac <Xil_ExceptionNullHandler>:
   126ac:	b60f0008 	rtsd	r15, 8
   126b0:	80000000 	or	r0, r0, r0

000126b4 <Xil_ExceptionInit>:
   126b4:	b60f0008 	rtsd	r15, 8
   126b8:	80000000 	or	r0, r0, r0

000126bc <Xil_ExceptionEnable>:
   126bc:	3021fffc 	addik	r1, r1, -4
   126c0:	f9e10000 	swi	r15, r1, 0
   126c4:	b000ffff 	imm	-1
   126c8:	b9f4edfc 	brlid	r15, -4612	// 114c4 <microblaze_enable_interrupts>
   126cc:	80000000 	or	r0, r0, r0
   126d0:	e9e10000 	lwi	r15, r1, 0
   126d4:	b60f0008 	rtsd	r15, 8
   126d8:	30210004 	addik	r1, r1, 4

000126dc <Xil_ExceptionDisable>:
   126dc:	3021fffc 	addik	r1, r1, -4
   126e0:	f9e10000 	swi	r15, r1, 0
   126e4:	b000ffff 	imm	-1
   126e8:	b9f4ee1c 	brlid	r15, -4580	// 11504 <microblaze_disable_interrupts>
   126ec:	80000000 	or	r0, r0, r0
   126f0:	e9e10000 	lwi	r15, r1, 0
   126f4:	b60f0008 	rtsd	r15, 8
   126f8:	30210004 	addik	r1, r1, 4

000126fc <Xil_ExceptionRegisterHandler>:
   126fc:	a8a50010 	xori	r5, r5, 16
   12700:	bc05000c 	beqi	r5, 12		// 1270c
   12704:	b60f0008 	rtsd	r15, 8
   12708:	80000000 	or	r0, r0, r0
   1270c:	b0000001 	imm	1
   12710:	f8c04864 	swi	r6, r0, 18532	// 14864 <MB_InterruptVectorTable>
   12714:	b0000001 	imm	1
   12718:	f8e04868 	swi	r7, r0, 18536
   1271c:	b60f0008 	rtsd	r15, 8
   12720:	80000000 	or	r0, r0, r0

00012724 <Xil_ExceptionRemoveHandler>:
   12724:	a8a50010 	xori	r5, r5, 16
   12728:	bc05000c 	beqi	r5, 12		// 12734
   1272c:	b60f0008 	rtsd	r15, 8
   12730:	80000000 	or	r0, r0, r0
   12734:	b0000001 	imm	1
   12738:	306026ac 	addik	r3, r0, 9900	// 126ac <Xil_ExceptionNullHandler>
   1273c:	b0000001 	imm	1
   12740:	f8a04868 	swi	r5, r0, 18536
   12744:	b0000001 	imm	1
   12748:	f8604864 	swi	r3, r0, 18532	// 14864 <MB_InterruptVectorTable>
   1274c:	b60f0008 	rtsd	r15, 8
   12750:	80000000 	or	r0, r0, r0

00012754 <Xil_MemCpy>:
   12754:	31200003 	addik	r9, r0, 3
   12758:	16474803 	cmpu	r18, r7, r9
   1275c:	beb20044 	bgeid	r18, 68		// 127a0
   12760:	10670000 	addk	r3, r7, r0
   12764:	11060000 	addk	r8, r6, r0
   12768:	10850000 	addk	r4, r5, r0
   1276c:	e9480000 	lwi	r10, r8, 0
   12770:	3063fffc 	addik	r3, r3, -4
   12774:	30840004 	addik	r4, r4, 4
   12778:	f944fffc 	swi	r10, r4, -4
   1277c:	16434803 	cmpu	r18, r3, r9
   12780:	be52ffec 	bltid	r18, -20		// 1276c
   12784:	31080004 	addik	r8, r8, 4
   12788:	3067fffc 	addik	r3, r7, -4
   1278c:	a463fffc 	andi	r3, r3, -4
   12790:	30630004 	addik	r3, r3, 4
   12794:	10a51800 	addk	r5, r5, r3
   12798:	10c61800 	addk	r6, r6, r3
   1279c:	a4e70003 	andi	r7, r7, 3
   127a0:	bc07001c 	beqi	r7, 28		// 127bc
   127a4:	e0660000 	lbui	r3, r6, 0
   127a8:	30e7ffff 	addik	r7, r7, -1
   127ac:	30a50001 	addik	r5, r5, 1
   127b0:	f065ffff 	sbi	r3, r5, -1
   127b4:	be27fff0 	bneid	r7, -16		// 127a4
   127b8:	30c60001 	addik	r6, r6, 1
   127bc:	b60f0008 	rtsd	r15, 8
   127c0:	80000000 	or	r0, r0, r0

000127c4 <getnum>:
   127c4:	e9050000 	lwi	r8, r5, 0
   127c8:	be080070 	beqid	r8, 112		// 12838
   127cc:	10680000 	addk	r3, r8, r0
   127d0:	e0680000 	lbui	r3, r8, 0
   127d4:	b0000001 	imm	1
   127d8:	e9204768 	lwi	r9, r0, 18280	// 14768 <__ctype_ptr__>
   127dc:	90630060 	sext8	r3, r3
   127e0:	10691800 	addk	r3, r9, r3
   127e4:	e0630001 	lbui	r3, r3, 1
   127e8:	a4630004 	andi	r3, r3, 4
   127ec:	bc030044 	beqi	r3, 68		// 12830
   127f0:	10600000 	addk	r3, r0, r0
   127f4:	e0c80000 	lbui	r6, r8, 0
   127f8:	31080001 	addik	r8, r8, 1
   127fc:	10831800 	addk	r4, r3, r3
   12800:	e0e80000 	lbui	r7, r8, 0
   12804:	10842000 	addk	r4, r4, r4
   12808:	10641800 	addk	r3, r4, r3
   1280c:	90870060 	sext8	r4, r7
   12810:	10892000 	addk	r4, r9, r4
   12814:	e0e40001 	lbui	r7, r4, 1
   12818:	90860060 	sext8	r4, r6
   1281c:	10631800 	addk	r3, r3, r3
   12820:	3084ffd0 	addik	r4, r4, -48
   12824:	a4c70004 	andi	r6, r7, 4
   12828:	be26ffcc 	bneid	r6, -52		// 127f4
   1282c:	10641800 	addk	r3, r4, r3
   12830:	b60f0008 	rtsd	r15, 8
   12834:	f9050000 	swi	r8, r5, 0
   12838:	b60f0008 	rtsd	r15, 8
   1283c:	f9050000 	swi	r8, r5, 0

00012840 <padding.part.0>:
   12840:	3021fff4 	addik	r1, r1, -12
   12844:	f9e10000 	swi	r15, r1, 0
   12848:	fa610004 	swi	r19, r1, 4
   1284c:	fac10008 	swi	r22, r1, 8
   12850:	ea650000 	lwi	r19, r5, 0
   12854:	e8650004 	lwi	r3, r5, 4
   12858:	16439801 	cmp	r18, r3, r19
   1285c:	beb20024 	bgeid	r18, 36		// 12880
   12860:	12c50000 	addk	r22, r5, r0
   12864:	e0b6000c 	lbui	r5, r22, 12
   12868:	32730001 	addik	r19, r19, 1
   1286c:	b9f41610 	brlid	r15, 5648	// 13e7c <outbyte>
   12870:	90a50060 	sext8	r5, r5
   12874:	e8760004 	lwi	r3, r22, 4
   12878:	16439801 	cmp	r18, r3, r19
   1287c:	bc52ffe8 	blti	r18, -24		// 12864
   12880:	e9e10000 	lwi	r15, r1, 0
   12884:	ea610004 	lwi	r19, r1, 4
   12888:	eac10008 	lwi	r22, r1, 8
   1288c:	b60f0008 	rtsd	r15, 8
   12890:	3021000c 	addik	r1, r1, 12

00012894 <outnum>:
   12894:	b0000001 	imm	1
   12898:	e86058a0 	lwi	r3, r0, 22688
   1289c:	b0000001 	imm	1
   128a0:	e08058b0 	lbui	r4, r0, 22704
   128a4:	3021ff98 	addik	r1, r1, -104
   128a8:	fb210060 	swi	r25, r1, 96
   128ac:	f861003c 	swi	r3, r1, 60
   128b0:	13270000 	addk	r25, r7, r0
   128b4:	b0000001 	imm	1
   128b8:	e86058a8 	lwi	r3, r0, 22696
   128bc:	f081004c 	sbi	r4, r1, 76
   128c0:	b0000001 	imm	1
   128c4:	e8e058a4 	lwi	r7, r0, 22692
   128c8:	b0000001 	imm	1
   128cc:	e88058ac 	lwi	r4, r0, 22700
   128d0:	fb01005c 	swi	r24, r1, 92
   128d4:	13060000 	addk	r24, r6, r0
   128d8:	f8610044 	swi	r3, r1, 68
   128dc:	f8810048 	swi	r4, r1, 72
   128e0:	f9e10000 	swi	r15, r1, 0
   128e4:	fa610050 	swi	r19, r1, 80
   128e8:	fac10054 	swi	r22, r1, 84
   128ec:	fae10058 	swi	r23, r1, 88
   128f0:	fb410064 	swi	r26, r1, 100
   128f4:	f8e10040 	swi	r7, r1, 64
   128f8:	30800020 	addik	r4, r0, 32	// 20 <_vector_hw_exception>
   128fc:	10600000 	addk	r3, r0, r0
   12900:	10c11800 	addk	r6, r1, r3
   12904:	30e00030 	addik	r7, r0, 48
   12908:	f0e6001c 	sbi	r7, r6, 28
   1290c:	3084ffff 	addik	r4, r4, -1
   12910:	be24fff0 	bneid	r4, -16		// 12900
   12914:	30630001 	addik	r3, r3, 1
   12918:	e8790018 	lwi	r3, r25, 24
   1291c:	be230140 	bneid	r3, 320		// 12a5c
   12920:	12c50000 	addk	r22, r5, r0
   12924:	a898000a 	xori	r4, r24, 10
   12928:	14640000 	rsubk	r3, r4, r0
   1292c:	80632000 	or	r3, r3, r4
   12930:	be430014 	bltid	r3, 20		// 12944
   12934:	13400000 	addk	r26, r0, r0
   12938:	bca5000c 	bgei	r5, 12		// 12944
   1293c:	16c50000 	rsubk	r22, r5, r0
   12940:	33400001 	addik	r26, r0, 1
   12944:	b810000c 	brid	12		// 12950
   12948:	12e00000 	addk	r23, r0, r0
   1294c:	12f30000 	addk	r23, r19, r0
   12950:	10b60000 	addk	r5, r22, r0
   12954:	10d80000 	addk	r6, r24, r0
   12958:	b000ffff 	imm	-1
   1295c:	b9f4ecdc 	brlid	r15, -4900	// 11638 <__umodsi3>
   12960:	32770001 	addik	r19, r23, 1
   12964:	3081001c 	addik	r4, r1, 28
   12968:	10641800 	addk	r3, r4, r3
   1296c:	e0630020 	lbui	r3, r3, 32
   12970:	10b60000 	addk	r5, r22, r0
   12974:	10d80000 	addk	r6, r24, r0
   12978:	1081b800 	addk	r4, r1, r23
   1297c:	b000ffff 	imm	-1
   12980:	b9f4ec10 	brlid	r15, -5104	// 11590 <__udivsi3>
   12984:	f064001c 	sbi	r3, r4, 28
   12988:	be23ffc4 	bneid	r3, -60		// 1294c
   1298c:	12c30000 	addk	r22, r3, r0
   12990:	be1a001c 	beqid	r26, 28		// 129ac
   12994:	10619800 	addk	r3, r1, r19
   12998:	12619800 	addk	r19, r1, r19
   1299c:	30e0002d 	addik	r7, r0, 45
   129a0:	f0f3001c 	sbi	r7, r19, 28
   129a4:	32770002 	addik	r19, r23, 2
   129a8:	10619800 	addk	r3, r1, r19
   129ac:	30a1001c 	addik	r5, r1, 28
   129b0:	b000ffff 	imm	-1
   129b4:	b9f4f4fc 	brlid	r15, -2820	// 11eb0 <strlen>
   129b8:	f003001c 	sbi	r0, r3, 28
   129bc:	e8990014 	lwi	r4, r25, 20
   129c0:	f8790000 	swi	r3, r25, 0
   129c4:	14640000 	rsubk	r3, r4, r0
   129c8:	80632000 	or	r3, r3, r4
   129cc:	be430018 	bltid	r3, 24		// 129e4
   129d0:	3273ffff 	addik	r19, r19, -1
   129d4:	e8990010 	lwi	r4, r25, 16
   129d8:	14640000 	rsubk	r3, r4, r0
   129dc:	80632000 	or	r3, r3, r4
   129e0:	bc430084 	blti	r3, 132		// 12a64
   129e4:	10619800 	addk	r3, r1, r19
   129e8:	e0a3001c 	lbui	r5, r3, 28
   129ec:	3273ffff 	addik	r19, r19, -1
   129f0:	b9f4148c 	brlid	r15, 5260	// 13e7c <outbyte>
   129f4:	90a50060 	sext8	r5, r5
   129f8:	a873ffff 	xori	r3, r19, -1
   129fc:	be23ffec 	bneid	r3, -20		// 129e8
   12a00:	10619800 	addk	r3, r1, r19
   12a04:	e8990014 	lwi	r4, r25, 20
   12a08:	14640000 	rsubk	r3, r4, r0
   12a0c:	80632000 	or	r3, r3, r4
   12a10:	bea3002c 	bgeid	r3, 44		// 12a3c
   12a14:	e9e10000 	lwi	r15, r1, 0
   12a18:	e8990010 	lwi	r4, r25, 16
   12a1c:	14640000 	rsubk	r3, r4, r0
   12a20:	80632000 	or	r3, r3, r4
   12a24:	bea3001c 	bgeid	r3, 28		// 12a40
   12a28:	ea610050 	lwi	r19, r1, 80
   12a2c:	b000ffff 	imm	-1
   12a30:	b9f4fe10 	brlid	r15, -496	// 12840 <padding.part.0>
   12a34:	10b90000 	addk	r5, r25, r0
   12a38:	e9e10000 	lwi	r15, r1, 0
   12a3c:	ea610050 	lwi	r19, r1, 80
   12a40:	eac10054 	lwi	r22, r1, 84
   12a44:	eae10058 	lwi	r23, r1, 88
   12a48:	eb01005c 	lwi	r24, r1, 92
   12a4c:	eb210060 	lwi	r25, r1, 96
   12a50:	eb410064 	lwi	r26, r1, 100
   12a54:	b60f0008 	rtsd	r15, 8
   12a58:	30210068 	addik	r1, r1, 104
   12a5c:	b810fee8 	brid	-280		// 12944
   12a60:	13400000 	addk	r26, r0, r0
   12a64:	b000ffff 	imm	-1
   12a68:	b9f4fdd8 	brlid	r15, -552	// 12840 <padding.part.0>
   12a6c:	10b90000 	addk	r5, r25, r0
   12a70:	10619800 	addk	r3, r1, r19
   12a74:	e0a3001c 	lbui	r5, r3, 28
   12a78:	3273ffff 	addik	r19, r19, -1
   12a7c:	b9f41400 	brlid	r15, 5120	// 13e7c <outbyte>
   12a80:	90a50060 	sext8	r5, r5
   12a84:	a873ffff 	xori	r3, r19, -1
   12a88:	be23ff60 	bneid	r3, -160		// 129e8
   12a8c:	10619800 	addk	r3, r1, r19
   12a90:	b810ff78 	brid	-136		// 12a08
   12a94:	e8990014 	lwi	r4, r25, 20

00012a98 <xil_printf>:
   12a98:	10650000 	addk	r3, r5, r0
   12a9c:	f8a10004 	swi	r5, r1, 4
   12aa0:	f8c10008 	swi	r6, r1, 8
   12aa4:	f8e1000c 	swi	r7, r1, 12
   12aa8:	f9010010 	swi	r8, r1, 16
   12aac:	f9210014 	swi	r9, r1, 20
   12ab0:	f9410018 	swi	r10, r1, 24
   12ab4:	3021ffb4 	addik	r1, r1, -76
   12ab8:	fac10040 	swi	r22, r1, 64
   12abc:	f9e10000 	swi	r15, r1, 0
   12ac0:	fa61003c 	swi	r19, r1, 60
   12ac4:	fae10044 	swi	r23, r1, 68
   12ac8:	fb010048 	swi	r24, r1, 72
   12acc:	32c10054 	addik	r22, r1, 84
   12ad0:	f8a10038 	swi	r5, r1, 56
   12ad4:	be03003c 	beqid	r3, 60		// 12b10
   12ad8:	e9e10000 	lwi	r15, r1, 0
   12adc:	e0a30000 	lbui	r5, r3, 0
   12ae0:	90a50060 	sext8	r5, r5
   12ae4:	be050028 	beqid	r5, 40		// 12b0c
   12ae8:	aa650025 	xori	r19, r5, 37
   12aec:	be13003c 	beqid	r19, 60		// 12b28
   12af0:	30800020 	addik	r4, r0, 32	// 20 <_vector_hw_exception>
   12af4:	b9f41388 	brlid	r15, 5000	// 13e7c <outbyte>
   12af8:	80000000 	or	r0, r0, r0
   12afc:	e8610038 	lwi	r3, r1, 56
   12b00:	30630001 	addik	r3, r3, 1
   12b04:	be23ffd8 	bneid	r3, -40		// 12adc
   12b08:	f8610038 	swi	r3, r1, 56
   12b0c:	e9e10000 	lwi	r15, r1, 0
   12b10:	ea61003c 	lwi	r19, r1, 60
   12b14:	eac10040 	lwi	r22, r1, 64
   12b18:	eae10044 	lwi	r23, r1, 68
   12b1c:	eb010048 	lwi	r24, r1, 72
   12b20:	b60f0008 	rtsd	r15, 8
   12b24:	3021004c 	addik	r1, r1, 76
   12b28:	f0810028 	sbi	r4, r1, 40
   12b2c:	30807fff 	addik	r4, r0, 32767
   12b30:	fa610034 	swi	r19, r1, 52
   12b34:	fa610030 	swi	r19, r1, 48
   12b38:	fa61002c 	swi	r19, r1, 44
   12b3c:	f8810024 	swi	r4, r1, 36
   12b40:	fa610020 	swi	r19, r1, 32
   12b44:	fa61001c 	swi	r19, r1, 28
   12b48:	32e00053 	addik	r23, r0, 83
   12b4c:	33000068 	addik	r24, r0, 104
   12b50:	30830001 	addik	r4, r3, 1
   12b54:	be040064 	beqid	r4, 100		// 12bb8
   12b58:	f8810038 	swi	r4, r1, 56
   12b5c:	e0a30001 	lbui	r5, r3, 1
   12b60:	b0000001 	imm	1
   12b64:	e8604768 	lwi	r3, r0, 18280	// 14768 <__ctype_ptr__>
   12b68:	90a50060 	sext8	r5, r5
   12b6c:	10632800 	addk	r3, r3, r5
   12b70:	e0630001 	lbui	r3, r3, 1
   12b74:	a4c30004 	andi	r6, r3, 4
   12b78:	bc060048 	beqi	r6, 72		// 12bc0
   12b7c:	bc330298 	bnei	r19, 664		// 12e14
   12b80:	a8a50030 	xori	r5, r5, 48
   12b84:	be0502b0 	beqid	r5, 688		// 12e34
   12b88:	30600030 	addik	r3, r0, 48
   12b8c:	b000ffff 	imm	-1
   12b90:	b9f4fc34 	brlid	r15, -972	// 127c4 <getnum>
   12b94:	30a10038 	addik	r5, r1, 56
   12b98:	e8a10038 	lwi	r5, r1, 56
   12b9c:	30800001 	addik	r4, r0, 1
   12ba0:	f881002c 	swi	r4, r1, 44
   12ba4:	f8610020 	swi	r3, r1, 32
   12ba8:	be050010 	beqid	r5, 16		// 12bb8
   12bac:	3065ffff 	addik	r3, r5, -1
   12bb0:	be23ffa0 	bneid	r3, -96		// 12b50
   12bb4:	f8610038 	swi	r3, r1, 56
   12bb8:	e0600000 	lbui	r3, r0, 0
   12bbc:	b8000000 	bri	0		// 12bbc
   12bc0:	a4630003 	andi	r3, r3, 3
   12bc4:	a8630001 	xori	r3, r3, 1
   12bc8:	be030264 	beqid	r3, 612		// 12e2c
   12bcc:	10c50000 	addk	r6, r5, r0
   12bd0:	3066ffdb 	addik	r3, r6, -37
   12bd4:	1643b803 	cmpu	r18, r3, r23
   12bd8:	bc52004c 	blti	r18, 76		// 12c24
   12bdc:	10c01800 	addk	r6, r0, r3
   12be0:	10c31800 	addk	r6, r3, r3
   12be4:	10c63000 	addk	r6, r6, r6
   12be8:	b0000001 	imm	1
   12bec:	30665b58 	addik	r3, r6, 23384
   12bf0:	e8630000 	lwi	r3, r3, 0
   12bf4:	98081800 	bra	r3
   12bf8:	30800001 	addik	r4, r0, 1
   12bfc:	f8810034 	swi	r4, r1, 52
   12c00:	e8b60000 	lwi	r5, r22, 0
   12c04:	30e1001c 	addik	r7, r1, 28
   12c08:	b000ffff 	imm	-1
   12c0c:	b9f4fc88 	brlid	r15, -888	// 12894 <outnum>
   12c10:	30c0000a 	addik	r6, r0, 10
   12c14:	e8810038 	lwi	r4, r1, 56
   12c18:	32d60004 	addik	r22, r22, 4
   12c1c:	be04fef4 	beqid	r4, -268		// 12b10
   12c20:	e9e10000 	lwi	r15, r1, 0
   12c24:	30640001 	addik	r3, r4, 1
   12c28:	b810feac 	brid	-340		// 12ad4
   12c2c:	f8610038 	swi	r3, r1, 56
   12c30:	10640000 	addk	r3, r4, r0
   12c34:	be23ff20 	bneid	r3, -224		// 12b54
   12c38:	30830001 	addik	r4, r3, 1
   12c3c:	b800ff7c 	bri	-132		// 12bb8
   12c40:	10640000 	addk	r3, r4, r0
   12c44:	be23ff0c 	bneid	r3, -244		// 12b50
   12c48:	32600001 	addik	r19, r0, 1
   12c4c:	b800ff6c 	bri	-148		// 12bb8
   12c50:	e8b60000 	lwi	r5, r22, 0
   12c54:	30600001 	addik	r3, r0, 1
   12c58:	30e1001c 	addik	r7, r1, 28
   12c5c:	30c00010 	addik	r6, r0, 16	// 10 <_vector_interrupt>
   12c60:	b000ffff 	imm	-1
   12c64:	b9f4fc30 	brlid	r15, -976	// 12894 <outnum>
   12c68:	f8610034 	swi	r3, r1, 52
   12c6c:	32d60004 	addik	r22, r22, 4
   12c70:	b810ffac 	brid	-84		// 12c1c
   12c74:	e8810038 	lwi	r4, r1, 56
   12c78:	30600001 	addik	r3, r0, 1
   12c7c:	f8610030 	swi	r3, r1, 48
   12c80:	10640000 	addk	r3, r4, r0
   12c84:	be23fed0 	bneid	r3, -304		// 12b54
   12c88:	30830001 	addik	r4, r3, 1
   12c8c:	b800ff2c 	bri	-212		// 12bb8
   12c90:	b9f411ec 	brlid	r15, 4588	// 13e7c <outbyte>
   12c94:	30a00025 	addik	r5, r0, 37
   12c98:	b810ff84 	brid	-124		// 12c1c
   12c9c:	e8810038 	lwi	r4, r1, 56
   12ca0:	ea760000 	lwi	r19, r22, 0
   12ca4:	be130018 	beqid	r19, 24		// 12cbc
   12ca8:	32d60004 	addik	r22, r22, 4
   12cac:	b000ffff 	imm	-1
   12cb0:	b9f4f200 	brlid	r15, -3584	// 11eb0 <strlen>
   12cb4:	10b30000 	addk	r5, r19, r0
   12cb8:	f861001c 	swi	r3, r1, 28
   12cbc:	e8810030 	lwi	r4, r1, 48
   12cc0:	14640000 	rsubk	r3, r4, r0
   12cc4:	80632000 	or	r3, r3, r4
   12cc8:	be430034 	bltid	r3, 52		// 12cfc
   12ccc:	e881002c 	lwi	r4, r1, 44
   12cd0:	14640000 	rsubk	r3, r4, r0
   12cd4:	80632000 	or	r3, r3, r4
   12cd8:	bca30024 	bgei	r3, 36		// 12cfc
   12cdc:	b80001b0 	bri	432		// 12e8c
   12ce0:	be030028 	beqid	r3, 40		// 12d08
   12ce4:	3063ffff 	addik	r3, r3, -1
   12ce8:	f8610024 	swi	r3, r1, 36
   12cec:	e0b30000 	lbui	r5, r19, 0
   12cf0:	32730001 	addik	r19, r19, 1
   12cf4:	b9f41188 	brlid	r15, 4488	// 13e7c <outbyte>
   12cf8:	90a50060 	sext8	r5, r5
   12cfc:	e0730000 	lbui	r3, r19, 0
   12d00:	be23ffe0 	bneid	r3, -32		// 12ce0
   12d04:	e8610024 	lwi	r3, r1, 36
   12d08:	e881002c 	lwi	r4, r1, 44
   12d0c:	14640000 	rsubk	r3, r4, r0
   12d10:	80632000 	or	r3, r3, r4
   12d14:	bea3ff08 	bgeid	r3, -248		// 12c1c
   12d18:	e8810038 	lwi	r4, r1, 56
   12d1c:	e8810030 	lwi	r4, r1, 48
   12d20:	14640000 	rsubk	r3, r4, r0
   12d24:	80632000 	or	r3, r3, r4
   12d28:	10801800 	addk	r4, r0, r3
   12d2c:	90830041 	srl	r4, r3
   12d30:	90840041 	srl	r4, r4
   12d34:	90840041 	srl	r4, r4
   12d38:	90840041 	srl	r4, r4
   12d3c:	90840041 	srl	r4, r4
   12d40:	90840041 	srl	r4, r4
   12d44:	90840041 	srl	r4, r4
   12d48:	90840041 	srl	r4, r4
   12d4c:	90840041 	srl	r4, r4
   12d50:	90840041 	srl	r4, r4
   12d54:	90840041 	srl	r4, r4
   12d58:	90840041 	srl	r4, r4
   12d5c:	90840041 	srl	r4, r4
   12d60:	90840041 	srl	r4, r4
   12d64:	90840041 	srl	r4, r4
   12d68:	90840041 	srl	r4, r4
   12d6c:	90840041 	srl	r4, r4
   12d70:	90840041 	srl	r4, r4
   12d74:	90840041 	srl	r4, r4
   12d78:	90840041 	srl	r4, r4
   12d7c:	90840041 	srl	r4, r4
   12d80:	90840041 	srl	r4, r4
   12d84:	90840041 	srl	r4, r4
   12d88:	90840041 	srl	r4, r4
   12d8c:	90840041 	srl	r4, r4
   12d90:	90840041 	srl	r4, r4
   12d94:	90840041 	srl	r4, r4
   12d98:	90840041 	srl	r4, r4
   12d9c:	90840041 	srl	r4, r4
   12da0:	90840041 	srl	r4, r4
   12da4:	90840041 	srl	r4, r4
   12da8:	bc040010 	beqi	r4, 16		// 12db8
   12dac:	b000ffff 	imm	-1
   12db0:	b9f4fa90 	brlid	r15, -1392	// 12840 <padding.part.0>
   12db4:	30a1001c 	addik	r5, r1, 28
   12db8:	b810fe64 	brid	-412		// 12c1c
   12dbc:	e8810038 	lwi	r4, r1, 56
   12dc0:	e8b60000 	lwi	r5, r22, 0
   12dc4:	32d60004 	addik	r22, r22, 4
   12dc8:	b9f410b4 	brlid	r15, 4276	// 13e7c <outbyte>
   12dcc:	90a50060 	sext8	r5, r5
   12dd0:	b810fe4c 	brid	-436		// 12c1c
   12dd4:	e8810038 	lwi	r4, r1, 56
   12dd8:	a8650068 	xori	r3, r5, 104
   12ddc:	bc030078 	beqi	r3, 120		// 12e54
   12de0:	1645c001 	cmp	r18, r5, r24
   12de4:	beb20058 	bgeid	r18, 88		// 12e3c
   12de8:	a865006e 	xori	r3, r5, 110
   12dec:	bc030088 	beqi	r3, 136		// 12e74
   12df0:	a8650072 	xori	r3, r5, 114
   12df4:	bc230070 	bnei	r3, 112		// 12e64
   12df8:	b9f41084 	brlid	r15, 4228	// 13e7c <outbyte>
   12dfc:	30a0000d 	addik	r5, r0, 13
   12e00:	e8610038 	lwi	r3, r1, 56
   12e04:	30630001 	addik	r3, r3, 1
   12e08:	be23fd48 	bneid	r3, -696		// 12b50
   12e0c:	f8610038 	swi	r3, r1, 56
   12e10:	b800fda8 	bri	-600		// 12bb8
   12e14:	b000ffff 	imm	-1
   12e18:	b9f4f9ac 	brlid	r15, -1620	// 127c4 <getnum>
   12e1c:	30a10038 	addik	r5, r1, 56
   12e20:	f8610024 	swi	r3, r1, 36
   12e24:	b810fd84 	brid	-636		// 12ba8
   12e28:	e8a10038 	lwi	r5, r1, 56
   12e2c:	b810fda4 	brid	-604		// 12bd0
   12e30:	30c50020 	addik	r6, r5, 32
   12e34:	b810fd58 	brid	-680		// 12b8c
   12e38:	f0610028 	sbi	r3, r1, 40
   12e3c:	a8650061 	xori	r3, r5, 97
   12e40:	bc230024 	bnei	r3, 36		// 12e64
   12e44:	b9f41038 	brlid	r15, 4152	// 13e7c <outbyte>
   12e48:	30a00007 	addik	r5, r0, 7
   12e4c:	b810ffb8 	brid	-72		// 12e04
   12e50:	e8610038 	lwi	r3, r1, 56
   12e54:	b9f41028 	brlid	r15, 4136	// 13e7c <outbyte>
   12e58:	30a00008 	addik	r5, r0, 8	// 8 <_vector_sw_exception>
   12e5c:	b810ffa8 	brid	-88		// 12e04
   12e60:	e8610038 	lwi	r3, r1, 56
   12e64:	b9f41018 	brlid	r15, 4120	// 13e7c <outbyte>
   12e68:	80000000 	or	r0, r0, r0
   12e6c:	b810ff98 	brid	-104		// 12e04
   12e70:	e8610038 	lwi	r3, r1, 56
   12e74:	b9f41008 	brlid	r15, 4104	// 13e7c <outbyte>
   12e78:	30a0000d 	addik	r5, r0, 13
   12e7c:	b9f41000 	brlid	r15, 4096	// 13e7c <outbyte>
   12e80:	30a0000a 	addik	r5, r0, 10
   12e84:	b810ff80 	brid	-128		// 12e04
   12e88:	e8610038 	lwi	r3, r1, 56
   12e8c:	b000ffff 	imm	-1
   12e90:	b9f4f9b0 	brlid	r15, -1616	// 12840 <padding.part.0>
   12e94:	30a1001c 	addik	r5, r1, 28
   12e98:	b810fe68 	brid	-408		// 12d00
   12e9c:	e0730000 	lbui	r3, r19, 0

00012ea0 <StubHandler>:
   12ea0:	bc05001c 	beqi	r5, 28		// 12ebc
   12ea4:	e865000c 	lwi	r3, r5, 12
   12ea8:	b0000001 	imm	1
   12eac:	f8005e70 	swi	r0, r0, 24176	// 15e70 <Xil_AssertStatus>
   12eb0:	30630001 	addik	r3, r3, 1
   12eb4:	b60f0008 	rtsd	r15, 8
   12eb8:	f865000c 	swi	r3, r5, 12
   12ebc:	b0000001 	imm	1
   12ec0:	30a058b4 	addik	r5, r0, 22708
   12ec4:	3021ffe4 	addik	r1, r1, -28
   12ec8:	f9e10000 	swi	r15, r1, 0
   12ecc:	b9f40fd8 	brlid	r15, 4056	// 13ea4 <Xil_Assert>
   12ed0:	30c002bf 	addik	r6, r0, 703
   12ed4:	e9e10000 	lwi	r15, r1, 0
   12ed8:	30600001 	addik	r3, r0, 1
   12edc:	b0000001 	imm	1
   12ee0:	f8605e70 	swi	r3, r0, 24176	// 15e70 <Xil_AssertStatus>
   12ee4:	b60f0008 	rtsd	r15, 8
   12ee8:	3021001c 	addik	r1, r1, 28

00012eec <XIntc_Initialize>:
   12eec:	3021ffd4 	addik	r1, r1, -44
   12ef0:	f9e10000 	swi	r15, r1, 0
   12ef4:	fa61001c 	swi	r19, r1, 28
   12ef8:	fac10020 	swi	r22, r1, 32
   12efc:	fae10024 	swi	r23, r1, 36
   12f00:	be0501d4 	beqid	r5, 468		// 130d4
   12f04:	fb010028 	swi	r24, r1, 40
   12f08:	e8850008 	lwi	r4, r5, 8
   12f0c:	b0000001 	imm	1
   12f10:	f8005e70 	swi	r0, r0, 24176	// 15e70 <Xil_AssertStatus>
   12f14:	b0002222 	imm	8738
   12f18:	a8842222 	xori	r4, r4, 8738
   12f1c:	be04001c 	beqid	r4, 28		// 12f38
   12f20:	30600005 	addik	r3, r0, 5
   12f24:	b0000001 	imm	1
   12f28:	e460486c 	lhui	r3, r0, 18540	// 1486c <XIntc_ConfigTable>
   12f2c:	88c33000 	xor	r6, r3, r6
   12f30:	be060024 	beqid	r6, 36		// 12f54
   12f34:	30600002 	addik	r3, r0, 2
   12f38:	e9e10000 	lwi	r15, r1, 0
   12f3c:	ea61001c 	lwi	r19, r1, 28
   12f40:	eac10020 	lwi	r22, r1, 32
   12f44:	eae10024 	lwi	r23, r1, 36
   12f48:	eb010028 	lwi	r24, r1, 40
   12f4c:	b60f0008 	rtsd	r15, 8
   12f50:	3021002c 	addik	r1, r1, 44
   12f54:	b0000001 	imm	1
   12f58:	3060486c 	addik	r3, r0, 18540	// 1486c <XIntc_ConfigTable>
   12f5c:	b0000001 	imm	1
   12f60:	e9604870 	lwi	r11, r0, 18544
   12f64:	f8c50004 	swi	r6, r5, 4
   12f68:	f8c50008 	swi	r6, r5, 8
   12f6c:	f8650010 	swi	r3, r5, 16
   12f70:	30800001 	addik	r4, r0, 1
   12f74:	b0000001 	imm	1
   12f78:	f8804884 	swi	r4, r0, 18564
   12f7c:	b0000001 	imm	1
   12f80:	e9004888 	lwi	r8, r0, 18568
   12f84:	f9650000 	swi	r11, r5, 0
   12f88:	b0000001 	imm	1
   12f8c:	e9804880 	lwi	r12, r0, 18560
   12f90:	be6c0084 	bleid	r12, 132		// 13014
   12f94:	10860000 	addk	r4, r6, r0
   12f98:	b0000001 	imm	1
   12f9c:	32603efc 	addik	r19, r0, 16124	// 13efc <XNullHandler>
   12fa0:	31200001 	addik	r9, r0, 1
   12fa4:	30e60004 	addik	r7, r6, 4
   12fa8:	10673800 	addk	r3, r7, r7
   12fac:	10631800 	addk	r3, r3, r3
   12fb0:	10631800 	addk	r3, r3, r3
   12fb4:	b0000001 	imm	1
   12fb8:	3063486c 	addik	r3, r3, 18540
   12fbc:	e8630000 	lwi	r3, r3, 0
   12fc0:	10c63000 	addk	r6, r6, r6
   12fc4:	10c63000 	addk	r6, r6, r6
   12fc8:	8ac39800 	xor	r22, r3, r19
   12fcc:	17030000 	rsubk	r24, r3, r0
   12fd0:	30840001 	addik	r4, r4, 1
   12fd4:	15560000 	rsubk	r10, r22, r0
   12fd8:	8063c000 	or	r3, r3, r24
   12fdc:	12e63000 	addk	r23, r6, r6
   12fe0:	a48400ff 	andi	r4, r4, 255
   12fe4:	bea30094 	bgeid	r3, 148		// 13078
   12fe8:	814ab000 	or	r10, r10, r22
   12fec:	beaa0090 	bgeid	r10, 144		// 1307c
   12ff0:	10e73800 	addk	r7, r7, r7
   12ff4:	b0000001 	imm	1
   12ff8:	f9265df0 	swi	r9, r6, 24048
   12ffc:	b0000001 	imm	1
   13000:	f8b74890 	swi	r5, r23, 18576
   13004:	11294800 	addk	r9, r9, r9
   13008:	164c2001 	cmp	r18, r12, r4
   1300c:	be52ff98 	bltid	r18, -104		// 12fa4
   13010:	10c40000 	addk	r6, r4, r0
   13014:	b0000001 	imm	1
   13018:	e8804878 	lwi	r4, r0, 18552
   1301c:	f80b001c 	swi	r0, r11, 28
   13020:	f80b0008 	swi	r0, r11, 8
   13024:	30e0ffff 	addik	r7, r0, -1
   13028:	f8eb000c 	swi	r7, r11, 12
   1302c:	a8840001 	xori	r4, r4, 1
   13030:	bc040068 	beqi	r4, 104		// 13098
   13034:	bc080018 	beqi	r8, 24		// 1304c
   13038:	e8650010 	lwi	r3, r5, 16
   1303c:	b0000001 	imm	1
   13040:	e8805e6c 	lwi	r4, r0, 24172
   13044:	e8630004 	lwi	r3, r3, 4
   13048:	f8830008 	swi	r4, r3, 8
   1304c:	b0001111 	imm	4369
   13050:	30e01111 	addik	r7, r0, 4369
   13054:	10600000 	addk	r3, r0, r0
   13058:	f8e50004 	swi	r7, r5, 4
   1305c:	e9e10000 	lwi	r15, r1, 0
   13060:	ea61001c 	lwi	r19, r1, 28
   13064:	eac10020 	lwi	r22, r1, 32
   13068:	eae10024 	lwi	r23, r1, 36
   1306c:	eb010028 	lwi	r24, r1, 40
   13070:	b60f0008 	rtsd	r15, 8
   13074:	3021002c 	addik	r1, r1, 44
   13078:	10e73800 	addk	r7, r7, r7
   1307c:	b0000001 	imm	1
   13080:	30602ea0 	addik	r3, r0, 11936	// 12ea0 <StubHandler>
   13084:	10e73800 	addk	r7, r7, r7
   13088:	10e73800 	addk	r7, r7, r7
   1308c:	b0000001 	imm	1
   13090:	f867486c 	swi	r3, r7, 18540
   13094:	b800ff60 	bri	-160		// 12ff4
   13098:	f88b0020 	swi	r4, r11, 32
   1309c:	10640000 	addk	r3, r4, r0
   130a0:	316b0100 	addik	r11, r11, 256
   130a4:	30800020 	addik	r4, r0, 32	// 20 <_vector_hw_exception>
   130a8:	10c31800 	addk	r6, r3, r3
   130ac:	10c63000 	addk	r6, r6, r6
   130b0:	3084ffff 	addik	r4, r4, -1
   130b4:	30e00010 	addik	r7, r0, 16	// 10 <_vector_interrupt>
   130b8:	30630001 	addik	r3, r3, 1
   130bc:	d8eb3000 	sw	r7, r11, r6
   130c0:	a48400ff 	andi	r4, r4, 255
   130c4:	be24ffe4 	bneid	r4, -28		// 130a8
   130c8:	a46300ff 	andi	r3, r3, 255
   130cc:	bc28ff6c 	bnei	r8, -148		// 13038
   130d0:	b800ff7c 	bri	-132		// 1304c
   130d4:	12650000 	addk	r19, r5, r0
   130d8:	b0000001 	imm	1
   130dc:	30a058b4 	addik	r5, r0, 22708
   130e0:	b9f40dc4 	brlid	r15, 3524	// 13ea4 <Xil_Assert>
   130e4:	30c00090 	addik	r6, r0, 144
   130e8:	30600001 	addik	r3, r0, 1
   130ec:	b0000001 	imm	1
   130f0:	f8605e70 	swi	r3, r0, 24176	// 15e70 <Xil_AssertStatus>
   130f4:	b810fe44 	brid	-444		// 12f38
   130f8:	10730000 	addk	r3, r19, r0

000130fc <XIntc_Start>:
   130fc:	3021ffe0 	addik	r1, r1, -32
   13100:	f9e10000 	swi	r15, r1, 0
   13104:	be0500d0 	beqid	r5, 208		// 131d4
   13108:	fa61001c 	swi	r19, r1, 28
   1310c:	b0000001 	imm	1
   13110:	f8005e70 	swi	r0, r0, 24176	// 15e70 <Xil_AssertStatus>
   13114:	32600001 	addik	r19, r0, 1
   13118:	16469803 	cmpu	r18, r6, r19
   1311c:	bc52006c 	blti	r18, 108		// 13188
   13120:	e8650004 	lwi	r3, r5, 4
   13124:	b0001111 	imm	4369
   13128:	a8631111 	xori	r3, r3, 4369
   1312c:	bc230030 	bnei	r3, 48		// 1315c
   13130:	bc260084 	bnei	r6, 132		// 131b4
   13134:	b0002222 	imm	8738
   13138:	30802222 	addik	r4, r0, 8738
   1313c:	e8650000 	lwi	r3, r5, 0
   13140:	f8850008 	swi	r4, r5, 8
   13144:	fa63001c 	swi	r19, r3, 28
   13148:	e9e10000 	lwi	r15, r1, 0
   1314c:	ea61001c 	lwi	r19, r1, 28
   13150:	10600000 	addk	r3, r0, r0
   13154:	b60f0008 	rtsd	r15, 8
   13158:	30210020 	addik	r1, r1, 32
   1315c:	b0000001 	imm	1
   13160:	30a058b4 	addik	r5, r0, 22708
   13164:	b9f40d40 	brlid	r15, 3392	// 13ea4 <Xil_Assert>
   13168:	30c0012f 	addik	r6, r0, 303
   1316c:	b0000001 	imm	1
   13170:	fa605e70 	swi	r19, r0, 24176	// 15e70 <Xil_AssertStatus>
   13174:	e9e10000 	lwi	r15, r1, 0
   13178:	ea61001c 	lwi	r19, r1, 28
   1317c:	10600000 	addk	r3, r0, r0
   13180:	b60f0008 	rtsd	r15, 8
   13184:	30210020 	addik	r1, r1, 32
   13188:	b0000001 	imm	1
   1318c:	30a058b4 	addik	r5, r0, 22708
   13190:	b9f40d14 	brlid	r15, 3348	// 13ea4 <Xil_Assert>
   13194:	30c0012e 	addik	r6, r0, 302
   13198:	e9e10000 	lwi	r15, r1, 0
   1319c:	b0000001 	imm	1
   131a0:	fa605e70 	swi	r19, r0, 24176	// 15e70 <Xil_AssertStatus>
   131a4:	ea61001c 	lwi	r19, r1, 28
   131a8:	10600000 	addk	r3, r0, r0
   131ac:	b60f0008 	rtsd	r15, 8
   131b0:	30210020 	addik	r1, r1, 32
   131b4:	b0002222 	imm	8738
   131b8:	30802222 	addik	r4, r0, 8738
   131bc:	e8650000 	lwi	r3, r5, 0
   131c0:	32600003 	addik	r19, r0, 3
   131c4:	f8850008 	swi	r4, r5, 8
   131c8:	fa63001c 	swi	r19, r3, 28
   131cc:	b810ff80 	brid	-128		// 1314c
   131d0:	e9e10000 	lwi	r15, r1, 0
   131d4:	b0000001 	imm	1
   131d8:	30a058b4 	addik	r5, r0, 22708
   131dc:	b9f40cc8 	brlid	r15, 3272	// 13ea4 <Xil_Assert>
   131e0:	30c0012c 	addik	r6, r0, 300
   131e4:	30600001 	addik	r3, r0, 1
   131e8:	b0000001 	imm	1
   131ec:	f8605e70 	swi	r3, r0, 24176	// 15e70 <Xil_AssertStatus>
   131f0:	b810ff88 	brid	-120		// 13178
   131f4:	e9e10000 	lwi	r15, r1, 0

000131f8 <XIntc_Stop>:
   131f8:	3021ffe4 	addik	r1, r1, -28
   131fc:	be050060 	beqid	r5, 96		// 1325c
   13200:	f9e10000 	swi	r15, r1, 0
   13204:	e8650004 	lwi	r3, r5, 4
   13208:	b0000001 	imm	1
   1320c:	f8005e70 	swi	r0, r0, 24176	// 15e70 <Xil_AssertStatus>
   13210:	b0001111 	imm	4369
   13214:	a8631111 	xori	r3, r3, 4369
   13218:	bc03002c 	beqi	r3, 44		// 13244
   1321c:	b0000001 	imm	1
   13220:	30a058b4 	addik	r5, r0, 22708
   13224:	b9f40c80 	brlid	r15, 3200	// 13ea4 <Xil_Assert>
   13228:	30c00166 	addik	r6, r0, 358
   1322c:	30600001 	addik	r3, r0, 1
   13230:	b0000001 	imm	1
   13234:	f8605e70 	swi	r3, r0, 24176	// 15e70 <Xil_AssertStatus>
   13238:	e9e10000 	lwi	r15, r1, 0
   1323c:	b60f0008 	rtsd	r15, 8
   13240:	3021001c 	addik	r1, r1, 28
   13244:	e8850000 	lwi	r4, r5, 0
   13248:	f864001c 	swi	r3, r4, 28
   1324c:	f8650008 	swi	r3, r5, 8
   13250:	e9e10000 	lwi	r15, r1, 0
   13254:	b60f0008 	rtsd	r15, 8
   13258:	3021001c 	addik	r1, r1, 28
   1325c:	b0000001 	imm	1
   13260:	30a058b4 	addik	r5, r0, 22708
   13264:	b9f40c40 	brlid	r15, 3136	// 13ea4 <Xil_Assert>
   13268:	30c00165 	addik	r6, r0, 357
   1326c:	30600001 	addik	r3, r0, 1
   13270:	b0000001 	imm	1
   13274:	f8605e70 	swi	r3, r0, 24176	// 15e70 <Xil_AssertStatus>
   13278:	b810ffc4 	brid	-60		// 1323c
   1327c:	e9e10000 	lwi	r15, r1, 0

00013280 <XIntc_Connect>:
   13280:	3021ffe4 	addik	r1, r1, -28
   13284:	be05009c 	beqid	r5, 156		// 13320
   13288:	f9e10000 	swi	r15, r1, 0
   1328c:	b0000001 	imm	1
   13290:	f8005e70 	swi	r0, r0, 24176	// 15e70 <Xil_AssertStatus>
   13294:	bc260060 	bnei	r6, 96		// 132f4
   13298:	bc0700ac 	beqi	r7, 172		// 13344
   1329c:	e8650004 	lwi	r3, r5, 4
   132a0:	b0001111 	imm	4369
   132a4:	a8631111 	xori	r3, r3, 4369
   132a8:	bc230020 	bnei	r3, 32		// 132c8
   132ac:	e8650010 	lwi	r3, r5, 16
   132b0:	f8e30020 	swi	r7, r3, 32
   132b4:	f9030024 	swi	r8, r3, 36
   132b8:	e9e10000 	lwi	r15, r1, 0
   132bc:	10600000 	addk	r3, r0, r0
   132c0:	b60f0008 	rtsd	r15, 8
   132c4:	3021001c 	addik	r1, r1, 28
   132c8:	b0000001 	imm	1
   132cc:	30a058b4 	addik	r5, r0, 22708
   132d0:	b9f40bd4 	brlid	r15, 3028	// 13ea4 <Xil_Assert>
   132d4:	30c00196 	addik	r6, r0, 406
   132d8:	e9e10000 	lwi	r15, r1, 0
   132dc:	30600001 	addik	r3, r0, 1
   132e0:	b0000001 	imm	1
   132e4:	f8605e70 	swi	r3, r0, 24176	// 15e70 <Xil_AssertStatus>
   132e8:	10600000 	addk	r3, r0, r0
   132ec:	b60f0008 	rtsd	r15, 8
   132f0:	3021001c 	addik	r1, r1, 28
   132f4:	b0000001 	imm	1
   132f8:	30a058b4 	addik	r5, r0, 22708
   132fc:	b9f40ba8 	brlid	r15, 2984	// 13ea4 <Xil_Assert>
   13300:	30c00194 	addik	r6, r0, 404
   13304:	e9e10000 	lwi	r15, r1, 0
   13308:	30600001 	addik	r3, r0, 1
   1330c:	b0000001 	imm	1
   13310:	f8605e70 	swi	r3, r0, 24176	// 15e70 <Xil_AssertStatus>
   13314:	10600000 	addk	r3, r0, r0
   13318:	b60f0008 	rtsd	r15, 8
   1331c:	3021001c 	addik	r1, r1, 28
   13320:	b0000001 	imm	1
   13324:	30a058b4 	addik	r5, r0, 22708
   13328:	b9f40b7c 	brlid	r15, 2940	// 13ea4 <Xil_Assert>
   1332c:	30c00193 	addik	r6, r0, 403
   13330:	30600001 	addik	r3, r0, 1
   13334:	b0000001 	imm	1
   13338:	f8605e70 	swi	r3, r0, 24176	// 15e70 <Xil_AssertStatus>
   1333c:	b810ff80 	brid	-128		// 132bc
   13340:	e9e10000 	lwi	r15, r1, 0
   13344:	b0000001 	imm	1
   13348:	30a058b4 	addik	r5, r0, 22708
   1334c:	b9f40b58 	brlid	r15, 2904	// 13ea4 <Xil_Assert>
   13350:	30c00195 	addik	r6, r0, 405
   13354:	30600001 	addik	r3, r0, 1
   13358:	b0000001 	imm	1
   1335c:	f8605e70 	swi	r3, r0, 24176	// 15e70 <Xil_AssertStatus>
   13360:	b810ff5c 	brid	-164		// 132bc
   13364:	e9e10000 	lwi	r15, r1, 0

00013368 <XIntc_Disconnect>:
   13368:	3021ffe4 	addik	r1, r1, -28
   1336c:	be0500b0 	beqid	r5, 176		// 1341c
   13370:	f9e10000 	swi	r15, r1, 0
   13374:	b0000001 	imm	1
   13378:	f8005e70 	swi	r0, r0, 24176	// 15e70 <Xil_AssertStatus>
   1337c:	bc260078 	bnei	r6, 120		// 133f4
   13380:	e8650004 	lwi	r3, r5, 4
   13384:	b0001111 	imm	4369
   13388:	a8631111 	xori	r3, r3, 4369
   1338c:	bc230040 	bnei	r3, 64		// 133cc
   13390:	e8c50000 	lwi	r6, r5, 0
   13394:	b0000001 	imm	1
   13398:	e8605df0 	lwi	r3, r0, 24048	// 15df0 <XIntc_BitPosMask>
   1339c:	e8850010 	lwi	r4, r5, 16
   133a0:	e8e60008 	lwi	r7, r6, 8
   133a4:	a863ffff 	xori	r3, r3, -1
   133a8:	84633800 	and	r3, r3, r7
   133ac:	f8660008 	swi	r3, r6, 8
   133b0:	b0000001 	imm	1
   133b4:	30602ea0 	addik	r3, r0, 11936	// 12ea0 <StubHandler>
   133b8:	f8a40024 	swi	r5, r4, 36
   133bc:	f8640020 	swi	r3, r4, 32
   133c0:	e9e10000 	lwi	r15, r1, 0
   133c4:	b60f0008 	rtsd	r15, 8
   133c8:	3021001c 	addik	r1, r1, 28
   133cc:	b0000001 	imm	1
   133d0:	30a058b4 	addik	r5, r0, 22708
   133d4:	b9f40ad0 	brlid	r15, 2768	// 13ea4 <Xil_Assert>
   133d8:	30c001cc 	addik	r6, r0, 460
   133dc:	e9e10000 	lwi	r15, r1, 0
   133e0:	30600001 	addik	r3, r0, 1
   133e4:	b0000001 	imm	1
   133e8:	f8605e70 	swi	r3, r0, 24176	// 15e70 <Xil_AssertStatus>
   133ec:	b60f0008 	rtsd	r15, 8
   133f0:	3021001c 	addik	r1, r1, 28
   133f4:	b0000001 	imm	1
   133f8:	30a058b4 	addik	r5, r0, 22708
   133fc:	b9f40aa8 	brlid	r15, 2728	// 13ea4 <Xil_Assert>
   13400:	30c001cb 	addik	r6, r0, 459
   13404:	e9e10000 	lwi	r15, r1, 0
   13408:	30600001 	addik	r3, r0, 1
   1340c:	b0000001 	imm	1
   13410:	f8605e70 	swi	r3, r0, 24176	// 15e70 <Xil_AssertStatus>
   13414:	b60f0008 	rtsd	r15, 8
   13418:	3021001c 	addik	r1, r1, 28
   1341c:	b0000001 	imm	1
   13420:	30a058b4 	addik	r5, r0, 22708
   13424:	b9f40a80 	brlid	r15, 2688	// 13ea4 <Xil_Assert>
   13428:	30c001ca 	addik	r6, r0, 458
   1342c:	30600001 	addik	r3, r0, 1
   13430:	b0000001 	imm	1
   13434:	f8605e70 	swi	r3, r0, 24176	// 15e70 <Xil_AssertStatus>
   13438:	b810ff8c 	brid	-116		// 133c4
   1343c:	e9e10000 	lwi	r15, r1, 0

00013440 <XIntc_Enable>:
   13440:	3021ffe4 	addik	r1, r1, -28
   13444:	be050098 	beqid	r5, 152		// 134dc
   13448:	f9e10000 	swi	r15, r1, 0
   1344c:	b0000001 	imm	1
   13450:	f8005e70 	swi	r0, r0, 24176	// 15e70 <Xil_AssertStatus>
   13454:	bc260060 	bnei	r6, 96		// 134b4
   13458:	e8650004 	lwi	r3, r5, 4
   1345c:	b0001111 	imm	4369
   13460:	a8631111 	xori	r3, r3, 4369
   13464:	bc230028 	bnei	r3, 40		// 1348c
   13468:	e8850000 	lwi	r4, r5, 0
   1346c:	b0000001 	imm	1
   13470:	e8a05df0 	lwi	r5, r0, 24048	// 15df0 <XIntc_BitPosMask>
   13474:	e8640008 	lwi	r3, r4, 8
   13478:	80632800 	or	r3, r3, r5
   1347c:	f8640008 	swi	r3, r4, 8
   13480:	e9e10000 	lwi	r15, r1, 0
   13484:	b60f0008 	rtsd	r15, 8
   13488:	3021001c 	addik	r1, r1, 28
   1348c:	b0000001 	imm	1
   13490:	30a058b4 	addik	r5, r0, 22708
   13494:	b9f40a10 	brlid	r15, 2576	// 13ea4 <Xil_Assert>
   13498:	30c00217 	addik	r6, r0, 535
   1349c:	e9e10000 	lwi	r15, r1, 0
   134a0:	30600001 	addik	r3, r0, 1
   134a4:	b0000001 	imm	1
   134a8:	f8605e70 	swi	r3, r0, 24176	// 15e70 <Xil_AssertStatus>
   134ac:	b60f0008 	rtsd	r15, 8
   134b0:	3021001c 	addik	r1, r1, 28
   134b4:	b0000001 	imm	1
   134b8:	30a058b4 	addik	r5, r0, 22708
   134bc:	b9f409e8 	brlid	r15, 2536	// 13ea4 <Xil_Assert>
   134c0:	30c00216 	addik	r6, r0, 534
   134c4:	e9e10000 	lwi	r15, r1, 0
   134c8:	30600001 	addik	r3, r0, 1
   134cc:	b0000001 	imm	1
   134d0:	f8605e70 	swi	r3, r0, 24176	// 15e70 <Xil_AssertStatus>
   134d4:	b60f0008 	rtsd	r15, 8
   134d8:	3021001c 	addik	r1, r1, 28
   134dc:	b0000001 	imm	1
   134e0:	30a058b4 	addik	r5, r0, 22708
   134e4:	b9f409c0 	brlid	r15, 2496	// 13ea4 <Xil_Assert>
   134e8:	30c00215 	addik	r6, r0, 533
   134ec:	30600001 	addik	r3, r0, 1
   134f0:	b0000001 	imm	1
   134f4:	f8605e70 	swi	r3, r0, 24176	// 15e70 <Xil_AssertStatus>
   134f8:	b810ff8c 	brid	-116		// 13484
   134fc:	e9e10000 	lwi	r15, r1, 0

00013500 <XIntc_Disable>:
   13500:	3021ffe4 	addik	r1, r1, -28
   13504:	be05009c 	beqid	r5, 156		// 135a0
   13508:	f9e10000 	swi	r15, r1, 0
   1350c:	b0000001 	imm	1
   13510:	f8005e70 	swi	r0, r0, 24176	// 15e70 <Xil_AssertStatus>
   13514:	bc260064 	bnei	r6, 100		// 13578
   13518:	e8650004 	lwi	r3, r5, 4
   1351c:	b0001111 	imm	4369
   13520:	a8631111 	xori	r3, r3, 4369
   13524:	bc23002c 	bnei	r3, 44		// 13550
   13528:	e8850000 	lwi	r4, r5, 0
   1352c:	b0000001 	imm	1
   13530:	e8605df0 	lwi	r3, r0, 24048	// 15df0 <XIntc_BitPosMask>
   13534:	e8a40008 	lwi	r5, r4, 8
   13538:	a863ffff 	xori	r3, r3, -1
   1353c:	84632800 	and	r3, r3, r5
   13540:	f8640008 	swi	r3, r4, 8
   13544:	e9e10000 	lwi	r15, r1, 0
   13548:	b60f0008 	rtsd	r15, 8
   1354c:	3021001c 	addik	r1, r1, 28
   13550:	b0000001 	imm	1
   13554:	30a058b4 	addik	r5, r0, 22708
   13558:	b9f4094c 	brlid	r15, 2380	// 13ea4 <Xil_Assert>
   1355c:	30c00257 	addik	r6, r0, 599
   13560:	e9e10000 	lwi	r15, r1, 0
   13564:	30600001 	addik	r3, r0, 1
   13568:	b0000001 	imm	1
   1356c:	f8605e70 	swi	r3, r0, 24176	// 15e70 <Xil_AssertStatus>
   13570:	b60f0008 	rtsd	r15, 8
   13574:	3021001c 	addik	r1, r1, 28
   13578:	b0000001 	imm	1
   1357c:	30a058b4 	addik	r5, r0, 22708
   13580:	b9f40924 	brlid	r15, 2340	// 13ea4 <Xil_Assert>
   13584:	30c00256 	addik	r6, r0, 598
   13588:	e9e10000 	lwi	r15, r1, 0
   1358c:	30600001 	addik	r3, r0, 1
   13590:	b0000001 	imm	1
   13594:	f8605e70 	swi	r3, r0, 24176	// 15e70 <Xil_AssertStatus>
   13598:	b60f0008 	rtsd	r15, 8
   1359c:	3021001c 	addik	r1, r1, 28
   135a0:	b0000001 	imm	1
   135a4:	30a058b4 	addik	r5, r0, 22708
   135a8:	b9f408fc 	brlid	r15, 2300	// 13ea4 <Xil_Assert>
   135ac:	30c00255 	addik	r6, r0, 597
   135b0:	30600001 	addik	r3, r0, 1
   135b4:	b0000001 	imm	1
   135b8:	f8605e70 	swi	r3, r0, 24176	// 15e70 <Xil_AssertStatus>
   135bc:	b810ff8c 	brid	-116		// 13548
   135c0:	e9e10000 	lwi	r15, r1, 0

000135c4 <XIntc_Acknowledge>:
   135c4:	3021ffe4 	addik	r1, r1, -28
   135c8:	be050090 	beqid	r5, 144		// 13658
   135cc:	f9e10000 	swi	r15, r1, 0
   135d0:	b0000001 	imm	1
   135d4:	f8005e70 	swi	r0, r0, 24176	// 15e70 <Xil_AssertStatus>
   135d8:	bc260058 	bnei	r6, 88		// 13630
   135dc:	e8650004 	lwi	r3, r5, 4
   135e0:	b0001111 	imm	4369
   135e4:	a8631111 	xori	r3, r3, 4369
   135e8:	bc230020 	bnei	r3, 32		// 13608
   135ec:	e8650000 	lwi	r3, r5, 0
   135f0:	b0000001 	imm	1
   135f4:	e8805df0 	lwi	r4, r0, 24048	// 15df0 <XIntc_BitPosMask>
   135f8:	f883000c 	swi	r4, r3, 12
   135fc:	e9e10000 	lwi	r15, r1, 0
   13600:	b60f0008 	rtsd	r15, 8
   13604:	3021001c 	addik	r1, r1, 28
   13608:	b0000001 	imm	1
   1360c:	30a058b4 	addik	r5, r0, 22708
   13610:	b9f40894 	brlid	r15, 2196	// 13ea4 <Xil_Assert>
   13614:	30c00293 	addik	r6, r0, 659
   13618:	e9e10000 	lwi	r15, r1, 0
   1361c:	30600001 	addik	r3, r0, 1
   13620:	b0000001 	imm	1
   13624:	f8605e70 	swi	r3, r0, 24176	// 15e70 <Xil_AssertStatus>
   13628:	b60f0008 	rtsd	r15, 8
   1362c:	3021001c 	addik	r1, r1, 28
   13630:	b0000001 	imm	1
   13634:	30a058b4 	addik	r5, r0, 22708
   13638:	b9f4086c 	brlid	r15, 2156	// 13ea4 <Xil_Assert>
   1363c:	30c00292 	addik	r6, r0, 658
   13640:	e9e10000 	lwi	r15, r1, 0
   13644:	30800001 	addik	r4, r0, 1
   13648:	b0000001 	imm	1
   1364c:	f8805e70 	swi	r4, r0, 24176	// 15e70 <Xil_AssertStatus>
   13650:	b60f0008 	rtsd	r15, 8
   13654:	3021001c 	addik	r1, r1, 28
   13658:	b0000001 	imm	1
   1365c:	30a058b4 	addik	r5, r0, 22708
   13660:	b9f40844 	brlid	r15, 2116	// 13ea4 <Xil_Assert>
   13664:	30c00291 	addik	r6, r0, 657
   13668:	30600001 	addik	r3, r0, 1
   1366c:	b0000001 	imm	1
   13670:	f8605e70 	swi	r3, r0, 24176	// 15e70 <Xil_AssertStatus>
   13674:	b810ff8c 	brid	-116		// 13600
   13678:	e9e10000 	lwi	r15, r1, 0

0001367c <XIntc_LookupConfig>:
   1367c:	b0000001 	imm	1
   13680:	e480486c 	lhui	r4, r0, 18540	// 1486c <XIntc_ConfigTable>
   13684:	88a42800 	xor	r5, r4, r5
   13688:	be250010 	bneid	r5, 16		// 13698
   1368c:	10600000 	addk	r3, r0, r0
   13690:	b0000001 	imm	1
   13694:	3060486c 	addik	r3, r0, 18540	// 1486c <XIntc_ConfigTable>
   13698:	b60f0008 	rtsd	r15, 8
   1369c:	80000000 	or	r0, r0, r0

000136a0 <XIntc_ConnectFastHandler>:
   136a0:	3021ffd4 	addik	r1, r1, -44
   136a4:	f9e10000 	swi	r15, r1, 0
   136a8:	fa610020 	swi	r19, r1, 32
   136ac:	fac10024 	swi	r22, r1, 36
   136b0:	be050168 	beqid	r5, 360		// 13818
   136b4:	fae10028 	swi	r23, r1, 40
   136b8:	b0000001 	imm	1
   136bc:	f8005e70 	swi	r0, r0, 24176	// 15e70 <Xil_AssertStatus>
   136c0:	bc2600e8 	bnei	r6, 232		// 137a8
   136c4:	bc070178 	beqi	r7, 376		// 1383c
   136c8:	e8650004 	lwi	r3, r5, 4
   136cc:	b0001111 	imm	4369
   136d0:	a8631111 	xori	r3, r3, 4369
   136d4:	be23005c 	bneid	r3, 92		// 13730
   136d8:	12650000 	addk	r19, r5, r0
   136dc:	e8650010 	lwi	r3, r5, 16
   136e0:	eac3000c 	lwi	r22, r3, 12
   136e4:	aad60001 	xori	r22, r22, 1
   136e8:	bc3600f8 	bnei	r22, 248		// 137e0
   136ec:	e8650000 	lwi	r3, r5, 0
   136f0:	b0000001 	imm	1
   136f4:	eae05df0 	lwi	r23, r0, 24048	// 15df0 <XIntc_BitPosMask>
   136f8:	e8830008 	lwi	r4, r3, 8
   136fc:	84972000 	and	r4, r23, r4
   13700:	bc240068 	bnei	r4, 104		// 13768
   13704:	f8e30100 	swi	r7, r3, 256
   13708:	e8830020 	lwi	r4, r3, 32
   1370c:	82f72000 	or	r23, r23, r4
   13710:	fae30020 	swi	r23, r3, 32
   13714:	e9e10000 	lwi	r15, r1, 0
   13718:	ea610020 	lwi	r19, r1, 32
   1371c:	eac10024 	lwi	r22, r1, 36
   13720:	eae10028 	lwi	r23, r1, 40
   13724:	10600000 	addk	r3, r0, r0
   13728:	b60f0008 	rtsd	r15, 8
   1372c:	3021002c 	addik	r1, r1, 44
   13730:	b0000001 	imm	1
   13734:	30a058b4 	addik	r5, r0, 22708
   13738:	b9f4076c 	brlid	r15, 1900	// 13ea4 <Xil_Assert>
   1373c:	30c0030d 	addik	r6, r0, 781
   13740:	30600001 	addik	r3, r0, 1
   13744:	b0000001 	imm	1
   13748:	f8605e70 	swi	r3, r0, 24176	// 15e70 <Xil_AssertStatus>
   1374c:	e9e10000 	lwi	r15, r1, 0
   13750:	ea610020 	lwi	r19, r1, 32
   13754:	eac10024 	lwi	r22, r1, 36
   13758:	eae10028 	lwi	r23, r1, 40
   1375c:	10600000 	addk	r3, r0, r0
   13760:	b60f0008 	rtsd	r15, 8
   13764:	3021002c 	addik	r1, r1, 44
   13768:	b000ffff 	imm	-1
   1376c:	b9f4fd94 	brlid	r15, -620	// 13500 <XIntc_Disable>
   13770:	f8e1001c 	swi	r7, r1, 28
   13774:	e8730000 	lwi	r3, r19, 0
   13778:	e8e1001c 	lwi	r7, r1, 28
   1377c:	10d60000 	addk	r6, r22, r0
   13780:	10b30000 	addk	r5, r19, r0
   13784:	f8e30100 	swi	r7, r3, 256
   13788:	e8830020 	lwi	r4, r3, 32
   1378c:	82f72000 	or	r23, r23, r4
   13790:	fae30020 	swi	r23, r3, 32
   13794:	b000ffff 	imm	-1
   13798:	b9f4fca8 	brlid	r15, -856	// 13440 <XIntc_Enable>
   1379c:	80000000 	or	r0, r0, r0
   137a0:	b810ffb0 	brid	-80		// 13750
   137a4:	e9e10000 	lwi	r15, r1, 0
   137a8:	b0000001 	imm	1
   137ac:	30a058b4 	addik	r5, r0, 22708
   137b0:	b9f406f4 	brlid	r15, 1780	// 13ea4 <Xil_Assert>
   137b4:	30c0030b 	addik	r6, r0, 779
   137b8:	e9e10000 	lwi	r15, r1, 0
   137bc:	ea610020 	lwi	r19, r1, 32
   137c0:	eac10024 	lwi	r22, r1, 36
   137c4:	eae10028 	lwi	r23, r1, 40
   137c8:	30600001 	addik	r3, r0, 1
   137cc:	b0000001 	imm	1
   137d0:	f8605e70 	swi	r3, r0, 24176	// 15e70 <Xil_AssertStatus>
   137d4:	10600000 	addk	r3, r0, r0
   137d8:	b60f0008 	rtsd	r15, 8
   137dc:	3021002c 	addik	r1, r1, 44
   137e0:	b0000001 	imm	1
   137e4:	30a058b4 	addik	r5, r0, 22708
   137e8:	b9f406bc 	brlid	r15, 1724	// 13ea4 <Xil_Assert>
   137ec:	30c0030e 	addik	r6, r0, 782
   137f0:	e9e10000 	lwi	r15, r1, 0
   137f4:	ea610020 	lwi	r19, r1, 32
   137f8:	eac10024 	lwi	r22, r1, 36
   137fc:	eae10028 	lwi	r23, r1, 40
   13800:	30600001 	addik	r3, r0, 1
   13804:	b0000001 	imm	1
   13808:	f8605e70 	swi	r3, r0, 24176	// 15e70 <Xil_AssertStatus>
   1380c:	10600000 	addk	r3, r0, r0
   13810:	b60f0008 	rtsd	r15, 8
   13814:	3021002c 	addik	r1, r1, 44
   13818:	b0000001 	imm	1
   1381c:	30a058b4 	addik	r5, r0, 22708
   13820:	b9f40684 	brlid	r15, 1668	// 13ea4 <Xil_Assert>
   13824:	30c0030a 	addik	r6, r0, 778
   13828:	30600001 	addik	r3, r0, 1
   1382c:	b0000001 	imm	1
   13830:	f8605e70 	swi	r3, r0, 24176	// 15e70 <Xil_AssertStatus>
   13834:	b810ff1c 	brid	-228		// 13750
   13838:	e9e10000 	lwi	r15, r1, 0
   1383c:	b0000001 	imm	1
   13840:	30a058b4 	addik	r5, r0, 22708
   13844:	b9f40660 	brlid	r15, 1632	// 13ea4 <Xil_Assert>
   13848:	30c0030c 	addik	r6, r0, 780
   1384c:	30600001 	addik	r3, r0, 1
   13850:	b0000001 	imm	1
   13854:	f8605e70 	swi	r3, r0, 24176	// 15e70 <Xil_AssertStatus>
   13858:	b810fef8 	brid	-264		// 13750
   1385c:	e9e10000 	lwi	r15, r1, 0

00013860 <XIntc_SetNormalIntrMode>:
   13860:	3021ffd4 	addik	r1, r1, -44
   13864:	f9e10000 	swi	r15, r1, 0
   13868:	fa61001c 	swi	r19, r1, 28
   1386c:	fac10020 	swi	r22, r1, 32
   13870:	fae10024 	swi	r23, r1, 36
   13874:	be050168 	beqid	r5, 360		// 139dc
   13878:	fb010028 	swi	r24, r1, 40
   1387c:	b0000001 	imm	1
   13880:	f8005e70 	swi	r0, r0, 24176	// 15e70 <Xil_AssertStatus>
   13884:	be2600e8 	bneid	r6, 232		// 1396c
   13888:	12660000 	addk	r19, r6, r0
   1388c:	e8650004 	lwi	r3, r5, 4
   13890:	b0001111 	imm	4369
   13894:	a8631111 	xori	r3, r3, 4369
   13898:	be230088 	bneid	r3, 136		// 13920
   1389c:	12c50000 	addk	r22, r5, r0
   138a0:	e8650010 	lwi	r3, r5, 16
   138a4:	e863000c 	lwi	r3, r3, 12
   138a8:	a8630001 	xori	r3, r3, 1
   138ac:	bc2300f8 	bnei	r3, 248		// 139a4
   138b0:	e8650000 	lwi	r3, r5, 0
   138b4:	b0000001 	imm	1
   138b8:	eae05df0 	lwi	r23, r0, 24048	// 15df0 <XIntc_BitPosMask>
   138bc:	eb030008 	lwi	r24, r3, 8
   138c0:	8717c000 	and	r24, r23, r24
   138c4:	bc380094 	bnei	r24, 148		// 13958
   138c8:	e8830020 	lwi	r4, r3, 32
   138cc:	aaf7ffff 	xori	r23, r23, -1
   138d0:	30a30100 	addik	r5, r3, 256
   138d4:	86f72000 	and	r23, r23, r4
   138d8:	fae30020 	swi	r23, r3, 32
   138dc:	30600020 	addik	r3, r0, 32	// 20 <_vector_hw_exception>
   138e0:	10939800 	addk	r4, r19, r19
   138e4:	10842000 	addk	r4, r4, r4
   138e8:	3063ffff 	addik	r3, r3, -1
   138ec:	30c00010 	addik	r6, r0, 16	// 10 <_vector_interrupt>
   138f0:	32730001 	addik	r19, r19, 1
   138f4:	d8c52000 	sw	r6, r5, r4
   138f8:	a46300ff 	andi	r3, r3, 255
   138fc:	be23ffe4 	bneid	r3, -28		// 138e0
   13900:	a67300ff 	andi	r19, r19, 255
   13904:	be180038 	beqid	r24, 56		// 1393c
   13908:	10b60000 	addk	r5, r22, r0
   1390c:	b000ffff 	imm	-1
   13910:	b9f4fb30 	brlid	r15, -1232	// 13440 <XIntc_Enable>
   13914:	30c00020 	addik	r6, r0, 32	// 20 <_vector_hw_exception>
   13918:	b8100028 	brid	40		// 13940
   1391c:	e9e10000 	lwi	r15, r1, 0
   13920:	b0000001 	imm	1
   13924:	30a058b4 	addik	r5, r0, 22708
   13928:	b9f4057c 	brlid	r15, 1404	// 13ea4 <Xil_Assert>
   1392c:	30c0037a 	addik	r6, r0, 890
   13930:	30600001 	addik	r3, r0, 1
   13934:	b0000001 	imm	1
   13938:	f8605e70 	swi	r3, r0, 24176	// 15e70 <Xil_AssertStatus>
   1393c:	e9e10000 	lwi	r15, r1, 0
   13940:	ea61001c 	lwi	r19, r1, 28
   13944:	eac10020 	lwi	r22, r1, 32
   13948:	eae10024 	lwi	r23, r1, 36
   1394c:	eb010028 	lwi	r24, r1, 40
   13950:	b60f0008 	rtsd	r15, 8
   13954:	3021002c 	addik	r1, r1, 44
   13958:	b000ffff 	imm	-1
   1395c:	b9f4fba4 	brlid	r15, -1116	// 13500 <XIntc_Disable>
   13960:	80000000 	or	r0, r0, r0
   13964:	b810ff64 	brid	-156		// 138c8
   13968:	e8760000 	lwi	r3, r22, 0
   1396c:	b0000001 	imm	1
   13970:	30a058b4 	addik	r5, r0, 22708
   13974:	b9f40530 	brlid	r15, 1328	// 13ea4 <Xil_Assert>
   13978:	30c00379 	addik	r6, r0, 889
   1397c:	e9e10000 	lwi	r15, r1, 0
   13980:	ea61001c 	lwi	r19, r1, 28
   13984:	eac10020 	lwi	r22, r1, 32
   13988:	eae10024 	lwi	r23, r1, 36
   1398c:	eb010028 	lwi	r24, r1, 40
   13990:	30c00001 	addik	r6, r0, 1
   13994:	b0000001 	imm	1
   13998:	f8c05e70 	swi	r6, r0, 24176	// 15e70 <Xil_AssertStatus>
   1399c:	b60f0008 	rtsd	r15, 8
   139a0:	3021002c 	addik	r1, r1, 44
   139a4:	b0000001 	imm	1
   139a8:	30a058b4 	addik	r5, r0, 22708
   139ac:	b9f404f8 	brlid	r15, 1272	// 13ea4 <Xil_Assert>
   139b0:	30c0037b 	addik	r6, r0, 891
   139b4:	e9e10000 	lwi	r15, r1, 0
   139b8:	ea61001c 	lwi	r19, r1, 28
   139bc:	eac10020 	lwi	r22, r1, 32
   139c0:	eae10024 	lwi	r23, r1, 36
   139c4:	eb010028 	lwi	r24, r1, 40
   139c8:	30c00001 	addik	r6, r0, 1
   139cc:	b0000001 	imm	1
   139d0:	f8c05e70 	swi	r6, r0, 24176	// 15e70 <Xil_AssertStatus>
   139d4:	b60f0008 	rtsd	r15, 8
   139d8:	3021002c 	addik	r1, r1, 44
   139dc:	b0000001 	imm	1
   139e0:	30a058b4 	addik	r5, r0, 22708
   139e4:	b9f404c0 	brlid	r15, 1216	// 13ea4 <Xil_Assert>
   139e8:	30c00378 	addik	r6, r0, 888
   139ec:	30600001 	addik	r3, r0, 1
   139f0:	b0000001 	imm	1
   139f4:	f8605e70 	swi	r3, r0, 24176	// 15e70 <Xil_AssertStatus>
   139f8:	b810ff48 	brid	-184		// 13940
   139fc:	e9e10000 	lwi	r15, r1, 0

00013a00 <XIntc_VoidInterruptHandler>:
   13a00:	3021ffe4 	addik	r1, r1, -28
   13a04:	f9e10000 	swi	r15, r1, 0
   13a08:	b9f40068 	brlid	r15, 104	// 13a70 <XIntc_DeviceInterruptHandler>
   13a0c:	10a00000 	addk	r5, r0, r0
   13a10:	e9e10000 	lwi	r15, r1, 0
   13a14:	b60f0008 	rtsd	r15, 8
   13a18:	3021001c 	addik	r1, r1, 28

00013a1c <XIntc_InterruptHandler>:
   13a1c:	3021ffe4 	addik	r1, r1, -28
   13a20:	be050028 	beqid	r5, 40		// 13a48
   13a24:	f9e10000 	swi	r15, r1, 0
   13a28:	e8650010 	lwi	r3, r5, 16
   13a2c:	b0000001 	imm	1
   13a30:	f8005e70 	swi	r0, r0, 24176	// 15e70 <Xil_AssertStatus>
   13a34:	b9f4003c 	brlid	r15, 60	// 13a70 <XIntc_DeviceInterruptHandler>
   13a38:	e4a30000 	lhui	r5, r3, 0
   13a3c:	e9e10000 	lwi	r15, r1, 0
   13a40:	b60f0008 	rtsd	r15, 8
   13a44:	3021001c 	addik	r1, r1, 28
   13a48:	b0000001 	imm	1
   13a4c:	30a058bc 	addik	r5, r0, 22716
   13a50:	b9f40454 	brlid	r15, 1108	// 13ea4 <Xil_Assert>
   13a54:	30c000a8 	addik	r6, r0, 168
   13a58:	e9e10000 	lwi	r15, r1, 0
   13a5c:	30600001 	addik	r3, r0, 1
   13a60:	b0000001 	imm	1
   13a64:	f8605e70 	swi	r3, r0, 24176	// 15e70 <Xil_AssertStatus>
   13a68:	b60f0008 	rtsd	r15, 8
   13a6c:	3021001c 	addik	r1, r1, 28

00013a70 <XIntc_DeviceInterruptHandler>:
   13a70:	10652800 	addk	r3, r5, r5
   13a74:	10631800 	addk	r3, r3, r3
   13a78:	3021ffc4 	addik	r1, r1, -60
   13a7c:	10651800 	addk	r3, r5, r3
   13a80:	f9e10000 	swi	r15, r1, 0
   13a84:	fa61001c 	swi	r19, r1, 28
   13a88:	fac10020 	swi	r22, r1, 32
   13a8c:	fae10024 	swi	r23, r1, 36
   13a90:	fb010028 	swi	r24, r1, 40
   13a94:	fb21002c 	swi	r25, r1, 44
   13a98:	fb410030 	swi	r26, r1, 48
   13a9c:	fb610034 	swi	r27, r1, 52
   13aa0:	fb810038 	swi	r28, r1, 56
   13aa4:	10801800 	addk	r4, r0, r3
   13aa8:	10831800 	addk	r4, r3, r3
   13aac:	10842000 	addk	r4, r4, r4
   13ab0:	10842000 	addk	r4, r4, r4
   13ab4:	b0000001 	imm	1
   13ab8:	3064486c 	addik	r3, r4, 18540
   13abc:	e8830004 	lwi	r4, r3, 4
   13ac0:	e863000c 	lwi	r3, r3, 12
   13ac4:	e8c40000 	lwi	r6, r4, 0
   13ac8:	eac40008 	lwi	r22, r4, 8
   13acc:	a8630001 	xori	r3, r3, 1
   13ad0:	be030124 	beqid	r3, 292		// 13bf4
   13ad4:	86d63000 	and	r22, r22, r6
   13ad8:	13052800 	addk	r24, r5, r5
   13adc:	1318c000 	addk	r24, r24, r24
   13ae0:	1305c000 	addk	r24, r5, r24
   13ae4:	1320c000 	addk	r25, r0, r24
   13ae8:	1338c000 	addk	r25, r24, r24
   13aec:	1339c800 	addk	r25, r25, r25
   13af0:	1339c800 	addk	r25, r25, r25
   13af4:	b0000001 	imm	1
   13af8:	3339486c 	addik	r25, r25, 18540
   13afc:	e8790014 	lwi	r3, r25, 20
   13b00:	12e00000 	addk	r23, r0, r0
   13b04:	be6300c4 	bleid	r3, 196		// 13bc8
   13b08:	32600001 	addik	r19, r0, 1
   13b0c:	33590008 	addik	r26, r25, 8
   13b10:	33790004 	addik	r27, r25, 4
   13b14:	33990018 	addik	r28, r25, 24
   13b18:	b8100018 	brid	24		// 13b30
   13b1c:	33390014 	addik	r25, r25, 20
   13b20:	e8790000 	lwi	r3, r25, 0
   13b24:	1643b801 	cmp	r18, r3, r23
   13b28:	beb200a4 	bgeid	r18, 164		// 13bcc
   13b2c:	e9e10000 	lwi	r15, r1, 0
   13b30:	1078b800 	addk	r3, r24, r23
   13b34:	30830004 	addik	r4, r3, 4
   13b38:	10842000 	addk	r4, r4, r4
   13b3c:	10631800 	addk	r3, r3, r3
   13b40:	10631800 	addk	r3, r3, r3
   13b44:	10842000 	addk	r4, r4, r4
   13b48:	10631800 	addk	r3, r3, r3
   13b4c:	10842000 	addk	r4, r4, r4
   13b50:	a4b60001 	andi	r5, r22, 1
   13b54:	b0000001 	imm	1
   13b58:	3063486c 	addik	r3, r3, 18540
   13b5c:	b0000001 	imm	1
   13b60:	3084486c 	addik	r4, r4, 18540
   13b64:	92d60041 	srl	r22, r22
   13b68:	be050058 	beqid	r5, 88		// 13bc0
   13b6c:	32f70001 	addik	r23, r23, 1
   13b70:	e8ba0000 	lwi	r5, r26, 0
   13b74:	84b32800 	and	r5, r19, r5
   13b78:	bc05000c 	beqi	r5, 12		// 13b84
   13b7c:	e8bb0000 	lwi	r5, r27, 0
   13b80:	fa65000c 	swi	r19, r5, 12
   13b84:	e8840000 	lwi	r4, r4, 0
   13b88:	99fc2000 	brald	r15, r4
   13b8c:	e8a30024 	lwi	r5, r3, 36
   13b90:	e87a0000 	lwi	r3, r26, 0
   13b94:	84731800 	and	r3, r19, r3
   13b98:	bc23000c 	bnei	r3, 12		// 13ba4
   13b9c:	e87b0000 	lwi	r3, r27, 0
   13ba0:	fa63000c 	swi	r19, r3, 12
   13ba4:	e89b0000 	lwi	r4, r27, 0
   13ba8:	e87c0000 	lwi	r3, r28, 0
   13bac:	e8a40000 	lwi	r5, r4, 0
   13bb0:	e8840008 	lwi	r4, r4, 8
   13bb4:	a8630001 	xori	r3, r3, 1
   13bb8:	be030014 	beqid	r3, 20		// 13bcc
   13bbc:	e9e10000 	lwi	r15, r1, 0
   13bc0:	be36ff60 	bneid	r22, -160		// 13b20
   13bc4:	12739800 	addk	r19, r19, r19
   13bc8:	e9e10000 	lwi	r15, r1, 0
   13bcc:	ea61001c 	lwi	r19, r1, 28
   13bd0:	eac10020 	lwi	r22, r1, 32
   13bd4:	eae10024 	lwi	r23, r1, 36
   13bd8:	eb010028 	lwi	r24, r1, 40
   13bdc:	eb21002c 	lwi	r25, r1, 44
   13be0:	eb410030 	lwi	r26, r1, 48
   13be4:	eb610034 	lwi	r27, r1, 52
   13be8:	eb810038 	lwi	r28, r1, 56
   13bec:	b60f0008 	rtsd	r15, 8
   13bf0:	3021003c 	addik	r1, r1, 60
   13bf4:	e8640020 	lwi	r3, r4, 32
   13bf8:	a863ffff 	xori	r3, r3, -1
   13bfc:	b810fedc 	brid	-292		// 13ad8
   13c00:	86d61800 	and	r22, r22, r3

00013c04 <XIntc_LowLevelInterruptHandler>:
   13c04:	3021ffe4 	addik	r1, r1, -28
   13c08:	f9e10000 	swi	r15, r1, 0
   13c0c:	b000ffff 	imm	-1
   13c10:	b9f4fe60 	brlid	r15, -416	// 13a70 <XIntc_DeviceInterruptHandler>
   13c14:	10a00000 	addk	r5, r0, r0
   13c18:	e9e10000 	lwi	r15, r1, 0
   13c1c:	b60f0008 	rtsd	r15, 8
   13c20:	3021001c 	addik	r1, r1, 28

00013c24 <XIntc_SetIntrSvcOption>:
   13c24:	b0000001 	imm	1
   13c28:	e8604870 	lwi	r3, r0, 18544
   13c2c:	88a51800 	xor	r5, r5, r3
   13c30:	bc05000c 	beqi	r5, 12		// 13c3c
   13c34:	b60f0008 	rtsd	r15, 8
   13c38:	80000000 	or	r0, r0, r0
   13c3c:	b0000001 	imm	1
   13c40:	f8c04884 	swi	r6, r0, 18564
   13c44:	b60f0008 	rtsd	r15, 8
   13c48:	80000000 	or	r0, r0, r0

00013c4c <XIntc_RegisterHandler>:
   13c4c:	b0000001 	imm	1
   13c50:	e8604870 	lwi	r3, r0, 18544
   13c54:	88a51800 	xor	r5, r5, r3
   13c58:	bc05000c 	beqi	r5, 12		// 13c64
   13c5c:	b60f0008 	rtsd	r15, 8
   13c60:	80000000 	or	r0, r0, r0
   13c64:	3060001f 	addik	r3, r0, 31
   13c68:	16461801 	cmp	r18, r6, r3
   13c6c:	be520038 	bltid	r18, 56		// 13ca4
   13c70:	30660004 	addik	r3, r6, 4
   13c74:	10631800 	addk	r3, r3, r3
   13c78:	10631800 	addk	r3, r3, r3
   13c7c:	10c63000 	addk	r6, r6, r6
   13c80:	10631800 	addk	r3, r3, r3
   13c84:	10c63000 	addk	r6, r6, r6
   13c88:	b0000001 	imm	1
   13c8c:	f8e3486c 	swi	r7, r3, 18540
   13c90:	10c63000 	addk	r6, r6, r6
   13c94:	b0000001 	imm	1
   13c98:	f9064890 	swi	r8, r6, 18576
   13c9c:	b60f0008 	rtsd	r15, 8
   13ca0:	80000000 	or	r0, r0, r0
   13ca4:	3021fff0 	addik	r1, r1, -16
   13ca8:	fa610004 	swi	r19, r1, 4
   13cac:	12660000 	addk	r19, r6, r0
   13cb0:	10a03000 	addk	r5, r0, r6
   13cb4:	90a60001 	sra	r5, r6
   13cb8:	90a50001 	sra	r5, r5
   13cbc:	90a50001 	sra	r5, r5
   13cc0:	90a50001 	sra	r5, r5
   13cc4:	90a50001 	sra	r5, r5
   13cc8:	b0000000 	imm	0
   13ccc:	a4a5ffff 	andi	r5, r5, -1
   13cd0:	f9e10000 	swi	r15, r1, 0
   13cd4:	fac10008 	swi	r22, r1, 8
   13cd8:	fae1000c 	swi	r23, r1, 12
   13cdc:	12c70000 	addk	r22, r7, r0
   13ce0:	b000ffff 	imm	-1
   13ce4:	b9f4f998 	brlid	r15, -1640	// 1367c <XIntc_LookupConfig>
   13ce8:	12e80000 	addk	r23, r8, r0
   13cec:	a4d3001f 	andi	r6, r19, 31
   13cf0:	30860004 	addik	r4, r6, 4
   13cf4:	10842000 	addk	r4, r4, r4
   13cf8:	10c63000 	addk	r6, r6, r6
   13cfc:	10842000 	addk	r4, r4, r4
   13d00:	10c63000 	addk	r6, r6, r6
   13d04:	10842000 	addk	r4, r4, r4
   13d08:	10c63000 	addk	r6, r6, r6
   13d0c:	dac41800 	sw	r22, r4, r3
   13d10:	10c33000 	addk	r6, r3, r6
   13d14:	fae60024 	swi	r23, r6, 36
   13d18:	e9e10000 	lwi	r15, r1, 0
   13d1c:	ea610004 	lwi	r19, r1, 4
   13d20:	eac10008 	lwi	r22, r1, 8
   13d24:	eae1000c 	lwi	r23, r1, 12
   13d28:	b60f0008 	rtsd	r15, 8
   13d2c:	30210010 	addik	r1, r1, 16

00013d30 <XIntc_RegisterFastHandler>:
   13d30:	3060001f 	addik	r3, r0, 31
   13d34:	16461803 	cmpu	r18, r6, r3
   13d38:	bc520088 	blti	r18, 136		// 13dc0
   13d3c:	10c63000 	addk	r6, r6, r6
   13d40:	10c63000 	addk	r6, r6, r6
   13d44:	b0000001 	imm	1
   13d48:	30665df0 	addik	r3, r6, 24048
   13d4c:	e8850008 	lwi	r4, r5, 8
   13d50:	e8630000 	lwi	r3, r3, 0
   13d54:	84832000 	and	r4, r3, r4
   13d58:	be040048 	beqid	r4, 72		// 13da0
   13d5c:	30850100 	addik	r4, r5, 256
   13d60:	e9050008 	lwi	r8, r5, 8
   13d64:	a883ffff 	xori	r4, r3, -1
   13d68:	31250100 	addik	r9, r5, 256
   13d6c:	84844000 	and	r4, r4, r8
   13d70:	f8850008 	swi	r4, r5, 8
   13d74:	d8e93000 	sw	r7, r9, r6
   13d78:	e8850020 	lwi	r4, r5, 32
   13d7c:	85034000 	and	r8, r3, r8
   13d80:	80832000 	or	r4, r3, r4
   13d84:	f8850020 	swi	r4, r5, 32
   13d88:	bc080030 	beqi	r8, 48		// 13db8
   13d8c:	e8850008 	lwi	r4, r5, 8
   13d90:	80632000 	or	r3, r3, r4
   13d94:	f8650008 	swi	r3, r5, 8
   13d98:	b60f0008 	rtsd	r15, 8
   13d9c:	80000000 	or	r0, r0, r0
   13da0:	d8e62000 	sw	r7, r6, r4
   13da4:	e8850020 	lwi	r4, r5, 32
   13da8:	80641800 	or	r3, r4, r3
   13dac:	f8650020 	swi	r3, r5, 32
   13db0:	b60f0008 	rtsd	r15, 8
   13db4:	80000000 	or	r0, r0, r0
   13db8:	b60f0008 	rtsd	r15, 8
   13dbc:	80000000 	or	r0, r0, r0
   13dc0:	3021fff4 	addik	r1, r1, -12
   13dc4:	fa610004 	swi	r19, r1, 4
   13dc8:	12660000 	addk	r19, r6, r0
   13dcc:	10a03000 	addk	r5, r0, r6
   13dd0:	90a60041 	srl	r5, r6
   13dd4:	90a50041 	srl	r5, r5
   13dd8:	90a50041 	srl	r5, r5
   13ddc:	90a50041 	srl	r5, r5
   13de0:	90a50041 	srl	r5, r5
   13de4:	fac10008 	swi	r22, r1, 8
   13de8:	f9e10000 	swi	r15, r1, 0
   13dec:	b000ffff 	imm	-1
   13df0:	b9f4f88c 	brlid	r15, -1908	// 1367c <XIntc_LookupConfig>
   13df4:	12c70000 	addk	r22, r7, r0
   13df8:	a4d3001f 	andi	r6, r19, 31
   13dfc:	e8630004 	lwi	r3, r3, 4
   13e00:	10c63000 	addk	r6, r6, r6
   13e04:	10c63000 	addk	r6, r6, r6
   13e08:	b0000001 	imm	1
   13e0c:	30865df0 	addik	r4, r6, 24048
   13e10:	e8a30008 	lwi	r5, r3, 8
   13e14:	e8840000 	lwi	r4, r4, 0
   13e18:	84e42800 	and	r7, r4, r5
   13e1c:	bc270028 	bnei	r7, 40		// 13e44
   13e20:	30c60100 	addik	r6, r6, 256
   13e24:	dac33000 	sw	r22, r3, r6
   13e28:	3080ffff 	addik	r4, r0, -1
   13e2c:	f8830020 	swi	r4, r3, 32
   13e30:	e9e10000 	lwi	r15, r1, 0
   13e34:	ea610004 	lwi	r19, r1, 4
   13e38:	eac10008 	lwi	r22, r1, 8
   13e3c:	b60f0008 	rtsd	r15, 8
   13e40:	3021000c 	addik	r1, r1, 12
   13e44:	a8e4ffff 	xori	r7, r4, -1
   13e48:	84e72800 	and	r7, r7, r5
   13e4c:	f8e30008 	swi	r7, r3, 8
   13e50:	30c60100 	addik	r6, r6, 256
   13e54:	dac33000 	sw	r22, r3, r6
   13e58:	30c0ffff 	addik	r6, r0, -1
   13e5c:	f8c30020 	swi	r6, r3, 32
   13e60:	80842800 	or	r4, r4, r5
   13e64:	f8830008 	swi	r4, r3, 8
   13e68:	e9e10000 	lwi	r15, r1, 0
   13e6c:	ea610004 	lwi	r19, r1, 4
   13e70:	eac10008 	lwi	r22, r1, 8
   13e74:	b60f0008 	rtsd	r15, 8
   13e78:	3021000c 	addik	r1, r1, 12

00013e7c <outbyte>:
   13e7c:	a4c500ff 	andi	r6, r5, 255
   13e80:	b000e000 	imm	-8192
   13e84:	30a00000 	addik	r5, r0, 0
   13e88:	3021fffc 	addik	r1, r1, -4
   13e8c:	f9e10000 	swi	r15, r1, 0
   13e90:	b9f40074 	brlid	r15, 116	// 13f04 <XUartPs_SendByte>
   13e94:	80000000 	or	r0, r0, r0
   13e98:	e9e10000 	lwi	r15, r1, 0
   13e9c:	b60f0008 	rtsd	r15, 8
   13ea0:	30210004 	addik	r1, r1, 4

00013ea4 <Xil_Assert>:
   13ea4:	b0000001 	imm	1
   13ea8:	e8605cf0 	lwi	r3, r0, 23792	// 15cf0 <Xil_AssertCallbackRoutine>
   13eac:	bc03002c 	beqi	r3, 44		// 13ed8
   13eb0:	3021ffe4 	addik	r1, r1, -28
   13eb4:	f9e10000 	swi	r15, r1, 0
   13eb8:	99fc1800 	brald	r15, r3
   13ebc:	80000000 	or	r0, r0, r0
   13ec0:	b0000001 	imm	1
   13ec4:	e8604894 	lwi	r3, r0, 18580	// 14894 <Xil_AssertWait>
   13ec8:	be230000 	bneid	r3, 0		// 13ec8
   13ecc:	e9e10000 	lwi	r15, r1, 0
   13ed0:	b60f0008 	rtsd	r15, 8
   13ed4:	3021001c 	addik	r1, r1, 28
   13ed8:	b0000001 	imm	1
   13edc:	e8604894 	lwi	r3, r0, 18580	// 14894 <Xil_AssertWait>
   13ee0:	bc230000 	bnei	r3, 0		// 13ee0
   13ee4:	b60f0008 	rtsd	r15, 8
   13ee8:	80000000 	or	r0, r0, r0

00013eec <Xil_AssertSetCallback>:
   13eec:	b0000001 	imm	1
   13ef0:	f8a05cf0 	swi	r5, r0, 23792	// 15cf0 <Xil_AssertCallbackRoutine>
   13ef4:	b60f0008 	rtsd	r15, 8
   13ef8:	80000000 	or	r0, r0, r0

00013efc <XNullHandler>:
   13efc:	b60f0008 	rtsd	r15, 8
   13f00:	80000000 	or	r0, r0, r0

00013f04 <XUartPs_SendByte>:
   13f04:	3085002c 	addik	r4, r5, 44
   13f08:	e8640000 	lwi	r3, r4, 0
   13f0c:	a4630010 	andi	r3, r3, 16
   13f10:	bc23fff8 	bnei	r3, -8		// 13f08
   13f14:	f8c50030 	swi	r6, r5, 48
   13f18:	b60f0008 	rtsd	r15, 8
   13f1c:	80000000 	or	r0, r0, r0

00013f20 <XUartPs_RecvByte>:
   13f20:	3085002c 	addik	r4, r5, 44
   13f24:	e8640000 	lwi	r3, r4, 0
   13f28:	a4630002 	andi	r3, r3, 2
   13f2c:	bc23fff8 	bnei	r3, -8		// 13f24
   13f30:	e8650030 	lwi	r3, r5, 48
   13f34:	b60f0008 	rtsd	r15, 8
   13f38:	a46300ff 	andi	r3, r3, 255

00013f3c <XUartPs_ResetHw>:
   13f3c:	30603fff 	addik	r3, r0, 16383
   13f40:	f865000c 	swi	r3, r5, 12
   13f44:	30800028 	addik	r4, r0, 40
   13f48:	f8850000 	swi	r4, r5, 0
   13f4c:	30800003 	addik	r4, r0, 3
   13f50:	f8850000 	swi	r4, r5, 0
   13f54:	f8650014 	swi	r3, r5, 20
   13f58:	f8050004 	swi	r0, r5, 4
   13f5c:	30600020 	addik	r3, r0, 32	// 20 <_vector_hw_exception>
   13f60:	f8650020 	swi	r3, r5, 32
   13f64:	f8650044 	swi	r3, r5, 68
   13f68:	f805001c 	swi	r0, r5, 28
   13f6c:	3060028b 	addik	r3, r0, 651
   13f70:	f8650018 	swi	r3, r5, 24
   13f74:	3080000f 	addik	r4, r0, 15
   13f78:	f8850034 	swi	r4, r5, 52
   13f7c:	30600128 	addik	r3, r0, 296
   13f80:	f8650000 	swi	r3, r5, 0
   13f84:	b60f0008 	rtsd	r15, 8
   13f88:	80000000 	or	r0, r0, r0

Disassembly of section .init:

00014898 <__init>:
   14898:	3021fff8 	addik	r1, r1, -8
   1489c:	d9e00800 	sw	r15, r0, r1
   148a0:	3160ffff 	addik	r11, r0, -1
   148a4:	940bc802 	mts	rshr, r11
   148a8:	31600000 	addik	r11, r0, 0
   148ac:	940bc800 	mts	rslr, r11
   148b0:	b000ffff 	imm	-1
   148b4:	b9f4cadc 	brlid	r15, -13604	// 11390 <frame_dummy>
   148b8:	80000000 	or	r0, r0, r0
   148bc:	b000ffff 	imm	-1
   148c0:	b9f4dbe0 	brlid	r15, -9248	// 124a0 <__do_global_ctors_aux>
   148c4:	80000000 	or	r0, r0, r0
   148c8:	c9e00800 	lw	r15, r0, r1
   148cc:	b60f0008 	rtsd	r15, 8
   148d0:	30210008 	addik	r1, r1, 8

Disassembly of section .fini:

000148d4 <__fini>:
   148d4:	3021fff8 	addik	r1, r1, -8
   148d8:	d9e00800 	sw	r15, r0, r1
   148dc:	b000ffff 	imm	-1
   148e0:	b9f4c9d0 	brlid	r15, -13872	// 112b0 <__do_global_dtors_aux>
   148e4:	80000000 	or	r0, r0, r0
   148e8:	c9e00800 	lw	r15, r0, r1
   148ec:	b60f0008 	rtsd	r15, 8
   148f0:	30210008 	addik	r1, r1, 8
