Disassembly of section .text:

000113b0 <_start1>:
   113b0:	b0000001 	imm	1
   113b4:	31a06c08 	addik	r13, r0, 27656	// 16c08 <_SDA_BASE_>
   113b8:	b0000001 	imm	1
   113bc:	30406c00 	addik	r2, r0, 27648	// 16c00 <_SDA2_BASE_>
   113c0:	b0000001 	imm	1
   113c4:	30207dc0 	addik	r1, r0, 32192
   113c8:	b9f40288 	brlid	r15, 648	// 11650 <_crtinit>
   113cc:	80000000 	or	r0, r0, r0
   113d0:	b9f40524 	brlid	r15, 1316	// 118f4 <exit>
   113d4:	30a30000 	addik	r5, r3, 0

000113d8 <_exit>:
   113d8:	b8000000 	bri	0	// 113d8 <_exit>

000113dc <deregister_tm_clones>:
   113dc:	b0000001 	imm	1
   113e0:	30a056dc 	addik	r5, r0, 22236	// 156dc <__TMC_END__>
   113e4:	b0000001 	imm	1
   113e8:	306056df 	addik	r3, r0, 22239
   113ec:	30800006 	addik	r4, r0, 6
   113f0:	14651800 	rsubk	r3, r5, r3
   113f4:	16432003 	cmpu	r18, r3, r4
   113f8:	bcb2002c 	bgei	r18, 44		// 11424
   113fc:	b0000000 	imm	0
   11400:	30600000 	addik	r3, r0, 0
   11404:	bc030020 	beqi	r3, 32		// 11424
   11408:	3021ffe4 	addik	r1, r1, -28
   1140c:	f9e10000 	swi	r15, r1, 0
   11410:	99fc1800 	brald	r15, r3
   11414:	80000000 	or	r0, r0, r0
   11418:	e9e10000 	lwi	r15, r1, 0
   1141c:	b60f0008 	rtsd	r15, 8
   11420:	3021001c 	addik	r1, r1, 28
   11424:	b60f0008 	rtsd	r15, 8
   11428:	80000000 	or	r0, r0, r0

0001142c <register_tm_clones>:
   1142c:	b0000001 	imm	1
   11430:	30a056dc 	addik	r5, r0, 22236	// 156dc <__TMC_END__>
   11434:	b0000001 	imm	1
   11438:	306056dc 	addik	r3, r0, 22236	// 156dc <__TMC_END__>
   1143c:	14651800 	rsubk	r3, r5, r3
   11440:	10801800 	addk	r4, r0, r3
   11444:	90830001 	sra	r4, r3
   11448:	90840001 	sra	r4, r4
   1144c:	10c02000 	addk	r6, r0, r4
   11450:	90c40041 	srl	r6, r4
   11454:	90c60041 	srl	r6, r6
   11458:	90c60041 	srl	r6, r6
   1145c:	90c60041 	srl	r6, r6
   11460:	90c60041 	srl	r6, r6
   11464:	90c60041 	srl	r6, r6
   11468:	90c60041 	srl	r6, r6
   1146c:	90c60041 	srl	r6, r6
   11470:	90c60041 	srl	r6, r6
   11474:	90c60041 	srl	r6, r6
   11478:	90c60041 	srl	r6, r6
   1147c:	90c60041 	srl	r6, r6
   11480:	90c60041 	srl	r6, r6
   11484:	90c60041 	srl	r6, r6
   11488:	90c60041 	srl	r6, r6
   1148c:	90c60041 	srl	r6, r6
   11490:	90c60041 	srl	r6, r6
   11494:	90c60041 	srl	r6, r6
   11498:	90c60041 	srl	r6, r6
   1149c:	90c60041 	srl	r6, r6
   114a0:	90c60041 	srl	r6, r6
   114a4:	90c60041 	srl	r6, r6
   114a8:	90c60041 	srl	r6, r6
   114ac:	90c60041 	srl	r6, r6
   114b0:	90c60041 	srl	r6, r6
   114b4:	90c60041 	srl	r6, r6
   114b8:	90c60041 	srl	r6, r6
   114bc:	90c60041 	srl	r6, r6
   114c0:	90c60041 	srl	r6, r6
   114c4:	90c60041 	srl	r6, r6
   114c8:	90c60041 	srl	r6, r6
   114cc:	10c62000 	addk	r6, r6, r4
   114d0:	90c60001 	sra	r6, r6
   114d4:	bc06002c 	beqi	r6, 44		// 11500
   114d8:	b0000000 	imm	0
   114dc:	30600000 	addik	r3, r0, 0
   114e0:	bc030020 	beqi	r3, 32		// 11500
   114e4:	3021ffe4 	addik	r1, r1, -28
   114e8:	f9e10000 	swi	r15, r1, 0
   114ec:	99fc1800 	brald	r15, r3
   114f0:	80000000 	or	r0, r0, r0
   114f4:	e9e10000 	lwi	r15, r1, 0
   114f8:	b60f0008 	rtsd	r15, 8
   114fc:	3021001c 	addik	r1, r1, 28
   11500:	b60f0008 	rtsd	r15, 8
   11504:	80000000 	or	r0, r0, r0

00011508 <__do_global_dtors_aux>:
   11508:	b0000001 	imm	1
   1150c:	e0606c08 	lbui	r3, r0, 27656	// 16c08 <_SDA_BASE_>
   11510:	bc2300d0 	bnei	r3, 208		// 115e0
   11514:	b0000001 	imm	1
   11518:	30a05740 	addik	r5, r0, 22336	// 15740 <__CTOR_END__>
   1151c:	b0000001 	imm	1
   11520:	30805744 	addik	r4, r0, 22340	// 15744 <__DTOR_END__>
   11524:	b0000001 	imm	1
   11528:	e8606c0c 	lwi	r3, r0, 27660	// 16c0c <dtor_idx.5085>
   1152c:	3021ffdc 	addik	r1, r1, -36
   11530:	14852000 	rsubk	r4, r5, r4
   11534:	fa61001c 	swi	r19, r1, 28
   11538:	fac10020 	swi	r22, r1, 32
   1153c:	12602000 	addk	r19, r0, r4
   11540:	92640001 	sra	r19, r4
   11544:	92730001 	sra	r19, r19
   11548:	f9e10000 	swi	r15, r1, 0
   1154c:	3273ffff 	addik	r19, r19, -1
   11550:	b0000001 	imm	1
   11554:	32c05740 	addik	r22, r0, 22336	// 15740 <__CTOR_END__>
   11558:	16531803 	cmpu	r18, r19, r3
   1155c:	beb20038 	bgeid	r18, 56		// 11594
   11560:	30630001 	addik	r3, r3, 1
   11564:	10831800 	addk	r4, r3, r3
   11568:	10842000 	addk	r4, r4, r4
   1156c:	c884b000 	lw	r4, r4, r22
   11570:	b0000001 	imm	1
   11574:	f8606c0c 	swi	r3, r0, 27660	// 16c0c <dtor_idx.5085>
   11578:	99fc2000 	brald	r15, r4
   1157c:	80000000 	or	r0, r0, r0
   11580:	b0000001 	imm	1
   11584:	e8606c0c 	lwi	r3, r0, 27660	// 16c0c <dtor_idx.5085>
   11588:	16531803 	cmpu	r18, r19, r3
   1158c:	be52ffd8 	bltid	r18, -40		// 11564
   11590:	30630001 	addik	r3, r3, 1
   11594:	b9f4fe48 	brlid	r15, -440	// 113dc <deregister_tm_clones>
   11598:	80000000 	or	r0, r0, r0
   1159c:	b0000000 	imm	0
   115a0:	30600000 	addik	r3, r0, 0
   115a4:	be030020 	beqid	r3, 32		// 115c4
   115a8:	e9e10000 	lwi	r15, r1, 0
   115ac:	b0000001 	imm	1
   115b0:	30a06c00 	addik	r5, r0, 27648	// 16c00 <_SDA2_BASE_>
   115b4:	b000fffe 	imm	-2
   115b8:	b9f4ea48 	brlid	r15, -5560	// 0 <_start>
   115bc:	80000000 	or	r0, r0, r0
   115c0:	e9e10000 	lwi	r15, r1, 0
   115c4:	ea61001c 	lwi	r19, r1, 28
   115c8:	eac10020 	lwi	r22, r1, 32
   115cc:	30600001 	addik	r3, r0, 1
   115d0:	b0000001 	imm	1
   115d4:	f0606c08 	sbi	r3, r0, 27656	// 16c08 <_SDA_BASE_>
   115d8:	b60f0008 	rtsd	r15, 8
   115dc:	30210024 	addik	r1, r1, 36
   115e0:	b60f0008 	rtsd	r15, 8
   115e4:	80000000 	or	r0, r0, r0

000115e8 <frame_dummy>:
   115e8:	b0000000 	imm	0
   115ec:	30600000 	addik	r3, r0, 0
   115f0:	3021ffe4 	addik	r1, r1, -28
   115f4:	be030020 	beqid	r3, 32		// 11614
   115f8:	f9e10000 	swi	r15, r1, 0
   115fc:	b0000001 	imm	1
   11600:	30c06c10 	addik	r6, r0, 27664	// 16c10 <object.5095>
   11604:	b0000001 	imm	1
   11608:	30a06c00 	addik	r5, r0, 27648	// 16c00 <_SDA2_BASE_>
   1160c:	99fc1800 	brald	r15, r3
   11610:	80000000 	or	r0, r0, r0
   11614:	b0000001 	imm	1
   11618:	30a06c04 	addik	r5, r0, 27652	// 16c04 <__JCR_END__>
   1161c:	e8650000 	lwi	r3, r5, 0
   11620:	bc230018 	bnei	r3, 24		// 11638
   11624:	b9f4fe08 	brlid	r15, -504	// 1142c <register_tm_clones>
   11628:	80000000 	or	r0, r0, r0
   1162c:	e9e10000 	lwi	r15, r1, 0
   11630:	b60f0008 	rtsd	r15, 8
   11634:	3021001c 	addik	r1, r1, 28
   11638:	b0000000 	imm	0
   1163c:	30600000 	addik	r3, r0, 0
   11640:	bc03ffe4 	beqi	r3, -28		// 11624
   11644:	99fc1800 	brald	r15, r3
   11648:	80000000 	or	r0, r0, r0
   1164c:	b800ffd8 	bri	-40		// 11624

00011650 <_crtinit>:
   11650:	2021ffec 	addi	r1, r1, -20
   11654:	f9e10000 	swi	r15, r1, 0
   11658:	b0000001 	imm	1
   1165c:	20c06c08 	addi	r6, r0, 27656	// 16c08 <_SDA_BASE_>
   11660:	b0000001 	imm	1
   11664:	20e06c08 	addi	r7, r0, 27656	// 16c08 <_SDA_BASE_>
   11668:	06463800 	rsub	r18, r6, r7
   1166c:	bc720014 	blei	r18, 20		// 11680
   11670:	f8060000 	swi	r0, r6, 0
   11674:	20c60004 	addi	r6, r6, 4
   11678:	06463800 	rsub	r18, r6, r7
   1167c:	bc92fff4 	bgti	r18, -12		// 11670
   11680:	b0000001 	imm	1
   11684:	20c06c08 	addi	r6, r0, 27656	// 16c08 <_SDA_BASE_>
   11688:	b0000001 	imm	1
   1168c:	20e06dcc 	addi	r7, r0, 28108	// 16dcc <__bss_end>
   11690:	06463800 	rsub	r18, r6, r7
   11694:	bc720014 	blei	r18, 20		// 116a8
   11698:	f8060000 	swi	r0, r6, 0
   1169c:	20c60004 	addi	r6, r6, 4
   116a0:	06463800 	rsub	r18, r6, r7
   116a4:	bc92fff4 	bgti	r18, -12		// 11698
   116a8:	b9f40ff0 	brlid	r15, 4080	// 12698 <_program_init>
   116ac:	80000000 	or	r0, r0, r0
   116b0:	b9f4402c 	brlid	r15, 16428	// 156dc <__TMC_END__>
   116b4:	80000000 	or	r0, r0, r0
   116b8:	20c00000 	addi	r6, r0, 0
   116bc:	20e00000 	addi	r7, r0, 0
   116c0:	b000ffff 	imm	-1
   116c4:	b9f44e1c 	brlid	r15, 19996	// 64e0 <main>
   116c8:	20a00000 	addi	r5, r0, 0
   116cc:	32630000 	addik	r19, r3, 0
   116d0:	b9f44048 	brlid	r15, 16456	// 15718 <__fini>
   116d4:	80000000 	or	r0, r0, r0
   116d8:	b9f40fb8 	brlid	r15, 4024	// 12690 <_program_clean>
   116dc:	80000000 	or	r0, r0, r0
   116e0:	c9e10000 	lw	r15, r1, r0
   116e4:	30730000 	addik	r3, r19, 0
   116e8:	b60f0008 	rtsd	r15, 8
   116ec:	20210014 	addi	r1, r1, 20

000116f0 <_hw_exception_handler>:
   116f0:	b8000000 	bri	0	// 116f0 <_hw_exception_handler>

000116f4 <microblaze_enable_dcache>:
   116f4:	95008001 	mfs	r8, rmsr
   116f8:	a1080080 	ori	r8, r8, 128
   116fc:	9408c001 	mts	rmsr, r8
   11700:	b60f0008 	rtsd	r15, 8
   11704:	80000000 	or	r0, r0, r0

00011708 <microblaze_enable_icache>:
   11708:	95008001 	mfs	r8, rmsr
   1170c:	a1080020 	ori	r8, r8, 32
   11710:	9408c001 	mts	rmsr, r8
   11714:	b60f0008 	rtsd	r15, 8
   11718:	80000000 	or	r0, r0, r0

0001171c <microblaze_enable_interrupts>:
   1171c:	95808001 	mfs	r12, rmsr
   11720:	a18c0002 	ori	r12, r12, 2
   11724:	940cc001 	mts	rmsr, r12
   11728:	b60f0008 	rtsd	r15, 8
   1172c:	80000000 	or	r0, r0, r0

00011730 <microblaze_disable_dcache>:
   11730:	3021fffc 	addik	r1, r1, -4
   11734:	95608001 	mfs	r11, rmsr
   11738:	a56bff7f 	andi	r11, r11, -129
   1173c:	940bc001 	mts	rmsr, r11
   11740:	b60f0008 	rtsd	r15, 8
   11744:	20210004 	addi	r1, r1, 4

00011748 <microblaze_disable_icache>:
   11748:	95008001 	mfs	r8, rmsr
   1174c:	a508ffdf 	andi	r8, r8, -33
   11750:	9408c001 	mts	rmsr, r8
   11754:	b60f0008 	rtsd	r15, 8
   11758:	80000000 	or	r0, r0, r0

0001175c <microblaze_disable_interrupts>:
   1175c:	95808001 	mfs	r12, rmsr
   11760:	a58cfffd 	andi	r12, r12, -3
   11764:	940cc001 	mts	rmsr, r12
   11768:	b60f0008 	rtsd	r15, 8
   1176c:	80000000 	or	r0, r0, r0

00011770 <microblaze_flush_cache_ext>:
   11770:	b60f0008 	rtsd	r15, 8
   11774:	80000000 	or	r0, r0, r0

00011778 <microblaze_invalidate_cache_ext>:
   11778:	b60f0008 	rtsd	r15, 8
   1177c:	80000000 	or	r0, r0, r0

00011780 <microblaze_invalidate_dcache>:
   11780:	b60f0008 	rtsd	r15, 8
   11784:	80000000 	or	r0, r0, r0

00011788 <microblaze_invalidate_icache>:
   11788:	b60f0008 	rtsd	r15, 8
   1178c:	80000000 	or	r0, r0, r0

00011790 <__udivsi3>:
   11790:	3021fff4 	addik	r1, r1, -12
   11794:	fba10000 	swi	r29, r1, 0
   11798:	fbc10004 	swi	r30, r1, 4
   1179c:	fbe10008 	swi	r31, r1, 8
   117a0:	bc060080 	beqi	r6, 128		// 11820
   117a4:	be05007c 	beqid	r5, 124		// 11820
   117a8:	33c00000 	addik	r30, r0, 0
   117ac:	33a00020 	addik	r29, r0, 32	// 20 <_vector_hw_exception>
   117b0:	06453000 	rsub	r18, r5, r6
   117b4:	be120070 	beqid	r18, 112		// 11824
   117b8:	30600001 	addik	r3, r0, 1
   117bc:	8a453000 	xor	r18, r5, r6
   117c0:	beb20010 	bgeid	r18, 16		// 117d0
   117c4:	00600000 	add	r3, r0, r0
   117c8:	bc46005c 	blti	r6, 92		// 11824
   117cc:	b800000c 	bri	12		// 117d8
   117d0:	06462800 	rsub	r18, r6, r5
   117d4:	bc520050 	blti	r18, 80		// 11824
   117d8:	bc86000c 	bgti	r6, 12		// 117e4
   117dc:	b8100048 	brid	72		// 11824
   117e0:	30600001 	addik	r3, r0, 1
   117e4:	bc450010 	blti	r5, 16		// 117f4
   117e8:	00a52800 	add	r5, r5, r5
   117ec:	be85fffc 	bgtid	r5, -4		// 117e8
   117f0:	33bdffff 	addik	r29, r29, -1
   117f4:	00a52800 	add	r5, r5, r5
   117f8:	0bdef000 	addc	r30, r30, r30
   117fc:	07e6f000 	rsub	r31, r6, r30
   11800:	bc5f000c 	blti	r31, 12		// 1180c
   11804:	83c0f800 	or	r30, r0, r31
   11808:	30630001 	addik	r3, r3, 1
   1180c:	33bdffff 	addik	r29, r29, -1
   11810:	bc1d000c 	beqi	r29, 12		// 1181c
   11814:	00631800 	add	r3, r3, r3
   11818:	b800ffdc 	bri	-36		// 117f4
   1181c:	b8000008 	bri	8		// 11824
   11820:	80600000 	or	r3, r0, r0
   11824:	eba10000 	lwi	r29, r1, 0
   11828:	ebc10004 	lwi	r30, r1, 4
   1182c:	ebe10008 	lwi	r31, r1, 8
   11830:	b60f0008 	rtsd	r15, 8
   11834:	3021000c 	addik	r1, r1, 12

00011838 <__umodsi3>:
   11838:	3021fff4 	addik	r1, r1, -12
   1183c:	fba10000 	swi	r29, r1, 0
   11840:	fbc10004 	swi	r30, r1, 4
   11844:	fbe10008 	swi	r31, r1, 8
   11848:	bc060094 	beqi	r6, 148		// 118dc
   1184c:	be050090 	beqid	r5, 144		// 118dc
   11850:	30600000 	addik	r3, r0, 0
   11854:	33c00000 	addik	r30, r0, 0
   11858:	33a00020 	addik	r29, r0, 32	// 20 <_vector_hw_exception>
   1185c:	06453000 	rsub	r18, r5, r6
   11860:	bc120080 	beqi	r18, 128		// 118e0
   11864:	8a453000 	xor	r18, r5, r6
   11868:	beb20010 	bgeid	r18, 16		// 11878
   1186c:	30650000 	addik	r3, r5, 0
   11870:	bc460070 	blti	r6, 112		// 118e0
   11874:	b800000c 	bri	12		// 11880
   11878:	06453000 	rsub	r18, r5, r6
   1187c:	bc920064 	bgti	r18, 100		// 118e0
   11880:	be860020 	bgtid	r6, 32		// 118a0
   11884:	30600000 	addik	r3, r0, 0
   11888:	b0007fff 	imm	32767
   1188c:	3240ffff 	addik	r18, r0, -1
   11890:	84a59000 	and	r5, r5, r18
   11894:	84c69000 	and	r6, r6, r18
   11898:	b8100048 	brid	72		// 118e0
   1189c:	04662800 	rsub	r3, r6, r5
   118a0:	bc450010 	blti	r5, 16		// 118b0
   118a4:	00a52800 	add	r5, r5, r5
   118a8:	bea5fffc 	bgeid	r5, -4		// 118a4
   118ac:	33bdffff 	addik	r29, r29, -1
   118b0:	00a52800 	add	r5, r5, r5
   118b4:	08631800 	addc	r3, r3, r3
   118b8:	07e61800 	rsub	r31, r6, r3
   118bc:	bc5f000c 	blti	r31, 12		// 118c8
   118c0:	8060f800 	or	r3, r0, r31
   118c4:	33de0001 	addik	r30, r30, 1
   118c8:	33bdffff 	addik	r29, r29, -1
   118cc:	bc1d000c 	beqi	r29, 12		// 118d8
   118d0:	03def000 	add	r30, r30, r30
   118d4:	b800ffdc 	bri	-36		// 118b0
   118d8:	b8000008 	bri	8		// 118e0
   118dc:	80600000 	or	r3, r0, r0
   118e0:	eba10000 	lwi	r29, r1, 0
   118e4:	ebc10004 	lwi	r30, r1, 4
   118e8:	ebe10008 	lwi	r31, r1, 8
   118ec:	b60f0008 	rtsd	r15, 8
   118f0:	3021000c 	addik	r1, r1, 12

000118f4 <exit>:
   118f4:	3021ffdc 	addik	r1, r1, -36
   118f8:	f9e10000 	swi	r15, r1, 0
   118fc:	fa610020 	swi	r19, r1, 32
   11900:	12610000 	addk	r19, r1, r0
   11904:	f8b3001c 	swi	r5, r19, 28
   11908:	10c00000 	addk	r6, r0, r0
   1190c:	e8b3001c 	lwi	r5, r19, 28
   11910:	b9f40b34 	brlid	r15, 2868	// 12444 <__call_exitprocs>
   11914:	80000000 	or	r0, r0, r0
   11918:	b0000001 	imm	1
   1191c:	e8606a70 	lwi	r3, r0, 27248	// 16a70 <_global_impure_ptr>
   11920:	e8630028 	lwi	r3, r3, 40
   11924:	bc030024 	beqi	r3, 36		// 11948
   11928:	b0000001 	imm	1
   1192c:	e8606a70 	lwi	r3, r0, 27248	// 16a70 <_global_impure_ptr>
   11930:	e8630028 	lwi	r3, r3, 40
   11934:	b0000001 	imm	1
   11938:	e8806a70 	lwi	r4, r0, 27248	// 16a70 <_global_impure_ptr>
   1193c:	10a40000 	addk	r5, r4, r0
   11940:	99fc1800 	brald	r15, r3
   11944:	80000000 	or	r0, r0, r0
   11948:	e8b3001c 	lwi	r5, r19, 28
   1194c:	b000ffff 	imm	-1
   11950:	b9f4fa88 	brlid	r15, -1400	// 113d8 <_exit>
   11954:	80000000 	or	r0, r0, r0

00011958 <memcmp>:
   11958:	3021ffe8 	addik	r1, r1, -24
   1195c:	fa610014 	swi	r19, r1, 20
   11960:	12610000 	addk	r19, r1, r0
   11964:	f8b3001c 	swi	r5, r19, 28
   11968:	f8d30020 	swi	r6, r19, 32
   1196c:	f8f30024 	swi	r7, r19, 36
   11970:	e873001c 	lwi	r3, r19, 28
   11974:	f8730004 	swi	r3, r19, 4
   11978:	e8730020 	lwi	r3, r19, 32
   1197c:	f8730008 	swi	r3, r19, 8
   11980:	e8930024 	lwi	r4, r19, 36
   11984:	30600003 	addik	r3, r0, 3
   11988:	16441803 	cmpu	r18, r4, r3
   1198c:	bcb200e0 	bgei	r18, 224		// 11a6c
   11990:	e8930004 	lwi	r4, r19, 4
   11994:	e8730008 	lwi	r3, r19, 8
   11998:	80641800 	or	r3, r4, r3
   1199c:	a4630003 	andi	r3, r3, 3
   119a0:	bc2300cc 	bnei	r3, 204		// 11a6c
   119a4:	e8730004 	lwi	r3, r19, 4
   119a8:	f873000c 	swi	r3, r19, 12
   119ac:	e8730008 	lwi	r3, r19, 8
   119b0:	f8730010 	swi	r3, r19, 16
   119b4:	b8000040 	bri	64		// 119f4
   119b8:	e873000c 	lwi	r3, r19, 12
   119bc:	e8830000 	lwi	r4, r3, 0
   119c0:	e8730010 	lwi	r3, r19, 16
   119c4:	e8630000 	lwi	r3, r3, 0
   119c8:	88641800 	xor	r3, r4, r3
   119cc:	bc23003c 	bnei	r3, 60		// 11a08
   119d0:	e873000c 	lwi	r3, r19, 12
   119d4:	30630004 	addik	r3, r3, 4
   119d8:	f873000c 	swi	r3, r19, 12
   119dc:	e8730010 	lwi	r3, r19, 16
   119e0:	30630004 	addik	r3, r3, 4
   119e4:	f8730010 	swi	r3, r19, 16
   119e8:	e8730024 	lwi	r3, r19, 36
   119ec:	3063fffc 	addik	r3, r3, -4
   119f0:	f8730024 	swi	r3, r19, 36
   119f4:	e8930024 	lwi	r4, r19, 36
   119f8:	30600003 	addik	r3, r0, 3
   119fc:	16441803 	cmpu	r18, r4, r3
   11a00:	bc52ffb8 	blti	r18, -72		// 119b8
   11a04:	b8000008 	bri	8		// 11a0c
   11a08:	80000000 	or	r0, r0, r0
   11a0c:	e873000c 	lwi	r3, r19, 12
   11a10:	f8730004 	swi	r3, r19, 4
   11a14:	e8730010 	lwi	r3, r19, 16
   11a18:	f8730008 	swi	r3, r19, 8
   11a1c:	b8000050 	bri	80		// 11a6c
   11a20:	e8730004 	lwi	r3, r19, 4
   11a24:	e0830000 	lbui	r4, r3, 0
   11a28:	e8730008 	lwi	r3, r19, 8
   11a2c:	e0630000 	lbui	r3, r3, 0
   11a30:	88641800 	xor	r3, r4, r3
   11a34:	bc030020 	beqi	r3, 32		// 11a54
   11a38:	e8730004 	lwi	r3, r19, 4
   11a3c:	e0630000 	lbui	r3, r3, 0
   11a40:	10830000 	addk	r4, r3, r0
   11a44:	e8730008 	lwi	r3, r19, 8
   11a48:	e0630000 	lbui	r3, r3, 0
   11a4c:	14632000 	rsubk	r3, r3, r4
   11a50:	b8000030 	bri	48		// 11a80
   11a54:	e8730004 	lwi	r3, r19, 4
   11a58:	30630001 	addik	r3, r3, 1
   11a5c:	f8730004 	swi	r3, r19, 4
   11a60:	e8730008 	lwi	r3, r19, 8
   11a64:	30630001 	addik	r3, r3, 1
   11a68:	f8730008 	swi	r3, r19, 8
   11a6c:	e8730024 	lwi	r3, r19, 36
   11a70:	3083ffff 	addik	r4, r3, -1
   11a74:	f8930024 	swi	r4, r19, 36
   11a78:	bc23ffa8 	bnei	r3, -88		// 11a20
   11a7c:	10600000 	addk	r3, r0, r0
   11a80:	10330000 	addk	r1, r19, r0
   11a84:	ea610014 	lwi	r19, r1, 20
   11a88:	30210018 	addik	r1, r1, 24
   11a8c:	b60f0008 	rtsd	r15, 8
   11a90:	80000000 	or	r0, r0, r0

00011a94 <memcpy>:
   11a94:	3021ffe8 	addik	r1, r1, -24
   11a98:	fa610014 	swi	r19, r1, 20
   11a9c:	12610000 	addk	r19, r1, r0
   11aa0:	f8b3001c 	swi	r5, r19, 28
   11aa4:	f8d30020 	swi	r6, r19, 32
   11aa8:	f8f30024 	swi	r7, r19, 36
   11aac:	e873001c 	lwi	r3, r19, 28
   11ab0:	f8730004 	swi	r3, r19, 4
   11ab4:	e8730020 	lwi	r3, r19, 32
   11ab8:	f8730008 	swi	r3, r19, 8
   11abc:	e8930024 	lwi	r4, r19, 36
   11ac0:	3060000f 	addik	r3, r0, 15
   11ac4:	16441803 	cmpu	r18, r4, r3
   11ac8:	bcb20140 	bgei	r18, 320		// 11c08
   11acc:	e8930008 	lwi	r4, r19, 8
   11ad0:	e8730004 	lwi	r3, r19, 4
   11ad4:	80641800 	or	r3, r4, r3
   11ad8:	a4630003 	andi	r3, r3, 3
   11adc:	bc23012c 	bnei	r3, 300		// 11c08
   11ae0:	e8730004 	lwi	r3, r19, 4
   11ae4:	f873000c 	swi	r3, r19, 12
   11ae8:	e8730008 	lwi	r3, r19, 8
   11aec:	f8730010 	swi	r3, r19, 16
   11af0:	b8000090 	bri	144		// 11b80
   11af4:	e873000c 	lwi	r3, r19, 12
   11af8:	30830004 	addik	r4, r3, 4
   11afc:	f893000c 	swi	r4, r19, 12
   11b00:	e8930010 	lwi	r4, r19, 16
   11b04:	30a40004 	addik	r5, r4, 4
   11b08:	f8b30010 	swi	r5, r19, 16
   11b0c:	e8840000 	lwi	r4, r4, 0
   11b10:	f8830000 	swi	r4, r3, 0
   11b14:	e873000c 	lwi	r3, r19, 12
   11b18:	30830004 	addik	r4, r3, 4
   11b1c:	f893000c 	swi	r4, r19, 12
   11b20:	e8930010 	lwi	r4, r19, 16
   11b24:	30a40004 	addik	r5, r4, 4
   11b28:	f8b30010 	swi	r5, r19, 16
   11b2c:	e8840000 	lwi	r4, r4, 0
   11b30:	f8830000 	swi	r4, r3, 0
   11b34:	e873000c 	lwi	r3, r19, 12
   11b38:	30830004 	addik	r4, r3, 4
   11b3c:	f893000c 	swi	r4, r19, 12
   11b40:	e8930010 	lwi	r4, r19, 16
   11b44:	30a40004 	addik	r5, r4, 4
   11b48:	f8b30010 	swi	r5, r19, 16
   11b4c:	e8840000 	lwi	r4, r4, 0
   11b50:	f8830000 	swi	r4, r3, 0
   11b54:	e873000c 	lwi	r3, r19, 12
   11b58:	30830004 	addik	r4, r3, 4
   11b5c:	f893000c 	swi	r4, r19, 12
   11b60:	e8930010 	lwi	r4, r19, 16
   11b64:	30a40004 	addik	r5, r4, 4
   11b68:	f8b30010 	swi	r5, r19, 16
   11b6c:	e8840000 	lwi	r4, r4, 0
   11b70:	f8830000 	swi	r4, r3, 0
   11b74:	e8730024 	lwi	r3, r19, 36
   11b78:	3063fff0 	addik	r3, r3, -16
   11b7c:	f8730024 	swi	r3, r19, 36
   11b80:	e8930024 	lwi	r4, r19, 36
   11b84:	3060000f 	addik	r3, r0, 15
   11b88:	16441803 	cmpu	r18, r4, r3
   11b8c:	bc52ff68 	blti	r18, -152		// 11af4
   11b90:	b8000030 	bri	48		// 11bc0
   11b94:	e873000c 	lwi	r3, r19, 12
   11b98:	30830004 	addik	r4, r3, 4
   11b9c:	f893000c 	swi	r4, r19, 12
   11ba0:	e8930010 	lwi	r4, r19, 16
   11ba4:	30a40004 	addik	r5, r4, 4
   11ba8:	f8b30010 	swi	r5, r19, 16
   11bac:	e8840000 	lwi	r4, r4, 0
   11bb0:	f8830000 	swi	r4, r3, 0
   11bb4:	e8730024 	lwi	r3, r19, 36
   11bb8:	3063fffc 	addik	r3, r3, -4
   11bbc:	f8730024 	swi	r3, r19, 36
   11bc0:	e8930024 	lwi	r4, r19, 36
   11bc4:	30600003 	addik	r3, r0, 3
   11bc8:	16441803 	cmpu	r18, r4, r3
   11bcc:	bc52ffc8 	blti	r18, -56		// 11b94
   11bd0:	e873000c 	lwi	r3, r19, 12
   11bd4:	f8730004 	swi	r3, r19, 4
   11bd8:	e8730010 	lwi	r3, r19, 16
   11bdc:	f8730008 	swi	r3, r19, 8
   11be0:	b8000028 	bri	40		// 11c08
   11be4:	e8730004 	lwi	r3, r19, 4
   11be8:	30830001 	addik	r4, r3, 1
   11bec:	f8930004 	swi	r4, r19, 4
   11bf0:	e8930008 	lwi	r4, r19, 8
   11bf4:	30a40001 	addik	r5, r4, 1
   11bf8:	f8b30008 	swi	r5, r19, 8
   11bfc:	e0840000 	lbui	r4, r4, 0
   11c00:	90840060 	sext8	r4, r4
   11c04:	f0830000 	sbi	r4, r3, 0
   11c08:	e8730024 	lwi	r3, r19, 36
   11c0c:	3083ffff 	addik	r4, r3, -1
   11c10:	f8930024 	swi	r4, r19, 36
   11c14:	bc23ffd0 	bnei	r3, -48		// 11be4
   11c18:	e873001c 	lwi	r3, r19, 28
   11c1c:	10330000 	addk	r1, r19, r0
   11c20:	ea610014 	lwi	r19, r1, 20
   11c24:	30210018 	addik	r1, r1, 24
   11c28:	b60f0008 	rtsd	r15, 8
   11c2c:	80000000 	or	r0, r0, r0

00011c30 <memmove>:
   11c30:	3021ffe8 	addik	r1, r1, -24
   11c34:	fa610014 	swi	r19, r1, 20
   11c38:	12610000 	addk	r19, r1, r0
   11c3c:	f8b3001c 	swi	r5, r19, 28
   11c40:	f8d30020 	swi	r6, r19, 32
   11c44:	f8f30024 	swi	r7, r19, 36
   11c48:	e873001c 	lwi	r3, r19, 28
   11c4c:	f8730004 	swi	r3, r19, 4
   11c50:	e8730020 	lwi	r3, r19, 32
   11c54:	f8730008 	swi	r3, r19, 8
   11c58:	e8930008 	lwi	r4, r19, 8
   11c5c:	e8730004 	lwi	r3, r19, 4
   11c60:	16432003 	cmpu	r18, r3, r4
   11c64:	bcb20080 	bgei	r18, 128		// 11ce4
   11c68:	e8930008 	lwi	r4, r19, 8
   11c6c:	e8730024 	lwi	r3, r19, 36
   11c70:	10841800 	addk	r4, r4, r3
   11c74:	e8730004 	lwi	r3, r19, 4
   11c78:	16441803 	cmpu	r18, r4, r3
   11c7c:	bcb20068 	bgei	r18, 104		// 11ce4
   11c80:	e8930008 	lwi	r4, r19, 8
   11c84:	e8730024 	lwi	r3, r19, 36
   11c88:	10641800 	addk	r3, r4, r3
   11c8c:	f8730008 	swi	r3, r19, 8
   11c90:	e8930004 	lwi	r4, r19, 4
   11c94:	e8730024 	lwi	r3, r19, 36
   11c98:	10641800 	addk	r3, r4, r3
   11c9c:	f8730004 	swi	r3, r19, 4
   11ca0:	b8000030 	bri	48		// 11cd0
   11ca4:	e8730004 	lwi	r3, r19, 4
   11ca8:	3063ffff 	addik	r3, r3, -1
   11cac:	f8730004 	swi	r3, r19, 4
   11cb0:	e8730008 	lwi	r3, r19, 8
   11cb4:	3063ffff 	addik	r3, r3, -1
   11cb8:	f8730008 	swi	r3, r19, 8
   11cbc:	e8730008 	lwi	r3, r19, 8
   11cc0:	e0630000 	lbui	r3, r3, 0
   11cc4:	90830060 	sext8	r4, r3
   11cc8:	e8730004 	lwi	r3, r19, 4
   11ccc:	f0830000 	sbi	r4, r3, 0
   11cd0:	e8730024 	lwi	r3, r19, 36
   11cd4:	3083ffff 	addik	r4, r3, -1
   11cd8:	f8930024 	swi	r4, r19, 36
   11cdc:	bc23ffc8 	bnei	r3, -56		// 11ca4
   11ce0:	b8000160 	bri	352		// 11e40
   11ce4:	e8930024 	lwi	r4, r19, 36
   11ce8:	3060000f 	addik	r3, r0, 15
   11cec:	16441803 	cmpu	r18, r4, r3
   11cf0:	bcb20140 	bgei	r18, 320		// 11e30
   11cf4:	e8930008 	lwi	r4, r19, 8
   11cf8:	e8730004 	lwi	r3, r19, 4
   11cfc:	80641800 	or	r3, r4, r3
   11d00:	a4630003 	andi	r3, r3, 3
   11d04:	bc23012c 	bnei	r3, 300		// 11e30
   11d08:	e8730004 	lwi	r3, r19, 4
   11d0c:	f873000c 	swi	r3, r19, 12
   11d10:	e8730008 	lwi	r3, r19, 8
   11d14:	f8730010 	swi	r3, r19, 16
   11d18:	b8000090 	bri	144		// 11da8
   11d1c:	e873000c 	lwi	r3, r19, 12
   11d20:	30830004 	addik	r4, r3, 4
   11d24:	f893000c 	swi	r4, r19, 12
   11d28:	e8930010 	lwi	r4, r19, 16
   11d2c:	30a40004 	addik	r5, r4, 4
   11d30:	f8b30010 	swi	r5, r19, 16
   11d34:	e8840000 	lwi	r4, r4, 0
   11d38:	f8830000 	swi	r4, r3, 0
   11d3c:	e873000c 	lwi	r3, r19, 12
   11d40:	30830004 	addik	r4, r3, 4
   11d44:	f893000c 	swi	r4, r19, 12
   11d48:	e8930010 	lwi	r4, r19, 16
   11d4c:	30a40004 	addik	r5, r4, 4
   11d50:	f8b30010 	swi	r5, r19, 16
   11d54:	e8840000 	lwi	r4, r4, 0
   11d58:	f8830000 	swi	r4, r3, 0
   11d5c:	e873000c 	lwi	r3, r19, 12
   11d60:	30830004 	addik	r4, r3, 4
   11d64:	f893000c 	swi	r4, r19, 12
   11d68:	e8930010 	lwi	r4, r19, 16
   11d6c:	30a40004 	addik	r5, r4, 4
   11d70:	f8b30010 	swi	r5, r19, 16
   11d74:	e8840000 	lwi	r4, r4, 0
   11d78:	f8830000 	swi	r4, r3, 0
   11d7c:	e873000c 	lwi	r3, r19, 12
   11d80:	30830004 	addik	r4, r3, 4
   11d84:	f893000c 	swi	r4, r19, 12
   11d88:	e8930010 	lwi	r4, r19, 16
   11d8c:	30a40004 	addik	r5, r4, 4
   11d90:	f8b30010 	swi	r5, r19, 16
   11d94:	e8840000 	lwi	r4, r4, 0
   11d98:	f8830000 	swi	r4, r3, 0
   11d9c:	e8730024 	lwi	r3, r19, 36
   11da0:	3063fff0 	addik	r3, r3, -16
   11da4:	f8730024 	swi	r3, r19, 36
   11da8:	e8930024 	lwi	r4, r19, 36
   11dac:	3060000f 	addik	r3, r0, 15
   11db0:	16441803 	cmpu	r18, r4, r3
   11db4:	bc52ff68 	blti	r18, -152		// 11d1c
   11db8:	b8000030 	bri	48		// 11de8
   11dbc:	e873000c 	lwi	r3, r19, 12
   11dc0:	30830004 	addik	r4, r3, 4
   11dc4:	f893000c 	swi	r4, r19, 12
   11dc8:	e8930010 	lwi	r4, r19, 16
   11dcc:	30a40004 	addik	r5, r4, 4
   11dd0:	f8b30010 	swi	r5, r19, 16
   11dd4:	e8840000 	lwi	r4, r4, 0
   11dd8:	f8830000 	swi	r4, r3, 0
   11ddc:	e8730024 	lwi	r3, r19, 36
   11de0:	3063fffc 	addik	r3, r3, -4
   11de4:	f8730024 	swi	r3, r19, 36
   11de8:	e8930024 	lwi	r4, r19, 36
   11dec:	30600003 	addik	r3, r0, 3
   11df0:	16441803 	cmpu	r18, r4, r3
   11df4:	bc52ffc8 	blti	r18, -56		// 11dbc
   11df8:	e873000c 	lwi	r3, r19, 12
   11dfc:	f8730004 	swi	r3, r19, 4
   11e00:	e8730010 	lwi	r3, r19, 16
   11e04:	f8730008 	swi	r3, r19, 8
   11e08:	b8000028 	bri	40		// 11e30
   11e0c:	e8730004 	lwi	r3, r19, 4
   11e10:	30830001 	addik	r4, r3, 1
   11e14:	f8930004 	swi	r4, r19, 4
   11e18:	e8930008 	lwi	r4, r19, 8
   11e1c:	30a40001 	addik	r5, r4, 1
   11e20:	f8b30008 	swi	r5, r19, 8
   11e24:	e0840000 	lbui	r4, r4, 0
   11e28:	90840060 	sext8	r4, r4
   11e2c:	f0830000 	sbi	r4, r3, 0
   11e30:	e8730024 	lwi	r3, r19, 36
   11e34:	3083ffff 	addik	r4, r3, -1
   11e38:	f8930024 	swi	r4, r19, 36
   11e3c:	bc23ffd0 	bnei	r3, -48		// 11e0c
   11e40:	e873001c 	lwi	r3, r19, 28
   11e44:	10330000 	addk	r1, r19, r0
   11e48:	ea610014 	lwi	r19, r1, 20
   11e4c:	30210018 	addik	r1, r1, 24
   11e50:	b60f0008 	rtsd	r15, 8
   11e54:	80000000 	or	r0, r0, r0

00011e58 <memset>:
   11e58:	3021ffe4 	addik	r1, r1, -28
   11e5c:	fa610018 	swi	r19, r1, 24
   11e60:	12610000 	addk	r19, r1, r0
   11e64:	f8b30020 	swi	r5, r19, 32
   11e68:	f8d30024 	swi	r6, r19, 36
   11e6c:	f8f30028 	swi	r7, r19, 40
   11e70:	e8730020 	lwi	r3, r19, 32
   11e74:	f8730004 	swi	r3, r19, 4
   11e78:	e8730024 	lwi	r3, r19, 36
   11e7c:	a46300ff 	andi	r3, r3, 255
   11e80:	f8730014 	swi	r3, r19, 20
   11e84:	b8000038 	bri	56		// 11ebc
   11e88:	e8730028 	lwi	r3, r19, 40
   11e8c:	3083ffff 	addik	r4, r3, -1
   11e90:	f8930028 	swi	r4, r19, 40
   11e94:	bc030020 	beqi	r3, 32		// 11eb4
   11e98:	e8730004 	lwi	r3, r19, 4
   11e9c:	30830001 	addik	r4, r3, 1
   11ea0:	f8930004 	swi	r4, r19, 4
   11ea4:	e8930024 	lwi	r4, r19, 36
   11ea8:	90840060 	sext8	r4, r4
   11eac:	f0830000 	sbi	r4, r3, 0
   11eb0:	b800000c 	bri	12		// 11ebc
   11eb4:	e8730020 	lwi	r3, r19, 32
   11eb8:	b80001e4 	bri	484		// 1209c
   11ebc:	e8730004 	lwi	r3, r19, 4
   11ec0:	a4630003 	andi	r3, r3, 3
   11ec4:	bc23ffc4 	bnei	r3, -60		// 11e88
   11ec8:	e8930028 	lwi	r4, r19, 40
   11ecc:	30600003 	addik	r3, r0, 3
   11ed0:	16441803 	cmpu	r18, r4, r3
   11ed4:	bcb201b4 	bgei	r18, 436		// 12088
   11ed8:	e8730004 	lwi	r3, r19, 4
   11edc:	f8730010 	swi	r3, r19, 16
   11ee0:	e8730014 	lwi	r3, r19, 20
   11ee4:	10631800 	addk	r3, r3, r3
   11ee8:	10631800 	addk	r3, r3, r3
   11eec:	10631800 	addk	r3, r3, r3
   11ef0:	10631800 	addk	r3, r3, r3
   11ef4:	10631800 	addk	r3, r3, r3
   11ef8:	10631800 	addk	r3, r3, r3
   11efc:	10631800 	addk	r3, r3, r3
   11f00:	10631800 	addk	r3, r3, r3
   11f04:	10830000 	addk	r4, r3, r0
   11f08:	e8730014 	lwi	r3, r19, 20
   11f0c:	80641800 	or	r3, r4, r3
   11f10:	f873000c 	swi	r3, r19, 12
   11f14:	e873000c 	lwi	r3, r19, 12
   11f18:	10631800 	addk	r3, r3, r3
   11f1c:	10631800 	addk	r3, r3, r3
   11f20:	10631800 	addk	r3, r3, r3
   11f24:	10631800 	addk	r3, r3, r3
   11f28:	10631800 	addk	r3, r3, r3
   11f2c:	10631800 	addk	r3, r3, r3
   11f30:	10631800 	addk	r3, r3, r3
   11f34:	10631800 	addk	r3, r3, r3
   11f38:	10631800 	addk	r3, r3, r3
   11f3c:	10631800 	addk	r3, r3, r3
   11f40:	10631800 	addk	r3, r3, r3
   11f44:	10631800 	addk	r3, r3, r3
   11f48:	10631800 	addk	r3, r3, r3
   11f4c:	10631800 	addk	r3, r3, r3
   11f50:	10631800 	addk	r3, r3, r3
   11f54:	10631800 	addk	r3, r3, r3
   11f58:	10830000 	addk	r4, r3, r0
   11f5c:	e873000c 	lwi	r3, r19, 12
   11f60:	80632000 	or	r3, r3, r4
   11f64:	f873000c 	swi	r3, r19, 12
   11f68:	30600020 	addik	r3, r0, 32	// 20 <_vector_hw_exception>
   11f6c:	f8730008 	swi	r3, r19, 8
   11f70:	b8000040 	bri	64		// 11fb0
   11f74:	e8b3000c 	lwi	r5, r19, 12
   11f78:	e8930008 	lwi	r4, r19, 8
   11f7c:	a644001f 	andi	r18, r4, 31
   11f80:	10602800 	addk	r3, r0, r5
   11f84:	be120014 	beqid	r18, 20		// 11f98
   11f88:	10630000 	addk	r3, r3, r0
   11f8c:	3252ffff 	addik	r18, r18, -1
   11f90:	be32fffc 	bneid	r18, -4		// 11f8c
   11f94:	10631800 	addk	r3, r3, r3
   11f98:	e893000c 	lwi	r4, r19, 12
   11f9c:	80641800 	or	r3, r4, r3
   11fa0:	f873000c 	swi	r3, r19, 12
   11fa4:	e8730008 	lwi	r3, r19, 8
   11fa8:	10631800 	addk	r3, r3, r3
   11fac:	f8730008 	swi	r3, r19, 8
   11fb0:	e8930008 	lwi	r4, r19, 8
   11fb4:	3060001f 	addik	r3, r0, 31
   11fb8:	16441803 	cmpu	r18, r4, r3
   11fbc:	bcb2ffb8 	bgei	r18, -72		// 11f74
   11fc0:	b8000060 	bri	96		// 12020
   11fc4:	e8730010 	lwi	r3, r19, 16
   11fc8:	30830004 	addik	r4, r3, 4
   11fcc:	f8930010 	swi	r4, r19, 16
   11fd0:	e893000c 	lwi	r4, r19, 12
   11fd4:	f8830000 	swi	r4, r3, 0
   11fd8:	e8730010 	lwi	r3, r19, 16
   11fdc:	30830004 	addik	r4, r3, 4
   11fe0:	f8930010 	swi	r4, r19, 16
   11fe4:	e893000c 	lwi	r4, r19, 12
   11fe8:	f8830000 	swi	r4, r3, 0
   11fec:	e8730010 	lwi	r3, r19, 16
   11ff0:	30830004 	addik	r4, r3, 4
   11ff4:	f8930010 	swi	r4, r19, 16
   11ff8:	e893000c 	lwi	r4, r19, 12
   11ffc:	f8830000 	swi	r4, r3, 0
   12000:	e8730010 	lwi	r3, r19, 16
   12004:	30830004 	addik	r4, r3, 4
   12008:	f8930010 	swi	r4, r19, 16
   1200c:	e893000c 	lwi	r4, r19, 12
   12010:	f8830000 	swi	r4, r3, 0
   12014:	e8730028 	lwi	r3, r19, 40
   12018:	3063fff0 	addik	r3, r3, -16
   1201c:	f8730028 	swi	r3, r19, 40
   12020:	e8930028 	lwi	r4, r19, 40
   12024:	3060000f 	addik	r3, r0, 15
   12028:	16441803 	cmpu	r18, r4, r3
   1202c:	bc52ff98 	blti	r18, -104		// 11fc4
   12030:	b8000024 	bri	36		// 12054
   12034:	e8730010 	lwi	r3, r19, 16
   12038:	30830004 	addik	r4, r3, 4
   1203c:	f8930010 	swi	r4, r19, 16
   12040:	e893000c 	lwi	r4, r19, 12
   12044:	f8830000 	swi	r4, r3, 0
   12048:	e8730028 	lwi	r3, r19, 40
   1204c:	3063fffc 	addik	r3, r3, -4
   12050:	f8730028 	swi	r3, r19, 40
   12054:	e8930028 	lwi	r4, r19, 40
   12058:	30600003 	addik	r3, r0, 3
   1205c:	16441803 	cmpu	r18, r4, r3
   12060:	bc52ffd4 	blti	r18, -44		// 12034
   12064:	e8730010 	lwi	r3, r19, 16
   12068:	f8730004 	swi	r3, r19, 4
   1206c:	b800001c 	bri	28		// 12088
   12070:	e8730004 	lwi	r3, r19, 4
   12074:	30830001 	addik	r4, r3, 1
   12078:	f8930004 	swi	r4, r19, 4
   1207c:	e8930024 	lwi	r4, r19, 36
   12080:	90840060 	sext8	r4, r4
   12084:	f0830000 	sbi	r4, r3, 0
   12088:	e8730028 	lwi	r3, r19, 40
   1208c:	3083ffff 	addik	r4, r3, -1
   12090:	f8930028 	swi	r4, r19, 40
   12094:	bc23ffdc 	bnei	r3, -36		// 12070
   12098:	e8730020 	lwi	r3, r19, 32
   1209c:	10330000 	addk	r1, r19, r0
   120a0:	ea610018 	lwi	r19, r1, 24
   120a4:	3021001c 	addik	r1, r1, 28
   120a8:	b60f0008 	rtsd	r15, 8
   120ac:	80000000 	or	r0, r0, r0

000120b0 <strlen>:
   120b0:	3021fff0 	addik	r1, r1, -16
   120b4:	fa61000c 	swi	r19, r1, 12
   120b8:	12610000 	addk	r19, r1, r0
   120bc:	f8b30014 	swi	r5, r19, 20
   120c0:	e8730014 	lwi	r3, r19, 20
   120c4:	f8730008 	swi	r3, r19, 8
   120c8:	e8730014 	lwi	r3, r19, 20
   120cc:	a4630003 	andi	r3, r3, 3
   120d0:	bc230060 	bnei	r3, 96		// 12130
   120d4:	e8730014 	lwi	r3, r19, 20
   120d8:	f8730004 	swi	r3, r19, 4
   120dc:	b8000010 	bri	16		// 120ec
   120e0:	e8730004 	lwi	r3, r19, 4
   120e4:	30630004 	addik	r3, r3, 4
   120e8:	f8730004 	swi	r3, r19, 4
   120ec:	e8730004 	lwi	r3, r19, 4
   120f0:	e8630000 	lwi	r3, r3, 0
   120f4:	b000fefe 	imm	-258
   120f8:	3083feff 	addik	r4, r3, -257
   120fc:	e8730004 	lwi	r3, r19, 4
   12100:	e8630000 	lwi	r3, r3, 0
   12104:	a863ffff 	xori	r3, r3, -1
   12108:	84641800 	and	r3, r4, r3
   1210c:	b0008080 	imm	-32640
   12110:	a4638080 	andi	r3, r3, -32640
   12114:	bc03ffcc 	beqi	r3, -52		// 120e0
   12118:	e8730004 	lwi	r3, r19, 4
   1211c:	f8730014 	swi	r3, r19, 20
   12120:	b8000010 	bri	16		// 12130
   12124:	e8730014 	lwi	r3, r19, 20
   12128:	30630001 	addik	r3, r3, 1
   1212c:	f8730014 	swi	r3, r19, 20
   12130:	e8730014 	lwi	r3, r19, 20
   12134:	e0630000 	lbui	r3, r3, 0
   12138:	90630060 	sext8	r3, r3
   1213c:	bc23ffe8 	bnei	r3, -24		// 12124
   12140:	e8930014 	lwi	r4, r19, 20
   12144:	e8730008 	lwi	r3, r19, 8
   12148:	14632000 	rsubk	r3, r3, r4
   1214c:	10330000 	addk	r1, r19, r0
   12150:	ea61000c 	lwi	r19, r1, 12
   12154:	30210010 	addik	r1, r1, 16
   12158:	b60f0008 	rtsd	r15, 8
   1215c:	80000000 	or	r0, r0, r0

00012160 <strncmp>:
   12160:	3021fff0 	addik	r1, r1, -16
   12164:	fa61000c 	swi	r19, r1, 12
   12168:	12610000 	addk	r19, r1, r0
   1216c:	f8b30014 	swi	r5, r19, 20
   12170:	f8d30018 	swi	r6, r19, 24
   12174:	f8f3001c 	swi	r7, r19, 28
   12178:	e873001c 	lwi	r3, r19, 28
   1217c:	bc23000c 	bnei	r3, 12		// 12188
   12180:	10600000 	addk	r3, r0, r0
   12184:	b8000148 	bri	328		// 122cc
   12188:	e8930014 	lwi	r4, r19, 20
   1218c:	e8730018 	lwi	r3, r19, 24
   12190:	80641800 	or	r3, r4, r3
   12194:	a4630003 	andi	r3, r3, 3
   12198:	bc2300ec 	bnei	r3, 236		// 12284
   1219c:	e8730014 	lwi	r3, r19, 20
   121a0:	f8730004 	swi	r3, r19, 4
   121a4:	e8730018 	lwi	r3, r19, 24
   121a8:	f8730008 	swi	r3, r19, 8
   121ac:	b8000064 	bri	100		// 12210
   121b0:	e873001c 	lwi	r3, r19, 28
   121b4:	3063fffc 	addik	r3, r3, -4
   121b8:	f873001c 	swi	r3, r19, 28
   121bc:	e873001c 	lwi	r3, r19, 28
   121c0:	bc030030 	beqi	r3, 48		// 121f0
   121c4:	e8730004 	lwi	r3, r19, 4
   121c8:	e8630000 	lwi	r3, r3, 0
   121cc:	b000fefe 	imm	-258
   121d0:	3083feff 	addik	r4, r3, -257
   121d4:	e8730004 	lwi	r3, r19, 4
   121d8:	e8630000 	lwi	r3, r3, 0
   121dc:	a863ffff 	xori	r3, r3, -1
   121e0:	84641800 	and	r3, r4, r3
   121e4:	b0008080 	imm	-32640
   121e8:	a4638080 	andi	r3, r3, -32640
   121ec:	bc03000c 	beqi	r3, 12		// 121f8
   121f0:	10600000 	addk	r3, r0, r0
   121f4:	b80000d8 	bri	216		// 122cc
   121f8:	e8730004 	lwi	r3, r19, 4
   121fc:	30630004 	addik	r3, r3, 4
   12200:	f8730004 	swi	r3, r19, 4
   12204:	e8730008 	lwi	r3, r19, 8
   12208:	30630004 	addik	r3, r3, 4
   1220c:	f8730008 	swi	r3, r19, 8
   12210:	e893001c 	lwi	r4, r19, 28
   12214:	30600003 	addik	r3, r0, 3
   12218:	16441803 	cmpu	r18, r4, r3
   1221c:	bcb2001c 	bgei	r18, 28		// 12238
   12220:	e8730004 	lwi	r3, r19, 4
   12224:	e8830000 	lwi	r4, r3, 0
   12228:	e8730008 	lwi	r3, r19, 8
   1222c:	e8630000 	lwi	r3, r3, 0
   12230:	88641800 	xor	r3, r4, r3
   12234:	bc03ff7c 	beqi	r3, -132		// 121b0
   12238:	e8730004 	lwi	r3, r19, 4
   1223c:	f8730014 	swi	r3, r19, 20
   12240:	e8730008 	lwi	r3, r19, 8
   12244:	f8730018 	swi	r3, r19, 24
   12248:	b800003c 	bri	60		// 12284
   1224c:	e873001c 	lwi	r3, r19, 28
   12250:	bc030014 	beqi	r3, 20		// 12264
   12254:	e8730014 	lwi	r3, r19, 20
   12258:	e0630000 	lbui	r3, r3, 0
   1225c:	90630060 	sext8	r3, r3
   12260:	bc23000c 	bnei	r3, 12		// 1226c
   12264:	10600000 	addk	r3, r0, r0
   12268:	b8000064 	bri	100		// 122cc
   1226c:	e8730014 	lwi	r3, r19, 20
   12270:	30630001 	addik	r3, r3, 1
   12274:	f8730014 	swi	r3, r19, 20
   12278:	e8730018 	lwi	r3, r19, 24
   1227c:	30630001 	addik	r3, r3, 1
   12280:	f8730018 	swi	r3, r19, 24
   12284:	e873001c 	lwi	r3, r19, 28
   12288:	3083ffff 	addik	r4, r3, -1
   1228c:	f893001c 	swi	r4, r19, 28
   12290:	bc030024 	beqi	r3, 36		// 122b4
   12294:	e8730014 	lwi	r3, r19, 20
   12298:	e0630000 	lbui	r3, r3, 0
   1229c:	90830060 	sext8	r4, r3
   122a0:	e8730018 	lwi	r3, r19, 24
   122a4:	e0630000 	lbui	r3, r3, 0
   122a8:	90630060 	sext8	r3, r3
   122ac:	88641800 	xor	r3, r4, r3
   122b0:	bc03ff9c 	beqi	r3, -100		// 1224c
   122b4:	e8730014 	lwi	r3, r19, 20
   122b8:	e0630000 	lbui	r3, r3, 0
   122bc:	10830000 	addk	r4, r3, r0
   122c0:	e8730018 	lwi	r3, r19, 24
   122c4:	e0630000 	lbui	r3, r3, 0
   122c8:	14632000 	rsubk	r3, r3, r4
   122cc:	10330000 	addk	r1, r19, r0
   122d0:	ea61000c 	lwi	r19, r1, 12
   122d4:	30210010 	addik	r1, r1, 16
   122d8:	b60f0008 	rtsd	r15, 8
   122dc:	80000000 	or	r0, r0, r0

000122e0 <strncpy>:
   122e0:	3021ffe8 	addik	r1, r1, -24
   122e4:	fa610014 	swi	r19, r1, 20
   122e8:	12610000 	addk	r19, r1, r0
   122ec:	f8b3001c 	swi	r5, r19, 28
   122f0:	f8d30020 	swi	r6, r19, 32
   122f4:	f8f30024 	swi	r7, r19, 36
   122f8:	e873001c 	lwi	r3, r19, 28
   122fc:	f8730004 	swi	r3, r19, 4
   12300:	e8730020 	lwi	r3, r19, 32
   12304:	f8730008 	swi	r3, r19, 8
   12308:	e8930008 	lwi	r4, r19, 8
   1230c:	e8730004 	lwi	r3, r19, 4
   12310:	80641800 	or	r3, r4, r3
   12314:	a4630003 	andi	r3, r3, 3
   12318:	bc2300e0 	bnei	r3, 224		// 123f8
   1231c:	e8930024 	lwi	r4, r19, 36
   12320:	30600003 	addik	r3, r0, 3
   12324:	16441803 	cmpu	r18, r4, r3
   12328:	bcb200d0 	bgei	r18, 208		// 123f8
   1232c:	e8730004 	lwi	r3, r19, 4
   12330:	f873000c 	swi	r3, r19, 12
   12334:	e8730008 	lwi	r3, r19, 8
   12338:	f8730010 	swi	r3, r19, 16
   1233c:	b8000030 	bri	48		// 1236c
   12340:	e8730024 	lwi	r3, r19, 36
   12344:	3063fffc 	addik	r3, r3, -4
   12348:	f8730024 	swi	r3, r19, 36
   1234c:	e873000c 	lwi	r3, r19, 12
   12350:	30830004 	addik	r4, r3, 4
   12354:	f893000c 	swi	r4, r19, 12
   12358:	e8930010 	lwi	r4, r19, 16
   1235c:	30a40004 	addik	r5, r4, 4
   12360:	f8b30010 	swi	r5, r19, 16
   12364:	e8840000 	lwi	r4, r4, 0
   12368:	f8830000 	swi	r4, r3, 0
   1236c:	e8930024 	lwi	r4, r19, 36
   12370:	30600003 	addik	r3, r0, 3
   12374:	16441803 	cmpu	r18, r4, r3
   12378:	bcb20030 	bgei	r18, 48		// 123a8
   1237c:	e8730010 	lwi	r3, r19, 16
   12380:	e8630000 	lwi	r3, r3, 0
   12384:	b000fefe 	imm	-258
   12388:	3083feff 	addik	r4, r3, -257
   1238c:	e8730010 	lwi	r3, r19, 16
   12390:	e8630000 	lwi	r3, r3, 0
   12394:	a863ffff 	xori	r3, r3, -1
   12398:	84641800 	and	r3, r4, r3
   1239c:	b0008080 	imm	-32640
   123a0:	a4638080 	andi	r3, r3, -32640
   123a4:	bc03ff9c 	beqi	r3, -100		// 12340
   123a8:	e873000c 	lwi	r3, r19, 12
   123ac:	f8730004 	swi	r3, r19, 4
   123b0:	e8730010 	lwi	r3, r19, 16
   123b4:	f8730008 	swi	r3, r19, 8
   123b8:	b8000040 	bri	64		// 123f8
   123bc:	e8730024 	lwi	r3, r19, 36
   123c0:	3063ffff 	addik	r3, r3, -1
   123c4:	f8730024 	swi	r3, r19, 36
   123c8:	e8730004 	lwi	r3, r19, 4
   123cc:	30830001 	addik	r4, r3, 1
   123d0:	f8930004 	swi	r4, r19, 4
   123d4:	e8930008 	lwi	r4, r19, 8
   123d8:	30a40001 	addik	r5, r4, 1
   123dc:	f8b30008 	swi	r5, r19, 8
   123e0:	e0840000 	lbui	r4, r4, 0
   123e4:	90840060 	sext8	r4, r4
   123e8:	f0830000 	sbi	r4, r3, 0
   123ec:	e0630000 	lbui	r3, r3, 0
   123f0:	90630060 	sext8	r3, r3
   123f4:	bc030010 	beqi	r3, 16		// 12404
   123f8:	e8730024 	lwi	r3, r19, 36
   123fc:	bc23ffc0 	bnei	r3, -64		// 123bc
   12400:	b800001c 	bri	28		// 1241c
   12404:	80000000 	or	r0, r0, r0
   12408:	b8000014 	bri	20		// 1241c
   1240c:	e8730004 	lwi	r3, r19, 4
   12410:	30830001 	addik	r4, r3, 1
   12414:	f8930004 	swi	r4, r19, 4
   12418:	f0030000 	sbi	r0, r3, 0
   1241c:	e8730024 	lwi	r3, r19, 36
   12420:	3083ffff 	addik	r4, r3, -1
   12424:	f8930024 	swi	r4, r19, 36
   12428:	bc23ffe4 	bnei	r3, -28		// 1240c
   1242c:	e873001c 	lwi	r3, r19, 28
   12430:	10330000 	addk	r1, r19, r0
   12434:	ea610014 	lwi	r19, r1, 20
   12438:	30210018 	addik	r1, r1, 24
   1243c:	b60f0008 	rtsd	r15, 8
   12440:	80000000 	or	r0, r0, r0

00012444 <__call_exitprocs>:
   12444:	3021ffc4 	addik	r1, r1, -60
   12448:	f9e10000 	swi	r15, r1, 0
   1244c:	fa61002c 	swi	r19, r1, 44
   12450:	fac10030 	swi	r22, r1, 48
   12454:	fae10034 	swi	r23, r1, 52
   12458:	fb010038 	swi	r24, r1, 56
   1245c:	12610000 	addk	r19, r1, r0
   12460:	f8b30040 	swi	r5, r19, 64
   12464:	f8d30044 	swi	r6, r19, 68
   12468:	b0000001 	imm	1
   1246c:	e8606a70 	lwi	r3, r0, 27248	// 16a70 <_global_impure_ptr>
   12470:	eac30048 	lwi	r22, r3, 72
   12474:	b0000001 	imm	1
   12478:	e8606a70 	lwi	r3, r0, 27248	// 16a70 <_global_impure_ptr>
   1247c:	30630048 	addik	r3, r3, 72
   12480:	f873001c 	swi	r3, r19, 28
   12484:	b80001d4 	bri	468		// 12658
   12488:	eb160088 	lwi	r24, r22, 136
   1248c:	e8760004 	lwi	r3, r22, 4
   12490:	32e3ffff 	addik	r23, r3, -1
   12494:	b8000160 	bri	352		// 125f4
   12498:	30800001 	addik	r4, r0, 1
   1249c:	a657001f 	andi	r18, r23, 31
   124a0:	10602000 	addk	r3, r0, r4
   124a4:	be120014 	beqid	r18, 20		// 124b8
   124a8:	10630000 	addk	r3, r3, r0
   124ac:	3252ffff 	addik	r18, r18, -1
   124b0:	be32fffc 	bneid	r18, -4		// 124ac
   124b4:	10631800 	addk	r3, r3, r3
   124b8:	f8730020 	swi	r3, r19, 32
   124bc:	e8730044 	lwi	r3, r19, 68
   124c0:	bc030028 	beqi	r3, 40		// 124e8
   124c4:	bc180120 	beqi	r24, 288		// 125e4
   124c8:	30770020 	addik	r3, r23, 32
   124cc:	10631800 	addk	r3, r3, r3
   124d0:	10631800 	addk	r3, r3, r3
   124d4:	10781800 	addk	r3, r24, r3
   124d8:	e8830000 	lwi	r4, r3, 0
   124dc:	e8730044 	lwi	r3, r19, 68
   124e0:	88641800 	xor	r3, r4, r3
   124e4:	bc230100 	bnei	r3, 256		// 125e4
   124e8:	30770002 	addik	r3, r23, 2
   124ec:	10631800 	addk	r3, r3, r3
   124f0:	10631800 	addk	r3, r3, r3
   124f4:	10761800 	addk	r3, r22, r3
   124f8:	e8630000 	lwi	r3, r3, 0
   124fc:	f8730024 	swi	r3, r19, 36
   12500:	e8760004 	lwi	r3, r22, 4
   12504:	3063ffff 	addik	r3, r3, -1
   12508:	8863b800 	xor	r3, r3, r23
   1250c:	bc230014 	bnei	r3, 20		// 12520
   12510:	e8760004 	lwi	r3, r22, 4
   12514:	3063ffff 	addik	r3, r3, -1
   12518:	f8760004 	swi	r3, r22, 4
   1251c:	b8000018 	bri	24		// 12534
   12520:	30770002 	addik	r3, r23, 2
   12524:	10631800 	addk	r3, r3, r3
   12528:	10631800 	addk	r3, r3, r3
   1252c:	10761800 	addk	r3, r22, r3
   12530:	f8030000 	swi	r0, r3, 0
   12534:	e8730024 	lwi	r3, r19, 36
   12538:	bc0300b4 	beqi	r3, 180		// 125ec
   1253c:	e8760004 	lwi	r3, r22, 4
   12540:	f8730028 	swi	r3, r19, 40
   12544:	bc180014 	beqi	r24, 20		// 12558
   12548:	e8980100 	lwi	r4, r24, 256
   1254c:	e8730020 	lwi	r3, r19, 32
   12550:	84641800 	and	r3, r4, r3
   12554:	bc230014 	bnei	r3, 20		// 12568
   12558:	e8730024 	lwi	r3, r19, 36
   1255c:	99fc1800 	brald	r15, r3
   12560:	80000000 	or	r0, r0, r0
   12564:	b800005c 	bri	92		// 125c0
   12568:	e8980104 	lwi	r4, r24, 260
   1256c:	e8730020 	lwi	r3, r19, 32
   12570:	84641800 	and	r3, r4, r3
   12574:	bc23002c 	bnei	r3, 44		// 125a0
   12578:	1077b800 	addk	r3, r23, r23
   1257c:	10631800 	addk	r3, r3, r3
   12580:	10781800 	addk	r3, r24, r3
   12584:	e8830000 	lwi	r4, r3, 0
   12588:	e8730024 	lwi	r3, r19, 36
   1258c:	10c40000 	addk	r6, r4, r0
   12590:	e8b30040 	lwi	r5, r19, 64
   12594:	99fc1800 	brald	r15, r3
   12598:	80000000 	or	r0, r0, r0
   1259c:	b8000024 	bri	36		// 125c0
   125a0:	1077b800 	addk	r3, r23, r23
   125a4:	10631800 	addk	r3, r3, r3
   125a8:	10781800 	addk	r3, r24, r3
   125ac:	e8830000 	lwi	r4, r3, 0
   125b0:	e8730024 	lwi	r3, r19, 36
   125b4:	10a40000 	addk	r5, r4, r0
   125b8:	99fc1800 	brald	r15, r3
   125bc:	80000000 	or	r0, r0, r0
   125c0:	e8960004 	lwi	r4, r22, 4
   125c4:	e8730028 	lwi	r3, r19, 40
   125c8:	88641800 	xor	r3, r4, r3
   125cc:	bc23fe9c 	bnei	r3, -356		// 12468
   125d0:	e873001c 	lwi	r3, r19, 28
   125d4:	e8630000 	lwi	r3, r3, 0
   125d8:	8863b000 	xor	r3, r3, r22
   125dc:	bc23fe8c 	bnei	r3, -372		// 12468
   125e0:	b8000010 	bri	16		// 125f0
   125e4:	80000000 	or	r0, r0, r0
   125e8:	b8000008 	bri	8		// 125f0
   125ec:	80000000 	or	r0, r0, r0
   125f0:	32f7ffff 	addik	r23, r23, -1
   125f4:	bcb7fea4 	bgei	r23, -348		// 12498
   125f8:	b0000000 	imm	0
   125fc:	30600000 	addik	r3, r0, 0
   12600:	bc030060 	beqi	r3, 96		// 12660
   12604:	e8760004 	lwi	r3, r22, 4
   12608:	bc230048 	bnei	r3, 72		// 12650
   1260c:	e8760000 	lwi	r3, r22, 0
   12610:	bc030040 	beqi	r3, 64		// 12650
   12614:	e8960000 	lwi	r4, r22, 0
   12618:	e873001c 	lwi	r3, r19, 28
   1261c:	f8830000 	swi	r4, r3, 0
   12620:	bc180014 	beqi	r24, 20		// 12634
   12624:	10b80000 	addk	r5, r24, r0
   12628:	b000fffe 	imm	-2
   1262c:	b9f4d9d4 	brlid	r15, -9772	// 0 <_start>
   12630:	80000000 	or	r0, r0, r0
   12634:	10b60000 	addk	r5, r22, r0
   12638:	b000fffe 	imm	-2
   1263c:	b9f4d9c4 	brlid	r15, -9788	// 0 <_start>
   12640:	80000000 	or	r0, r0, r0
   12644:	e873001c 	lwi	r3, r19, 28
   12648:	eac30000 	lwi	r22, r3, 0
   1264c:	b800000c 	bri	12		// 12658
   12650:	fad3001c 	swi	r22, r19, 28
   12654:	ead60000 	lwi	r22, r22, 0
   12658:	bc36fe30 	bnei	r22, -464		// 12488
   1265c:	b8000008 	bri	8		// 12664
   12660:	80000000 	or	r0, r0, r0
   12664:	80000000 	or	r0, r0, r0
   12668:	e9e10000 	lwi	r15, r1, 0
   1266c:	10330000 	addk	r1, r19, r0
   12670:	ea61002c 	lwi	r19, r1, 44
   12674:	eac10030 	lwi	r22, r1, 48
   12678:	eae10034 	lwi	r23, r1, 52
   1267c:	eb010038 	lwi	r24, r1, 56
   12680:	3021003c 	addik	r1, r1, 60
   12684:	b60f0008 	rtsd	r15, 8
   12688:	80000000 	or	r0, r0, r0

0001268c <_exception_handler>:
   1268c:	98085800 	bra	r11

00012690 <_program_clean>:
   12690:	b60f0008 	rtsd	r15, 8
   12694:	80000000 	or	r0, r0, r0

00012698 <_program_init>:
   12698:	b60f0008 	rtsd	r15, 8
   1269c:	80000000 	or	r0, r0, r0

000126a0 <__do_global_ctors_aux>:
   126a0:	b0000001 	imm	1
   126a4:	e8605738 	lwi	r3, r0, 22328	// 15738 <__CTOR_LIST__>
   126a8:	a883ffff 	xori	r4, r3, -1
   126ac:	bc04003c 	beqi	r4, 60		// 126e8
   126b0:	3021fff8 	addik	r1, r1, -8
   126b4:	fa610004 	swi	r19, r1, 4
   126b8:	b0000001 	imm	1
   126bc:	32605738 	addik	r19, r0, 22328	// 15738 <__CTOR_LIST__>
   126c0:	f9e10000 	swi	r15, r1, 0
   126c4:	99fc1800 	brald	r15, r3
   126c8:	3273fffc 	addik	r19, r19, -4
   126cc:	e8730000 	lwi	r3, r19, 0
   126d0:	a883ffff 	xori	r4, r3, -1
   126d4:	be24fff0 	bneid	r4, -16		// 126c4
   126d8:	e9e10000 	lwi	r15, r1, 0
   126dc:	ea610004 	lwi	r19, r1, 4
   126e0:	b60f0008 	rtsd	r15, 8
   126e4:	30210008 	addik	r1, r1, 8
   126e8:	b60f0008 	rtsd	r15, 8
   126ec:	80000000 	or	r0, r0, r0

000126f0 <__interrupt_handler>:
   126f0:	3021ffac 	addik	r1, r1, -84
   126f4:	f9e10000 	swi	r15, r1, 0
   126f8:	f8210020 	swi	r1, r1, 32
   126fc:	f8610024 	swi	r3, r1, 36
   12700:	f8810028 	swi	r4, r1, 40
   12704:	f8a1002c 	swi	r5, r1, 44
   12708:	f8c10030 	swi	r6, r1, 48
   1270c:	f8e10034 	swi	r7, r1, 52
   12710:	f9010038 	swi	r8, r1, 56
   12714:	f921003c 	swi	r9, r1, 60
   12718:	f9410040 	swi	r10, r1, 64
   1271c:	b0000001 	imm	1
   12720:	30605698 	addik	r3, r0, 22168	// 15698 <MB_InterruptVectorTable>
   12724:	f9610044 	swi	r11, r1, 68
   12728:	f9810048 	swi	r12, r1, 72
   1272c:	fa21004c 	swi	r17, r1, 76
   12730:	95608001 	mfs	r11, rmsr
   12734:	e8830000 	lwi	r4, r3, 0
   12738:	e8a30004 	lwi	r5, r3, 4
   1273c:	fa410050 	swi	r18, r1, 80
   12740:	f961001c 	swi	r11, r1, 28
   12744:	99fc2000 	brald	r15, r4
   12748:	80000000 	or	r0, r0, r0
   1274c:	e9e10000 	lwi	r15, r1, 0
   12750:	e961001c 	lwi	r11, r1, 28
   12754:	e8210020 	lwi	r1, r1, 32
   12758:	940bc001 	mts	rmsr, r11
   1275c:	e8610024 	lwi	r3, r1, 36
   12760:	e8810028 	lwi	r4, r1, 40
   12764:	e8a1002c 	lwi	r5, r1, 44
   12768:	e8c10030 	lwi	r6, r1, 48
   1276c:	e8e10034 	lwi	r7, r1, 52
   12770:	e9010038 	lwi	r8, r1, 56
   12774:	e921003c 	lwi	r9, r1, 60
   12778:	e9410040 	lwi	r10, r1, 64
   1277c:	e9610044 	lwi	r11, r1, 68
   12780:	e9810048 	lwi	r12, r1, 72
   12784:	ea21004c 	lwi	r17, r1, 76
   12788:	ea410050 	lwi	r18, r1, 80
   1278c:	b62e0000 	rtid	r14, 0
   12790:	30210054 	addik	r1, r1, 84

00012794 <microblaze_register_handler>:
   12794:	b0000001 	imm	1
   12798:	30605698 	addik	r3, r0, 22168	// 15698 <MB_InterruptVectorTable>
   1279c:	f8a30000 	swi	r5, r3, 0
   127a0:	b60f0008 	rtsd	r15, 8
   127a4:	f8c30004 	swi	r6, r3, 4

000127a8 <usleep>:
   127a8:	30600019 	addik	r3, r0, 25
   127ac:	30a5ffff 	addik	r5, r5, -1
   127b0:	00e01800 	add	r7, r0, r3
   127b4:	30e7ffff 	addik	r7, r7, -1
   127b8:	be27fffc 	bneid	r7, -4		// 127b4
   127bc:	80000000 	or	r0, r0, r0
   127c0:	be25ffec 	bneid	r5, -20		// 127ac
   127c4:	80000000 	or	r0, r0, r0
   127c8:	b60f0008 	rtsd	r15, 8
   127cc:	10600000 	addk	r3, r0, r0

000127d0 <sleep>:
   127d0:	b000017d 	imm	381
   127d4:	30607840 	addik	r3, r0, 30784
   127d8:	30a5ffff 	addik	r5, r5, -1
   127dc:	00e01800 	add	r7, r0, r3
   127e0:	30e7ffff 	addik	r7, r7, -1
   127e4:	be27fffc 	bneid	r7, -4		// 127e0
   127e8:	80000000 	or	r0, r0, r0
   127ec:	be25ffec 	bneid	r5, -20		// 127d8
   127f0:	80000000 	or	r0, r0, r0
   127f4:	b60f0008 	rtsd	r15, 8
   127f8:	10600000 	addk	r3, r0, r0

000127fc <MB_Sleep>:
   127fc:	306061a8 	addik	r3, r0, 25000
   12800:	30a5ffff 	addik	r5, r5, -1
   12804:	00e01800 	add	r7, r0, r3
   12808:	30e7ffff 	addik	r7, r7, -1
   1280c:	be27fffc 	bneid	r7, -4		// 12808
   12810:	80000000 	or	r0, r0, r0
   12814:	be25ffec 	bneid	r5, -20		// 12800
   12818:	80000000 	or	r0, r0, r0
   1281c:	b60f0008 	rtsd	r15, 8
   12820:	80000000 	or	r0, r0, r0

00012824 <Xil_DCacheDisable>:
   12824:	3021fffc 	addik	r1, r1, -4
   12828:	f9e10000 	swi	r15, r1, 0
   1282c:	b000ffff 	imm	-1
   12830:	b9f4ef40 	brlid	r15, -4288	// 11770 <microblaze_flush_cache_ext>
   12834:	80000000 	or	r0, r0, r0
   12838:	b000ffff 	imm	-1
   1283c:	b9f4ef44 	brlid	r15, -4284	// 11780 <microblaze_invalidate_dcache>
   12840:	80000000 	or	r0, r0, r0
   12844:	b000ffff 	imm	-1
   12848:	b9f4ef30 	brlid	r15, -4304	// 11778 <microblaze_invalidate_cache_ext>
   1284c:	80000000 	or	r0, r0, r0
   12850:	b000ffff 	imm	-1
   12854:	b9f4ef2c 	brlid	r15, -4308	// 11780 <microblaze_invalidate_dcache>
   12858:	80000000 	or	r0, r0, r0
   1285c:	b000ffff 	imm	-1
   12860:	b9f4eed0 	brlid	r15, -4400	// 11730 <microblaze_disable_dcache>
   12864:	80000000 	or	r0, r0, r0
   12868:	e9e10000 	lwi	r15, r1, 0
   1286c:	b60f0008 	rtsd	r15, 8
   12870:	30210004 	addik	r1, r1, 4

00012874 <Xil_ICacheDisable>:
   12874:	3021fffc 	addik	r1, r1, -4
   12878:	f9e10000 	swi	r15, r1, 0
   1287c:	b000ffff 	imm	-1
   12880:	b9f4eef8 	brlid	r15, -4360	// 11778 <microblaze_invalidate_cache_ext>
   12884:	80000000 	or	r0, r0, r0
   12888:	b000ffff 	imm	-1
   1288c:	b9f4eefc 	brlid	r15, -4356	// 11788 <microblaze_invalidate_icache>
   12890:	80000000 	or	r0, r0, r0
   12894:	b000ffff 	imm	-1
   12898:	b9f4eeb0 	brlid	r15, -4432	// 11748 <microblaze_disable_icache>
   1289c:	80000000 	or	r0, r0, r0
   128a0:	e9e10000 	lwi	r15, r1, 0
   128a4:	b60f0008 	rtsd	r15, 8
   128a8:	30210004 	addik	r1, r1, 4

000128ac <Xil_ExceptionNullHandler>:
   128ac:	b60f0008 	rtsd	r15, 8
   128b0:	80000000 	or	r0, r0, r0

000128b4 <Xil_ExceptionInit>:
   128b4:	b60f0008 	rtsd	r15, 8
   128b8:	80000000 	or	r0, r0, r0

000128bc <Xil_ExceptionEnable>:
   128bc:	3021fffc 	addik	r1, r1, -4
   128c0:	f9e10000 	swi	r15, r1, 0
   128c4:	b000ffff 	imm	-1
   128c8:	b9f4ee54 	brlid	r15, -4524	// 1171c <microblaze_enable_interrupts>
   128cc:	80000000 	or	r0, r0, r0
   128d0:	e9e10000 	lwi	r15, r1, 0
   128d4:	b60f0008 	rtsd	r15, 8
   128d8:	30210004 	addik	r1, r1, 4

000128dc <Xil_ExceptionDisable>:
   128dc:	3021fffc 	addik	r1, r1, -4
   128e0:	f9e10000 	swi	r15, r1, 0
   128e4:	b000ffff 	imm	-1
   128e8:	b9f4ee74 	brlid	r15, -4492	// 1175c <microblaze_disable_interrupts>
   128ec:	80000000 	or	r0, r0, r0
   128f0:	e9e10000 	lwi	r15, r1, 0
   128f4:	b60f0008 	rtsd	r15, 8
   128f8:	30210004 	addik	r1, r1, 4

000128fc <Xil_ExceptionRegisterHandler>:
   128fc:	a8a50010 	xori	r5, r5, 16
   12900:	bc05000c 	beqi	r5, 12		// 1290c
   12904:	b60f0008 	rtsd	r15, 8
   12908:	80000000 	or	r0, r0, r0
   1290c:	b0000001 	imm	1
   12910:	f8c05698 	swi	r6, r0, 22168	// 15698 <MB_InterruptVectorTable>
   12914:	b0000001 	imm	1
   12918:	f8e0569c 	swi	r7, r0, 22172
   1291c:	b60f0008 	rtsd	r15, 8
   12920:	80000000 	or	r0, r0, r0

00012924 <Xil_ExceptionRemoveHandler>:
   12924:	a8a50010 	xori	r5, r5, 16
   12928:	bc05000c 	beqi	r5, 12		// 12934
   1292c:	b60f0008 	rtsd	r15, 8
   12930:	80000000 	or	r0, r0, r0
   12934:	b0000001 	imm	1
   12938:	306028ac 	addik	r3, r0, 10412	// 128ac <Xil_ExceptionNullHandler>
   1293c:	b0000001 	imm	1
   12940:	f8a0569c 	swi	r5, r0, 22172
   12944:	b0000001 	imm	1
   12948:	f8605698 	swi	r3, r0, 22168	// 15698 <MB_InterruptVectorTable>
   1294c:	b60f0008 	rtsd	r15, 8
   12950:	80000000 	or	r0, r0, r0

00012954 <Xil_MemCpy>:
   12954:	31200003 	addik	r9, r0, 3
   12958:	16474803 	cmpu	r18, r7, r9
   1295c:	beb20044 	bgeid	r18, 68		// 129a0
   12960:	10670000 	addk	r3, r7, r0
   12964:	11060000 	addk	r8, r6, r0
   12968:	10850000 	addk	r4, r5, r0
   1296c:	e9480000 	lwi	r10, r8, 0
   12970:	3063fffc 	addik	r3, r3, -4
   12974:	30840004 	addik	r4, r4, 4
   12978:	f944fffc 	swi	r10, r4, -4
   1297c:	16434803 	cmpu	r18, r3, r9
   12980:	be52ffec 	bltid	r18, -20		// 1296c
   12984:	31080004 	addik	r8, r8, 4
   12988:	3067fffc 	addik	r3, r7, -4
   1298c:	a463fffc 	andi	r3, r3, -4
   12990:	30630004 	addik	r3, r3, 4
   12994:	10a51800 	addk	r5, r5, r3
   12998:	10c61800 	addk	r6, r6, r3
   1299c:	a4e70003 	andi	r7, r7, 3
   129a0:	bc07001c 	beqi	r7, 28		// 129bc
   129a4:	e0660000 	lbui	r3, r6, 0
   129a8:	30e7ffff 	addik	r7, r7, -1
   129ac:	30a50001 	addik	r5, r5, 1
   129b0:	f065ffff 	sbi	r3, r5, -1
   129b4:	be27fff0 	bneid	r7, -16		// 129a4
   129b8:	30c60001 	addik	r6, r6, 1
   129bc:	b60f0008 	rtsd	r15, 8
   129c0:	80000000 	or	r0, r0, r0

000129c4 <getnum>:
   129c4:	e9050000 	lwi	r8, r5, 0
   129c8:	be080070 	beqid	r8, 112		// 12a38
   129cc:	10680000 	addk	r3, r8, r0
   129d0:	e0680000 	lbui	r3, r8, 0
   129d4:	b0000001 	imm	1
   129d8:	e920559c 	lwi	r9, r0, 21916	// 1559c <__ctype_ptr__>
   129dc:	90630060 	sext8	r3, r3
   129e0:	10691800 	addk	r3, r9, r3
   129e4:	e0630001 	lbui	r3, r3, 1
   129e8:	a4630004 	andi	r3, r3, 4
   129ec:	bc030044 	beqi	r3, 68		// 12a30
   129f0:	10600000 	addk	r3, r0, r0
   129f4:	e0c80000 	lbui	r6, r8, 0
   129f8:	31080001 	addik	r8, r8, 1
   129fc:	10831800 	addk	r4, r3, r3
   12a00:	e0e80000 	lbui	r7, r8, 0
   12a04:	10842000 	addk	r4, r4, r4
   12a08:	10641800 	addk	r3, r4, r3
   12a0c:	90870060 	sext8	r4, r7
   12a10:	10892000 	addk	r4, r9, r4
   12a14:	e0e40001 	lbui	r7, r4, 1
   12a18:	90860060 	sext8	r4, r6
   12a1c:	10631800 	addk	r3, r3, r3
   12a20:	3084ffd0 	addik	r4, r4, -48
   12a24:	a4c70004 	andi	r6, r7, 4
   12a28:	be26ffcc 	bneid	r6, -52		// 129f4
   12a2c:	10641800 	addk	r3, r4, r3
   12a30:	b60f0008 	rtsd	r15, 8
   12a34:	f9050000 	swi	r8, r5, 0
   12a38:	b60f0008 	rtsd	r15, 8
   12a3c:	f9050000 	swi	r8, r5, 0

00012a40 <padding.part.0>:
   12a40:	3021fff4 	addik	r1, r1, -12
   12a44:	f9e10000 	swi	r15, r1, 0
   12a48:	fa610004 	swi	r19, r1, 4
   12a4c:	fac10008 	swi	r22, r1, 8
   12a50:	ea650000 	lwi	r19, r5, 0
   12a54:	e8650004 	lwi	r3, r5, 4
   12a58:	16439801 	cmp	r18, r3, r19
   12a5c:	beb20024 	bgeid	r18, 36		// 12a80
   12a60:	12c50000 	addk	r22, r5, r0
   12a64:	e0b6000c 	lbui	r5, r22, 12
   12a68:	32730001 	addik	r19, r19, 1
   12a6c:	b9f42244 	brlid	r15, 8772	// 14cb0 <outbyte>
   12a70:	90a50060 	sext8	r5, r5
   12a74:	e8760004 	lwi	r3, r22, 4
   12a78:	16439801 	cmp	r18, r3, r19
   12a7c:	bc52ffe8 	blti	r18, -24		// 12a64
   12a80:	e9e10000 	lwi	r15, r1, 0
   12a84:	ea610004 	lwi	r19, r1, 4
   12a88:	eac10008 	lwi	r22, r1, 8
   12a8c:	b60f0008 	rtsd	r15, 8
   12a90:	3021000c 	addik	r1, r1, 12

00012a94 <outnum>:
   12a94:	b0000001 	imm	1
   12a98:	e860679c 	lwi	r3, r0, 26524
   12a9c:	b0000001 	imm	1
   12aa0:	e08067ac 	lbui	r4, r0, 26540
   12aa4:	3021ff98 	addik	r1, r1, -104
   12aa8:	fb210060 	swi	r25, r1, 96
   12aac:	f861003c 	swi	r3, r1, 60
   12ab0:	13270000 	addk	r25, r7, r0
   12ab4:	b0000001 	imm	1
   12ab8:	e86067a4 	lwi	r3, r0, 26532
   12abc:	f081004c 	sbi	r4, r1, 76
   12ac0:	b0000001 	imm	1
   12ac4:	e8e067a0 	lwi	r7, r0, 26528
   12ac8:	b0000001 	imm	1
   12acc:	e88067a8 	lwi	r4, r0, 26536
   12ad0:	fb01005c 	swi	r24, r1, 92
   12ad4:	13060000 	addk	r24, r6, r0
   12ad8:	f8610044 	swi	r3, r1, 68
   12adc:	f8810048 	swi	r4, r1, 72
   12ae0:	f9e10000 	swi	r15, r1, 0
   12ae4:	fa610050 	swi	r19, r1, 80
   12ae8:	fac10054 	swi	r22, r1, 84
   12aec:	fae10058 	swi	r23, r1, 88
   12af0:	fb410064 	swi	r26, r1, 100
   12af4:	f8e10040 	swi	r7, r1, 64
   12af8:	30800020 	addik	r4, r0, 32	// 20 <_vector_hw_exception>
   12afc:	10600000 	addk	r3, r0, r0
   12b00:	10c11800 	addk	r6, r1, r3
   12b04:	30e00030 	addik	r7, r0, 48
   12b08:	f0e6001c 	sbi	r7, r6, 28
   12b0c:	3084ffff 	addik	r4, r4, -1
   12b10:	be24fff0 	bneid	r4, -16		// 12b00
   12b14:	30630001 	addik	r3, r3, 1
   12b18:	e8790018 	lwi	r3, r25, 24
   12b1c:	be230140 	bneid	r3, 320		// 12c5c
   12b20:	12c50000 	addk	r22, r5, r0
   12b24:	a898000a 	xori	r4, r24, 10
   12b28:	14640000 	rsubk	r3, r4, r0
   12b2c:	80632000 	or	r3, r3, r4
   12b30:	be430014 	bltid	r3, 20		// 12b44
   12b34:	13400000 	addk	r26, r0, r0
   12b38:	bca5000c 	bgei	r5, 12		// 12b44
   12b3c:	16c50000 	rsubk	r22, r5, r0
   12b40:	33400001 	addik	r26, r0, 1
   12b44:	b810000c 	brid	12		// 12b50
   12b48:	12e00000 	addk	r23, r0, r0
   12b4c:	12f30000 	addk	r23, r19, r0
   12b50:	10b60000 	addk	r5, r22, r0
   12b54:	10d80000 	addk	r6, r24, r0
   12b58:	b000ffff 	imm	-1
   12b5c:	b9f4ecdc 	brlid	r15, -4900	// 11838 <__umodsi3>
   12b60:	32770001 	addik	r19, r23, 1
   12b64:	3081001c 	addik	r4, r1, 28
   12b68:	10641800 	addk	r3, r4, r3
   12b6c:	e0630020 	lbui	r3, r3, 32
   12b70:	10b60000 	addk	r5, r22, r0
   12b74:	10d80000 	addk	r6, r24, r0
   12b78:	1081b800 	addk	r4, r1, r23
   12b7c:	b000ffff 	imm	-1
   12b80:	b9f4ec10 	brlid	r15, -5104	// 11790 <__udivsi3>
   12b84:	f064001c 	sbi	r3, r4, 28
   12b88:	be23ffc4 	bneid	r3, -60		// 12b4c
   12b8c:	12c30000 	addk	r22, r3, r0
   12b90:	be1a001c 	beqid	r26, 28		// 12bac
   12b94:	10619800 	addk	r3, r1, r19
   12b98:	12619800 	addk	r19, r1, r19
   12b9c:	30e0002d 	addik	r7, r0, 45
   12ba0:	f0f3001c 	sbi	r7, r19, 28
   12ba4:	32770002 	addik	r19, r23, 2
   12ba8:	10619800 	addk	r3, r1, r19
   12bac:	30a1001c 	addik	r5, r1, 28
   12bb0:	b000ffff 	imm	-1
   12bb4:	b9f4f4fc 	brlid	r15, -2820	// 120b0 <strlen>
   12bb8:	f003001c 	sbi	r0, r3, 28
   12bbc:	e8990014 	lwi	r4, r25, 20
   12bc0:	f8790000 	swi	r3, r25, 0
   12bc4:	14640000 	rsubk	r3, r4, r0
   12bc8:	80632000 	or	r3, r3, r4
   12bcc:	be430018 	bltid	r3, 24		// 12be4
   12bd0:	3273ffff 	addik	r19, r19, -1
   12bd4:	e8990010 	lwi	r4, r25, 16
   12bd8:	14640000 	rsubk	r3, r4, r0
   12bdc:	80632000 	or	r3, r3, r4
   12be0:	bc430084 	blti	r3, 132		// 12c64
   12be4:	10619800 	addk	r3, r1, r19
   12be8:	e0a3001c 	lbui	r5, r3, 28
   12bec:	3273ffff 	addik	r19, r19, -1
   12bf0:	b9f420c0 	brlid	r15, 8384	// 14cb0 <outbyte>
   12bf4:	90a50060 	sext8	r5, r5
   12bf8:	a873ffff 	xori	r3, r19, -1
   12bfc:	be23ffec 	bneid	r3, -20		// 12be8
   12c00:	10619800 	addk	r3, r1, r19
   12c04:	e8990014 	lwi	r4, r25, 20
   12c08:	14640000 	rsubk	r3, r4, r0
   12c0c:	80632000 	or	r3, r3, r4
   12c10:	bea3002c 	bgeid	r3, 44		// 12c3c
   12c14:	e9e10000 	lwi	r15, r1, 0
   12c18:	e8990010 	lwi	r4, r25, 16
   12c1c:	14640000 	rsubk	r3, r4, r0
   12c20:	80632000 	or	r3, r3, r4
   12c24:	bea3001c 	bgeid	r3, 28		// 12c40
   12c28:	ea610050 	lwi	r19, r1, 80
   12c2c:	b000ffff 	imm	-1
   12c30:	b9f4fe10 	brlid	r15, -496	// 12a40 <padding.part.0>
   12c34:	10b90000 	addk	r5, r25, r0
   12c38:	e9e10000 	lwi	r15, r1, 0
   12c3c:	ea610050 	lwi	r19, r1, 80
   12c40:	eac10054 	lwi	r22, r1, 84
   12c44:	eae10058 	lwi	r23, r1, 88
   12c48:	eb01005c 	lwi	r24, r1, 92
   12c4c:	eb210060 	lwi	r25, r1, 96
   12c50:	eb410064 	lwi	r26, r1, 100
   12c54:	b60f0008 	rtsd	r15, 8
   12c58:	30210068 	addik	r1, r1, 104
   12c5c:	b810fee8 	brid	-280		// 12b44
   12c60:	13400000 	addk	r26, r0, r0
   12c64:	b000ffff 	imm	-1
   12c68:	b9f4fdd8 	brlid	r15, -552	// 12a40 <padding.part.0>
   12c6c:	10b90000 	addk	r5, r25, r0
   12c70:	10619800 	addk	r3, r1, r19
   12c74:	e0a3001c 	lbui	r5, r3, 28
   12c78:	3273ffff 	addik	r19, r19, -1
   12c7c:	b9f42034 	brlid	r15, 8244	// 14cb0 <outbyte>
   12c80:	90a50060 	sext8	r5, r5
   12c84:	a873ffff 	xori	r3, r19, -1
   12c88:	be23ff60 	bneid	r3, -160		// 12be8
   12c8c:	10619800 	addk	r3, r1, r19
   12c90:	b810ff78 	brid	-136		// 12c08
   12c94:	e8990014 	lwi	r4, r25, 20

00012c98 <xil_printf>:
   12c98:	10650000 	addk	r3, r5, r0
   12c9c:	f8a10004 	swi	r5, r1, 4
   12ca0:	f8c10008 	swi	r6, r1, 8
   12ca4:	f8e1000c 	swi	r7, r1, 12
   12ca8:	f9010010 	swi	r8, r1, 16
   12cac:	f9210014 	swi	r9, r1, 20
   12cb0:	f9410018 	swi	r10, r1, 24
   12cb4:	3021ffb4 	addik	r1, r1, -76
   12cb8:	fac10040 	swi	r22, r1, 64
   12cbc:	f9e10000 	swi	r15, r1, 0
   12cc0:	fa61003c 	swi	r19, r1, 60
   12cc4:	fae10044 	swi	r23, r1, 68
   12cc8:	fb010048 	swi	r24, r1, 72
   12ccc:	32c10054 	addik	r22, r1, 84
   12cd0:	f8a10038 	swi	r5, r1, 56
   12cd4:	be03003c 	beqid	r3, 60		// 12d10
   12cd8:	e9e10000 	lwi	r15, r1, 0
   12cdc:	e0a30000 	lbui	r5, r3, 0
   12ce0:	90a50060 	sext8	r5, r5
   12ce4:	be050028 	beqid	r5, 40		// 12d0c
   12ce8:	aa650025 	xori	r19, r5, 37
   12cec:	be13003c 	beqid	r19, 60		// 12d28
   12cf0:	30800020 	addik	r4, r0, 32	// 20 <_vector_hw_exception>
   12cf4:	b9f41fbc 	brlid	r15, 8124	// 14cb0 <outbyte>
   12cf8:	80000000 	or	r0, r0, r0
   12cfc:	e8610038 	lwi	r3, r1, 56
   12d00:	30630001 	addik	r3, r3, 1
   12d04:	be23ffd8 	bneid	r3, -40		// 12cdc
   12d08:	f8610038 	swi	r3, r1, 56
   12d0c:	e9e10000 	lwi	r15, r1, 0
   12d10:	ea61003c 	lwi	r19, r1, 60
   12d14:	eac10040 	lwi	r22, r1, 64
   12d18:	eae10044 	lwi	r23, r1, 68
   12d1c:	eb010048 	lwi	r24, r1, 72
   12d20:	b60f0008 	rtsd	r15, 8
   12d24:	3021004c 	addik	r1, r1, 76
   12d28:	f0810028 	sbi	r4, r1, 40
   12d2c:	30807fff 	addik	r4, r0, 32767
   12d30:	fa610034 	swi	r19, r1, 52
   12d34:	fa610030 	swi	r19, r1, 48
   12d38:	fa61002c 	swi	r19, r1, 44
   12d3c:	f8810024 	swi	r4, r1, 36
   12d40:	fa610020 	swi	r19, r1, 32
   12d44:	fa61001c 	swi	r19, r1, 28
   12d48:	32e00053 	addik	r23, r0, 83
   12d4c:	33000068 	addik	r24, r0, 104
   12d50:	30830001 	addik	r4, r3, 1
   12d54:	be040064 	beqid	r4, 100		// 12db8
   12d58:	f8810038 	swi	r4, r1, 56
   12d5c:	e0a30001 	lbui	r5, r3, 1
   12d60:	b0000001 	imm	1
   12d64:	e860559c 	lwi	r3, r0, 21916	// 1559c <__ctype_ptr__>
   12d68:	90a50060 	sext8	r5, r5
   12d6c:	10632800 	addk	r3, r3, r5
   12d70:	e0630001 	lbui	r3, r3, 1
   12d74:	a4c30004 	andi	r6, r3, 4
   12d78:	bc060048 	beqi	r6, 72		// 12dc0
   12d7c:	bc330298 	bnei	r19, 664		// 13014
   12d80:	a8a50030 	xori	r5, r5, 48
   12d84:	be0502b0 	beqid	r5, 688		// 13034
   12d88:	30600030 	addik	r3, r0, 48
   12d8c:	b000ffff 	imm	-1
   12d90:	b9f4fc34 	brlid	r15, -972	// 129c4 <getnum>
   12d94:	30a10038 	addik	r5, r1, 56
   12d98:	e8a10038 	lwi	r5, r1, 56
   12d9c:	30800001 	addik	r4, r0, 1
   12da0:	f881002c 	swi	r4, r1, 44
   12da4:	f8610020 	swi	r3, r1, 32
   12da8:	be050010 	beqid	r5, 16		// 12db8
   12dac:	3065ffff 	addik	r3, r5, -1
   12db0:	be23ffa0 	bneid	r3, -96		// 12d50
   12db4:	f8610038 	swi	r3, r1, 56
   12db8:	e0600000 	lbui	r3, r0, 0
   12dbc:	b8000000 	bri	0		// 12dbc
   12dc0:	a4630003 	andi	r3, r3, 3
   12dc4:	a8630001 	xori	r3, r3, 1
   12dc8:	be030264 	beqid	r3, 612		// 1302c
   12dcc:	10c50000 	addk	r6, r5, r0
   12dd0:	3066ffdb 	addik	r3, r6, -37
   12dd4:	1643b803 	cmpu	r18, r3, r23
   12dd8:	bc52004c 	blti	r18, 76		// 12e24
   12ddc:	10c01800 	addk	r6, r0, r3
   12de0:	10c31800 	addk	r6, r3, r3
   12de4:	10c63000 	addk	r6, r6, r6
   12de8:	b0000001 	imm	1
   12dec:	30666a74 	addik	r3, r6, 27252
   12df0:	e8630000 	lwi	r3, r3, 0
   12df4:	98081800 	bra	r3
   12df8:	30800001 	addik	r4, r0, 1
   12dfc:	f8810034 	swi	r4, r1, 52
   12e00:	e8b60000 	lwi	r5, r22, 0
   12e04:	30e1001c 	addik	r7, r1, 28
   12e08:	b000ffff 	imm	-1
   12e0c:	b9f4fc88 	brlid	r15, -888	// 12a94 <outnum>
   12e10:	30c0000a 	addik	r6, r0, 10
   12e14:	e8810038 	lwi	r4, r1, 56
   12e18:	32d60004 	addik	r22, r22, 4
   12e1c:	be04fef4 	beqid	r4, -268		// 12d10
   12e20:	e9e10000 	lwi	r15, r1, 0
   12e24:	30640001 	addik	r3, r4, 1
   12e28:	b810feac 	brid	-340		// 12cd4
   12e2c:	f8610038 	swi	r3, r1, 56
   12e30:	10640000 	addk	r3, r4, r0
   12e34:	be23ff20 	bneid	r3, -224		// 12d54
   12e38:	30830001 	addik	r4, r3, 1
   12e3c:	b800ff7c 	bri	-132		// 12db8
   12e40:	10640000 	addk	r3, r4, r0
   12e44:	be23ff0c 	bneid	r3, -244		// 12d50
   12e48:	32600001 	addik	r19, r0, 1
   12e4c:	b800ff6c 	bri	-148		// 12db8
   12e50:	e8b60000 	lwi	r5, r22, 0
   12e54:	30600001 	addik	r3, r0, 1
   12e58:	30e1001c 	addik	r7, r1, 28
   12e5c:	30c00010 	addik	r6, r0, 16	// 10 <_vector_interrupt>
   12e60:	b000ffff 	imm	-1
   12e64:	b9f4fc30 	brlid	r15, -976	// 12a94 <outnum>
   12e68:	f8610034 	swi	r3, r1, 52
   12e6c:	32d60004 	addik	r22, r22, 4
   12e70:	b810ffac 	brid	-84		// 12e1c
   12e74:	e8810038 	lwi	r4, r1, 56
   12e78:	30600001 	addik	r3, r0, 1
   12e7c:	f8610030 	swi	r3, r1, 48
   12e80:	10640000 	addk	r3, r4, r0
   12e84:	be23fed0 	bneid	r3, -304		// 12d54
   12e88:	30830001 	addik	r4, r3, 1
   12e8c:	b800ff2c 	bri	-212		// 12db8
   12e90:	b9f41e20 	brlid	r15, 7712	// 14cb0 <outbyte>
   12e94:	30a00025 	addik	r5, r0, 37
   12e98:	b810ff84 	brid	-124		// 12e1c
   12e9c:	e8810038 	lwi	r4, r1, 56
   12ea0:	ea760000 	lwi	r19, r22, 0
   12ea4:	be130018 	beqid	r19, 24		// 12ebc
   12ea8:	32d60004 	addik	r22, r22, 4
   12eac:	b000ffff 	imm	-1
   12eb0:	b9f4f200 	brlid	r15, -3584	// 120b0 <strlen>
   12eb4:	10b30000 	addk	r5, r19, r0
   12eb8:	f861001c 	swi	r3, r1, 28
   12ebc:	e8810030 	lwi	r4, r1, 48
   12ec0:	14640000 	rsubk	r3, r4, r0
   12ec4:	80632000 	or	r3, r3, r4
   12ec8:	be430034 	bltid	r3, 52		// 12efc
   12ecc:	e881002c 	lwi	r4, r1, 44
   12ed0:	14640000 	rsubk	r3, r4, r0
   12ed4:	80632000 	or	r3, r3, r4
   12ed8:	bca30024 	bgei	r3, 36		// 12efc
   12edc:	b80001b0 	bri	432		// 1308c
   12ee0:	be030028 	beqid	r3, 40		// 12f08
   12ee4:	3063ffff 	addik	r3, r3, -1
   12ee8:	f8610024 	swi	r3, r1, 36
   12eec:	e0b30000 	lbui	r5, r19, 0
   12ef0:	32730001 	addik	r19, r19, 1
   12ef4:	b9f41dbc 	brlid	r15, 7612	// 14cb0 <outbyte>
   12ef8:	90a50060 	sext8	r5, r5
   12efc:	e0730000 	lbui	r3, r19, 0
   12f00:	be23ffe0 	bneid	r3, -32		// 12ee0
   12f04:	e8610024 	lwi	r3, r1, 36
   12f08:	e881002c 	lwi	r4, r1, 44
   12f0c:	14640000 	rsubk	r3, r4, r0
   12f10:	80632000 	or	r3, r3, r4
   12f14:	bea3ff08 	bgeid	r3, -248		// 12e1c
   12f18:	e8810038 	lwi	r4, r1, 56
   12f1c:	e8810030 	lwi	r4, r1, 48
   12f20:	14640000 	rsubk	r3, r4, r0
   12f24:	80632000 	or	r3, r3, r4
   12f28:	10801800 	addk	r4, r0, r3
   12f2c:	90830041 	srl	r4, r3
   12f30:	90840041 	srl	r4, r4
   12f34:	90840041 	srl	r4, r4
   12f38:	90840041 	srl	r4, r4
   12f3c:	90840041 	srl	r4, r4
   12f40:	90840041 	srl	r4, r4
   12f44:	90840041 	srl	r4, r4
   12f48:	90840041 	srl	r4, r4
   12f4c:	90840041 	srl	r4, r4
   12f50:	90840041 	srl	r4, r4
   12f54:	90840041 	srl	r4, r4
   12f58:	90840041 	srl	r4, r4
   12f5c:	90840041 	srl	r4, r4
   12f60:	90840041 	srl	r4, r4
   12f64:	90840041 	srl	r4, r4
   12f68:	90840041 	srl	r4, r4
   12f6c:	90840041 	srl	r4, r4
   12f70:	90840041 	srl	r4, r4
   12f74:	90840041 	srl	r4, r4
   12f78:	90840041 	srl	r4, r4
   12f7c:	90840041 	srl	r4, r4
   12f80:	90840041 	srl	r4, r4
   12f84:	90840041 	srl	r4, r4
   12f88:	90840041 	srl	r4, r4
   12f8c:	90840041 	srl	r4, r4
   12f90:	90840041 	srl	r4, r4
   12f94:	90840041 	srl	r4, r4
   12f98:	90840041 	srl	r4, r4
   12f9c:	90840041 	srl	r4, r4
   12fa0:	90840041 	srl	r4, r4
   12fa4:	90840041 	srl	r4, r4
   12fa8:	bc040010 	beqi	r4, 16		// 12fb8
   12fac:	b000ffff 	imm	-1
   12fb0:	b9f4fa90 	brlid	r15, -1392	// 12a40 <padding.part.0>
   12fb4:	30a1001c 	addik	r5, r1, 28
   12fb8:	b810fe64 	brid	-412		// 12e1c
   12fbc:	e8810038 	lwi	r4, r1, 56
   12fc0:	e8b60000 	lwi	r5, r22, 0
   12fc4:	32d60004 	addik	r22, r22, 4
   12fc8:	b9f41ce8 	brlid	r15, 7400	// 14cb0 <outbyte>
   12fcc:	90a50060 	sext8	r5, r5
   12fd0:	b810fe4c 	brid	-436		// 12e1c
   12fd4:	e8810038 	lwi	r4, r1, 56
   12fd8:	a8650068 	xori	r3, r5, 104
   12fdc:	bc030078 	beqi	r3, 120		// 13054
   12fe0:	1645c001 	cmp	r18, r5, r24
   12fe4:	beb20058 	bgeid	r18, 88		// 1303c
   12fe8:	a865006e 	xori	r3, r5, 110
   12fec:	bc030088 	beqi	r3, 136		// 13074
   12ff0:	a8650072 	xori	r3, r5, 114
   12ff4:	bc230070 	bnei	r3, 112		// 13064
   12ff8:	b9f41cb8 	brlid	r15, 7352	// 14cb0 <outbyte>
   12ffc:	30a0000d 	addik	r5, r0, 13
   13000:	e8610038 	lwi	r3, r1, 56
   13004:	30630001 	addik	r3, r3, 1
   13008:	be23fd48 	bneid	r3, -696		// 12d50
   1300c:	f8610038 	swi	r3, r1, 56
   13010:	b800fda8 	bri	-600		// 12db8
   13014:	b000ffff 	imm	-1
   13018:	b9f4f9ac 	brlid	r15, -1620	// 129c4 <getnum>
   1301c:	30a10038 	addik	r5, r1, 56
   13020:	f8610024 	swi	r3, r1, 36
   13024:	b810fd84 	brid	-636		// 12da8
   13028:	e8a10038 	lwi	r5, r1, 56
   1302c:	b810fda4 	brid	-604		// 12dd0
   13030:	30c50020 	addik	r6, r5, 32
   13034:	b810fd58 	brid	-680		// 12d8c
   13038:	f0610028 	sbi	r3, r1, 40
   1303c:	a8650061 	xori	r3, r5, 97
   13040:	bc230024 	bnei	r3, 36		// 13064
   13044:	b9f41c6c 	brlid	r15, 7276	// 14cb0 <outbyte>
   13048:	30a00007 	addik	r5, r0, 7
   1304c:	b810ffb8 	brid	-72		// 13004
   13050:	e8610038 	lwi	r3, r1, 56
   13054:	b9f41c5c 	brlid	r15, 7260	// 14cb0 <outbyte>
   13058:	30a00008 	addik	r5, r0, 8	// 8 <_vector_sw_exception>
   1305c:	b810ffa8 	brid	-88		// 13004
   13060:	e8610038 	lwi	r3, r1, 56
   13064:	b9f41c4c 	brlid	r15, 7244	// 14cb0 <outbyte>
   13068:	80000000 	or	r0, r0, r0
   1306c:	b810ff98 	brid	-104		// 13004
   13070:	e8610038 	lwi	r3, r1, 56
   13074:	b9f41c3c 	brlid	r15, 7228	// 14cb0 <outbyte>
   13078:	30a0000d 	addik	r5, r0, 13
   1307c:	b9f41c34 	brlid	r15, 7220	// 14cb0 <outbyte>
   13080:	30a0000a 	addik	r5, r0, 10
   13084:	b810ff80 	brid	-128		// 13004
   13088:	e8610038 	lwi	r3, r1, 56
   1308c:	b000ffff 	imm	-1
   13090:	b9f4f9b0 	brlid	r15, -1616	// 12a40 <padding.part.0>
   13094:	30a1001c 	addik	r5, r1, 28
   13098:	b810fe68 	brid	-408		// 12f00
   1309c:	e0730000 	lbui	r3, r19, 0

000130a0 <StubHandler>:
   130a0:	bc05001c 	beqi	r5, 28		// 130bc
   130a4:	e865000c 	lwi	r3, r5, 12
   130a8:	b0000001 	imm	1
   130ac:	f8006dc8 	swi	r0, r0, 28104	// 16dc8 <Xil_AssertStatus>
   130b0:	30630001 	addik	r3, r3, 1
   130b4:	b60f0008 	rtsd	r15, 8
   130b8:	f865000c 	swi	r3, r5, 12
   130bc:	b0000001 	imm	1
   130c0:	30a067b0 	addik	r5, r0, 26544
   130c4:	3021ffe4 	addik	r1, r1, -28
   130c8:	f9e10000 	swi	r15, r1, 0
   130cc:	b9f41c0c 	brlid	r15, 7180	// 14cd8 <Xil_Assert>
   130d0:	30c002bf 	addik	r6, r0, 703
   130d4:	e9e10000 	lwi	r15, r1, 0
   130d8:	30600001 	addik	r3, r0, 1
   130dc:	b0000001 	imm	1
   130e0:	f8606dc8 	swi	r3, r0, 28104	// 16dc8 <Xil_AssertStatus>
   130e4:	b60f0008 	rtsd	r15, 8
   130e8:	3021001c 	addik	r1, r1, 28

000130ec <XIntc_Initialize>:
   130ec:	3021ffd4 	addik	r1, r1, -44
   130f0:	f9e10000 	swi	r15, r1, 0
   130f4:	fa61001c 	swi	r19, r1, 28
   130f8:	fac10020 	swi	r22, r1, 32
   130fc:	fae10024 	swi	r23, r1, 36
   13100:	be0501d4 	beqid	r5, 468		// 132d4
   13104:	fb010028 	swi	r24, r1, 40
   13108:	e8850008 	lwi	r4, r5, 8
   1310c:	b0000001 	imm	1
   13110:	f8006dc8 	swi	r0, r0, 28104	// 16dc8 <Xil_AssertStatus>
   13114:	b0002222 	imm	8738
   13118:	a8842222 	xori	r4, r4, 8738
   1311c:	be04001c 	beqid	r4, 28		// 13138
   13120:	30600005 	addik	r3, r0, 5
   13124:	b0000001 	imm	1
   13128:	e46056a0 	lhui	r3, r0, 22176	// 156a0 <XIntc_ConfigTable>
   1312c:	88c33000 	xor	r6, r3, r6
   13130:	be060024 	beqid	r6, 36		// 13154
   13134:	30600002 	addik	r3, r0, 2
   13138:	e9e10000 	lwi	r15, r1, 0
   1313c:	ea61001c 	lwi	r19, r1, 28
   13140:	eac10020 	lwi	r22, r1, 32
   13144:	eae10024 	lwi	r23, r1, 36
   13148:	eb010028 	lwi	r24, r1, 40
   1314c:	b60f0008 	rtsd	r15, 8
   13150:	3021002c 	addik	r1, r1, 44
   13154:	b0000001 	imm	1
   13158:	306056a0 	addik	r3, r0, 22176	// 156a0 <XIntc_ConfigTable>
   1315c:	b0000001 	imm	1
   13160:	e96056a4 	lwi	r11, r0, 22180
   13164:	f8c50004 	swi	r6, r5, 4
   13168:	f8c50008 	swi	r6, r5, 8
   1316c:	f8650010 	swi	r3, r5, 16
   13170:	30800001 	addik	r4, r0, 1
   13174:	b0000001 	imm	1
   13178:	f88056b8 	swi	r4, r0, 22200
   1317c:	b0000001 	imm	1
   13180:	e90056bc 	lwi	r8, r0, 22204
   13184:	f9650000 	swi	r11, r5, 0
   13188:	b0000001 	imm	1
   1318c:	e98056b4 	lwi	r12, r0, 22196
   13190:	be6c0084 	bleid	r12, 132		// 13214
   13194:	10860000 	addk	r4, r6, r0
   13198:	b0000001 	imm	1
   1319c:	32604d30 	addik	r19, r0, 19760	// 14d30 <XNullHandler>
   131a0:	31200001 	addik	r9, r0, 1
   131a4:	30e60004 	addik	r7, r6, 4
   131a8:	10673800 	addk	r3, r7, r7
   131ac:	10631800 	addk	r3, r3, r3
   131b0:	10631800 	addk	r3, r3, r3
   131b4:	b0000001 	imm	1
   131b8:	306356a0 	addik	r3, r3, 22176
   131bc:	e8630000 	lwi	r3, r3, 0
   131c0:	10c63000 	addk	r6, r6, r6
   131c4:	10c63000 	addk	r6, r6, r6
   131c8:	8ac39800 	xor	r22, r3, r19
   131cc:	17030000 	rsubk	r24, r3, r0
   131d0:	30840001 	addik	r4, r4, 1
   131d4:	15560000 	rsubk	r10, r22, r0
   131d8:	8063c000 	or	r3, r3, r24
   131dc:	12e63000 	addk	r23, r6, r6
   131e0:	a48400ff 	andi	r4, r4, 255
   131e4:	bea30094 	bgeid	r3, 148		// 13278
   131e8:	814ab000 	or	r10, r10, r22
   131ec:	beaa0090 	bgeid	r10, 144		// 1327c
   131f0:	10e73800 	addk	r7, r7, r7
   131f4:	b0000001 	imm	1
   131f8:	f9266d48 	swi	r9, r6, 27976
   131fc:	b0000001 	imm	1
   13200:	f8b756c4 	swi	r5, r23, 22212
   13204:	11294800 	addk	r9, r9, r9
   13208:	164c2001 	cmp	r18, r12, r4
   1320c:	be52ff98 	bltid	r18, -104		// 131a4
   13210:	10c40000 	addk	r6, r4, r0
   13214:	b0000001 	imm	1
   13218:	e88056ac 	lwi	r4, r0, 22188
   1321c:	f80b001c 	swi	r0, r11, 28
   13220:	f80b0008 	swi	r0, r11, 8
   13224:	30e0ffff 	addik	r7, r0, -1
   13228:	f8eb000c 	swi	r7, r11, 12
   1322c:	a8840001 	xori	r4, r4, 1
   13230:	bc040068 	beqi	r4, 104		// 13298
   13234:	bc080018 	beqi	r8, 24		// 1324c
   13238:	e8650010 	lwi	r3, r5, 16
   1323c:	b0000001 	imm	1
   13240:	e8806dc4 	lwi	r4, r0, 28100
   13244:	e8630004 	lwi	r3, r3, 4
   13248:	f8830008 	swi	r4, r3, 8
   1324c:	b0001111 	imm	4369
   13250:	30e01111 	addik	r7, r0, 4369
   13254:	10600000 	addk	r3, r0, r0
   13258:	f8e50004 	swi	r7, r5, 4
   1325c:	e9e10000 	lwi	r15, r1, 0
   13260:	ea61001c 	lwi	r19, r1, 28
   13264:	eac10020 	lwi	r22, r1, 32
   13268:	eae10024 	lwi	r23, r1, 36
   1326c:	eb010028 	lwi	r24, r1, 40
   13270:	b60f0008 	rtsd	r15, 8
   13274:	3021002c 	addik	r1, r1, 44
   13278:	10e73800 	addk	r7, r7, r7
   1327c:	b0000001 	imm	1
   13280:	306030a0 	addik	r3, r0, 12448	// 130a0 <StubHandler>
   13284:	10e73800 	addk	r7, r7, r7
   13288:	10e73800 	addk	r7, r7, r7
   1328c:	b0000001 	imm	1
   13290:	f86756a0 	swi	r3, r7, 22176
   13294:	b800ff60 	bri	-160		// 131f4
   13298:	f88b0020 	swi	r4, r11, 32
   1329c:	10640000 	addk	r3, r4, r0
   132a0:	316b0100 	addik	r11, r11, 256
   132a4:	30800020 	addik	r4, r0, 32	// 20 <_vector_hw_exception>
   132a8:	10c31800 	addk	r6, r3, r3
   132ac:	10c63000 	addk	r6, r6, r6
   132b0:	3084ffff 	addik	r4, r4, -1
   132b4:	30e00010 	addik	r7, r0, 16	// 10 <_vector_interrupt>
   132b8:	30630001 	addik	r3, r3, 1
   132bc:	d8eb3000 	sw	r7, r11, r6
   132c0:	a48400ff 	andi	r4, r4, 255
   132c4:	be24ffe4 	bneid	r4, -28		// 132a8
   132c8:	a46300ff 	andi	r3, r3, 255
   132cc:	bc28ff6c 	bnei	r8, -148		// 13238
   132d0:	b800ff7c 	bri	-132		// 1324c
   132d4:	12650000 	addk	r19, r5, r0
   132d8:	b0000001 	imm	1
   132dc:	30a067b0 	addik	r5, r0, 26544
   132e0:	b9f419f8 	brlid	r15, 6648	// 14cd8 <Xil_Assert>
   132e4:	30c00090 	addik	r6, r0, 144
   132e8:	30600001 	addik	r3, r0, 1
   132ec:	b0000001 	imm	1
   132f0:	f8606dc8 	swi	r3, r0, 28104	// 16dc8 <Xil_AssertStatus>
   132f4:	b810fe44 	brid	-444		// 13138
   132f8:	10730000 	addk	r3, r19, r0

000132fc <XIntc_Start>:
   132fc:	3021ffe0 	addik	r1, r1, -32
   13300:	f9e10000 	swi	r15, r1, 0
   13304:	be0500d0 	beqid	r5, 208		// 133d4
   13308:	fa61001c 	swi	r19, r1, 28
   1330c:	b0000001 	imm	1
   13310:	f8006dc8 	swi	r0, r0, 28104	// 16dc8 <Xil_AssertStatus>
   13314:	32600001 	addik	r19, r0, 1
   13318:	16469803 	cmpu	r18, r6, r19
   1331c:	bc52006c 	blti	r18, 108		// 13388
   13320:	e8650004 	lwi	r3, r5, 4
   13324:	b0001111 	imm	4369
   13328:	a8631111 	xori	r3, r3, 4369
   1332c:	bc230030 	bnei	r3, 48		// 1335c
   13330:	bc260084 	bnei	r6, 132		// 133b4
   13334:	b0002222 	imm	8738
   13338:	30802222 	addik	r4, r0, 8738
   1333c:	e8650000 	lwi	r3, r5, 0
   13340:	f8850008 	swi	r4, r5, 8
   13344:	fa63001c 	swi	r19, r3, 28
   13348:	e9e10000 	lwi	r15, r1, 0
   1334c:	ea61001c 	lwi	r19, r1, 28
   13350:	10600000 	addk	r3, r0, r0
   13354:	b60f0008 	rtsd	r15, 8
   13358:	30210020 	addik	r1, r1, 32
   1335c:	b0000001 	imm	1
   13360:	30a067b0 	addik	r5, r0, 26544
   13364:	b9f41974 	brlid	r15, 6516	// 14cd8 <Xil_Assert>
   13368:	30c0012f 	addik	r6, r0, 303
   1336c:	b0000001 	imm	1
   13370:	fa606dc8 	swi	r19, r0, 28104	// 16dc8 <Xil_AssertStatus>
   13374:	e9e10000 	lwi	r15, r1, 0
   13378:	ea61001c 	lwi	r19, r1, 28
   1337c:	10600000 	addk	r3, r0, r0
   13380:	b60f0008 	rtsd	r15, 8
   13384:	30210020 	addik	r1, r1, 32
   13388:	b0000001 	imm	1
   1338c:	30a067b0 	addik	r5, r0, 26544
   13390:	b9f41948 	brlid	r15, 6472	// 14cd8 <Xil_Assert>
   13394:	30c0012e 	addik	r6, r0, 302
   13398:	e9e10000 	lwi	r15, r1, 0
   1339c:	b0000001 	imm	1
   133a0:	fa606dc8 	swi	r19, r0, 28104	// 16dc8 <Xil_AssertStatus>
   133a4:	ea61001c 	lwi	r19, r1, 28
   133a8:	10600000 	addk	r3, r0, r0
   133ac:	b60f0008 	rtsd	r15, 8
   133b0:	30210020 	addik	r1, r1, 32
   133b4:	b0002222 	imm	8738
   133b8:	30802222 	addik	r4, r0, 8738
   133bc:	e8650000 	lwi	r3, r5, 0
   133c0:	32600003 	addik	r19, r0, 3
   133c4:	f8850008 	swi	r4, r5, 8
   133c8:	fa63001c 	swi	r19, r3, 28
   133cc:	b810ff80 	brid	-128		// 1334c
   133d0:	e9e10000 	lwi	r15, r1, 0
   133d4:	b0000001 	imm	1
   133d8:	30a067b0 	addik	r5, r0, 26544
   133dc:	b9f418fc 	brlid	r15, 6396	// 14cd8 <Xil_Assert>
   133e0:	30c0012c 	addik	r6, r0, 300
   133e4:	30600001 	addik	r3, r0, 1
   133e8:	b0000001 	imm	1
   133ec:	f8606dc8 	swi	r3, r0, 28104	// 16dc8 <Xil_AssertStatus>
   133f0:	b810ff88 	brid	-120		// 13378
   133f4:	e9e10000 	lwi	r15, r1, 0

000133f8 <XIntc_Stop>:
   133f8:	3021ffe4 	addik	r1, r1, -28
   133fc:	be050060 	beqid	r5, 96		// 1345c
   13400:	f9e10000 	swi	r15, r1, 0
   13404:	e8650004 	lwi	r3, r5, 4
   13408:	b0000001 	imm	1
   1340c:	f8006dc8 	swi	r0, r0, 28104	// 16dc8 <Xil_AssertStatus>
   13410:	b0001111 	imm	4369
   13414:	a8631111 	xori	r3, r3, 4369
   13418:	bc03002c 	beqi	r3, 44		// 13444
   1341c:	b0000001 	imm	1
   13420:	30a067b0 	addik	r5, r0, 26544
   13424:	b9f418b4 	brlid	r15, 6324	// 14cd8 <Xil_Assert>
   13428:	30c00166 	addik	r6, r0, 358
   1342c:	30600001 	addik	r3, r0, 1
   13430:	b0000001 	imm	1
   13434:	f8606dc8 	swi	r3, r0, 28104	// 16dc8 <Xil_AssertStatus>
   13438:	e9e10000 	lwi	r15, r1, 0
   1343c:	b60f0008 	rtsd	r15, 8
   13440:	3021001c 	addik	r1, r1, 28
   13444:	e8850000 	lwi	r4, r5, 0
   13448:	f864001c 	swi	r3, r4, 28
   1344c:	f8650008 	swi	r3, r5, 8
   13450:	e9e10000 	lwi	r15, r1, 0
   13454:	b60f0008 	rtsd	r15, 8
   13458:	3021001c 	addik	r1, r1, 28
   1345c:	b0000001 	imm	1
   13460:	30a067b0 	addik	r5, r0, 26544
   13464:	b9f41874 	brlid	r15, 6260	// 14cd8 <Xil_Assert>
   13468:	30c00165 	addik	r6, r0, 357
   1346c:	30600001 	addik	r3, r0, 1
   13470:	b0000001 	imm	1
   13474:	f8606dc8 	swi	r3, r0, 28104	// 16dc8 <Xil_AssertStatus>
   13478:	b810ffc4 	brid	-60		// 1343c
   1347c:	e9e10000 	lwi	r15, r1, 0

00013480 <XIntc_Connect>:
   13480:	3021ffe4 	addik	r1, r1, -28
   13484:	be05009c 	beqid	r5, 156		// 13520
   13488:	f9e10000 	swi	r15, r1, 0
   1348c:	b0000001 	imm	1
   13490:	f8006dc8 	swi	r0, r0, 28104	// 16dc8 <Xil_AssertStatus>
   13494:	bc260060 	bnei	r6, 96		// 134f4
   13498:	bc0700ac 	beqi	r7, 172		// 13544
   1349c:	e8650004 	lwi	r3, r5, 4
   134a0:	b0001111 	imm	4369
   134a4:	a8631111 	xori	r3, r3, 4369
   134a8:	bc230020 	bnei	r3, 32		// 134c8
   134ac:	e8650010 	lwi	r3, r5, 16
   134b0:	f8e30020 	swi	r7, r3, 32
   134b4:	f9030024 	swi	r8, r3, 36
   134b8:	e9e10000 	lwi	r15, r1, 0
   134bc:	10600000 	addk	r3, r0, r0
   134c0:	b60f0008 	rtsd	r15, 8
   134c4:	3021001c 	addik	r1, r1, 28
   134c8:	b0000001 	imm	1
   134cc:	30a067b0 	addik	r5, r0, 26544
   134d0:	b9f41808 	brlid	r15, 6152	// 14cd8 <Xil_Assert>
   134d4:	30c00196 	addik	r6, r0, 406
   134d8:	e9e10000 	lwi	r15, r1, 0
   134dc:	30600001 	addik	r3, r0, 1
   134e0:	b0000001 	imm	1
   134e4:	f8606dc8 	swi	r3, r0, 28104	// 16dc8 <Xil_AssertStatus>
   134e8:	10600000 	addk	r3, r0, r0
   134ec:	b60f0008 	rtsd	r15, 8
   134f0:	3021001c 	addik	r1, r1, 28
   134f4:	b0000001 	imm	1
   134f8:	30a067b0 	addik	r5, r0, 26544
   134fc:	b9f417dc 	brlid	r15, 6108	// 14cd8 <Xil_Assert>
   13500:	30c00194 	addik	r6, r0, 404
   13504:	e9e10000 	lwi	r15, r1, 0
   13508:	30600001 	addik	r3, r0, 1
   1350c:	b0000001 	imm	1
   13510:	f8606dc8 	swi	r3, r0, 28104	// 16dc8 <Xil_AssertStatus>
   13514:	10600000 	addk	r3, r0, r0
   13518:	b60f0008 	rtsd	r15, 8
   1351c:	3021001c 	addik	r1, r1, 28
   13520:	b0000001 	imm	1
   13524:	30a067b0 	addik	r5, r0, 26544
   13528:	b9f417b0 	brlid	r15, 6064	// 14cd8 <Xil_Assert>
   1352c:	30c00193 	addik	r6, r0, 403
   13530:	30600001 	addik	r3, r0, 1
   13534:	b0000001 	imm	1
   13538:	f8606dc8 	swi	r3, r0, 28104	// 16dc8 <Xil_AssertStatus>
   1353c:	b810ff80 	brid	-128		// 134bc
   13540:	e9e10000 	lwi	r15, r1, 0
   13544:	b0000001 	imm	1
   13548:	30a067b0 	addik	r5, r0, 26544
   1354c:	b9f4178c 	brlid	r15, 6028	// 14cd8 <Xil_Assert>
   13550:	30c00195 	addik	r6, r0, 405
   13554:	30600001 	addik	r3, r0, 1
   13558:	b0000001 	imm	1
   1355c:	f8606dc8 	swi	r3, r0, 28104	// 16dc8 <Xil_AssertStatus>
   13560:	b810ff5c 	brid	-164		// 134bc
   13564:	e9e10000 	lwi	r15, r1, 0

00013568 <XIntc_Disconnect>:
   13568:	3021ffe4 	addik	r1, r1, -28
   1356c:	be0500b0 	beqid	r5, 176		// 1361c
   13570:	f9e10000 	swi	r15, r1, 0
   13574:	b0000001 	imm	1
   13578:	f8006dc8 	swi	r0, r0, 28104	// 16dc8 <Xil_AssertStatus>
   1357c:	bc260078 	bnei	r6, 120		// 135f4
   13580:	e8650004 	lwi	r3, r5, 4
   13584:	b0001111 	imm	4369
   13588:	a8631111 	xori	r3, r3, 4369
   1358c:	bc230040 	bnei	r3, 64		// 135cc
   13590:	e8c50000 	lwi	r6, r5, 0
   13594:	b0000001 	imm	1
   13598:	e8606d48 	lwi	r3, r0, 27976	// 16d48 <XIntc_BitPosMask>
   1359c:	e8850010 	lwi	r4, r5, 16
   135a0:	e8e60008 	lwi	r7, r6, 8
   135a4:	a863ffff 	xori	r3, r3, -1
   135a8:	84633800 	and	r3, r3, r7
   135ac:	f8660008 	swi	r3, r6, 8
   135b0:	b0000001 	imm	1
   135b4:	306030a0 	addik	r3, r0, 12448	// 130a0 <StubHandler>
   135b8:	f8a40024 	swi	r5, r4, 36
   135bc:	f8640020 	swi	r3, r4, 32
   135c0:	e9e10000 	lwi	r15, r1, 0
   135c4:	b60f0008 	rtsd	r15, 8
   135c8:	3021001c 	addik	r1, r1, 28
   135cc:	b0000001 	imm	1
   135d0:	30a067b0 	addik	r5, r0, 26544
   135d4:	b9f41704 	brlid	r15, 5892	// 14cd8 <Xil_Assert>
   135d8:	30c001cc 	addik	r6, r0, 460
   135dc:	e9e10000 	lwi	r15, r1, 0
   135e0:	30600001 	addik	r3, r0, 1
   135e4:	b0000001 	imm	1
   135e8:	f8606dc8 	swi	r3, r0, 28104	// 16dc8 <Xil_AssertStatus>
   135ec:	b60f0008 	rtsd	r15, 8
   135f0:	3021001c 	addik	r1, r1, 28
   135f4:	b0000001 	imm	1
   135f8:	30a067b0 	addik	r5, r0, 26544
   135fc:	b9f416dc 	brlid	r15, 5852	// 14cd8 <Xil_Assert>
   13600:	30c001cb 	addik	r6, r0, 459
   13604:	e9e10000 	lwi	r15, r1, 0
   13608:	30600001 	addik	r3, r0, 1
   1360c:	b0000001 	imm	1
   13610:	f8606dc8 	swi	r3, r0, 28104	// 16dc8 <Xil_AssertStatus>
   13614:	b60f0008 	rtsd	r15, 8
   13618:	3021001c 	addik	r1, r1, 28
   1361c:	b0000001 	imm	1
   13620:	30a067b0 	addik	r5, r0, 26544
   13624:	b9f416b4 	brlid	r15, 5812	// 14cd8 <Xil_Assert>
   13628:	30c001ca 	addik	r6, r0, 458
   1362c:	30600001 	addik	r3, r0, 1
   13630:	b0000001 	imm	1
   13634:	f8606dc8 	swi	r3, r0, 28104	// 16dc8 <Xil_AssertStatus>
   13638:	b810ff8c 	brid	-116		// 135c4
   1363c:	e9e10000 	lwi	r15, r1, 0

00013640 <XIntc_Enable>:
   13640:	3021ffe4 	addik	r1, r1, -28
   13644:	be050098 	beqid	r5, 152		// 136dc
   13648:	f9e10000 	swi	r15, r1, 0
   1364c:	b0000001 	imm	1
   13650:	f8006dc8 	swi	r0, r0, 28104	// 16dc8 <Xil_AssertStatus>
   13654:	bc260060 	bnei	r6, 96		// 136b4
   13658:	e8650004 	lwi	r3, r5, 4
   1365c:	b0001111 	imm	4369
   13660:	a8631111 	xori	r3, r3, 4369
   13664:	bc230028 	bnei	r3, 40		// 1368c
   13668:	e8850000 	lwi	r4, r5, 0
   1366c:	b0000001 	imm	1
   13670:	e8a06d48 	lwi	r5, r0, 27976	// 16d48 <XIntc_BitPosMask>
   13674:	e8640008 	lwi	r3, r4, 8
   13678:	80632800 	or	r3, r3, r5
   1367c:	f8640008 	swi	r3, r4, 8
   13680:	e9e10000 	lwi	r15, r1, 0
   13684:	b60f0008 	rtsd	r15, 8
   13688:	3021001c 	addik	r1, r1, 28
   1368c:	b0000001 	imm	1
   13690:	30a067b0 	addik	r5, r0, 26544
   13694:	b9f41644 	brlid	r15, 5700	// 14cd8 <Xil_Assert>
   13698:	30c00217 	addik	r6, r0, 535
   1369c:	e9e10000 	lwi	r15, r1, 0
   136a0:	30600001 	addik	r3, r0, 1
   136a4:	b0000001 	imm	1
   136a8:	f8606dc8 	swi	r3, r0, 28104	// 16dc8 <Xil_AssertStatus>
   136ac:	b60f0008 	rtsd	r15, 8
   136b0:	3021001c 	addik	r1, r1, 28
   136b4:	b0000001 	imm	1
   136b8:	30a067b0 	addik	r5, r0, 26544
   136bc:	b9f4161c 	brlid	r15, 5660	// 14cd8 <Xil_Assert>
   136c0:	30c00216 	addik	r6, r0, 534
   136c4:	e9e10000 	lwi	r15, r1, 0
   136c8:	30600001 	addik	r3, r0, 1
   136cc:	b0000001 	imm	1
   136d0:	f8606dc8 	swi	r3, r0, 28104	// 16dc8 <Xil_AssertStatus>
   136d4:	b60f0008 	rtsd	r15, 8
   136d8:	3021001c 	addik	r1, r1, 28
   136dc:	b0000001 	imm	1
   136e0:	30a067b0 	addik	r5, r0, 26544
   136e4:	b9f415f4 	brlid	r15, 5620	// 14cd8 <Xil_Assert>
   136e8:	30c00215 	addik	r6, r0, 533
   136ec:	30600001 	addik	r3, r0, 1
   136f0:	b0000001 	imm	1
   136f4:	f8606dc8 	swi	r3, r0, 28104	// 16dc8 <Xil_AssertStatus>
   136f8:	b810ff8c 	brid	-116		// 13684
   136fc:	e9e10000 	lwi	r15, r1, 0

00013700 <XIntc_Disable>:
   13700:	3021ffe4 	addik	r1, r1, -28
   13704:	be05009c 	beqid	r5, 156		// 137a0
   13708:	f9e10000 	swi	r15, r1, 0
   1370c:	b0000001 	imm	1
   13710:	f8006dc8 	swi	r0, r0, 28104	// 16dc8 <Xil_AssertStatus>
   13714:	bc260064 	bnei	r6, 100		// 13778
   13718:	e8650004 	lwi	r3, r5, 4
   1371c:	b0001111 	imm	4369
   13720:	a8631111 	xori	r3, r3, 4369
   13724:	bc23002c 	bnei	r3, 44		// 13750
   13728:	e8850000 	lwi	r4, r5, 0
   1372c:	b0000001 	imm	1
   13730:	e8606d48 	lwi	r3, r0, 27976	// 16d48 <XIntc_BitPosMask>
   13734:	e8a40008 	lwi	r5, r4, 8
   13738:	a863ffff 	xori	r3, r3, -1
   1373c:	84632800 	and	r3, r3, r5
   13740:	f8640008 	swi	r3, r4, 8
   13744:	e9e10000 	lwi	r15, r1, 0
   13748:	b60f0008 	rtsd	r15, 8
   1374c:	3021001c 	addik	r1, r1, 28
   13750:	b0000001 	imm	1
   13754:	30a067b0 	addik	r5, r0, 26544
   13758:	b9f41580 	brlid	r15, 5504	// 14cd8 <Xil_Assert>
   1375c:	30c00257 	addik	r6, r0, 599
   13760:	e9e10000 	lwi	r15, r1, 0
   13764:	30600001 	addik	r3, r0, 1
   13768:	b0000001 	imm	1
   1376c:	f8606dc8 	swi	r3, r0, 28104	// 16dc8 <Xil_AssertStatus>
   13770:	b60f0008 	rtsd	r15, 8
   13774:	3021001c 	addik	r1, r1, 28
   13778:	b0000001 	imm	1
   1377c:	30a067b0 	addik	r5, r0, 26544
   13780:	b9f41558 	brlid	r15, 5464	// 14cd8 <Xil_Assert>
   13784:	30c00256 	addik	r6, r0, 598
   13788:	e9e10000 	lwi	r15, r1, 0
   1378c:	30600001 	addik	r3, r0, 1
   13790:	b0000001 	imm	1
   13794:	f8606dc8 	swi	r3, r0, 28104	// 16dc8 <Xil_AssertStatus>
   13798:	b60f0008 	rtsd	r15, 8
   1379c:	3021001c 	addik	r1, r1, 28
   137a0:	b0000001 	imm	1
   137a4:	30a067b0 	addik	r5, r0, 26544
   137a8:	b9f41530 	brlid	r15, 5424	// 14cd8 <Xil_Assert>
   137ac:	30c00255 	addik	r6, r0, 597
   137b0:	30600001 	addik	r3, r0, 1
   137b4:	b0000001 	imm	1
   137b8:	f8606dc8 	swi	r3, r0, 28104	// 16dc8 <Xil_AssertStatus>
   137bc:	b810ff8c 	brid	-116		// 13748
   137c0:	e9e10000 	lwi	r15, r1, 0

000137c4 <XIntc_Acknowledge>:
   137c4:	3021ffe4 	addik	r1, r1, -28
   137c8:	be050090 	beqid	r5, 144		// 13858
   137cc:	f9e10000 	swi	r15, r1, 0
   137d0:	b0000001 	imm	1
   137d4:	f8006dc8 	swi	r0, r0, 28104	// 16dc8 <Xil_AssertStatus>
   137d8:	bc260058 	bnei	r6, 88		// 13830
   137dc:	e8650004 	lwi	r3, r5, 4
   137e0:	b0001111 	imm	4369
   137e4:	a8631111 	xori	r3, r3, 4369
   137e8:	bc230020 	bnei	r3, 32		// 13808
   137ec:	e8650000 	lwi	r3, r5, 0
   137f0:	b0000001 	imm	1
   137f4:	e8806d48 	lwi	r4, r0, 27976	// 16d48 <XIntc_BitPosMask>
   137f8:	f883000c 	swi	r4, r3, 12
   137fc:	e9e10000 	lwi	r15, r1, 0
   13800:	b60f0008 	rtsd	r15, 8
   13804:	3021001c 	addik	r1, r1, 28
   13808:	b0000001 	imm	1
   1380c:	30a067b0 	addik	r5, r0, 26544
   13810:	b9f414c8 	brlid	r15, 5320	// 14cd8 <Xil_Assert>
   13814:	30c00293 	addik	r6, r0, 659
   13818:	e9e10000 	lwi	r15, r1, 0
   1381c:	30600001 	addik	r3, r0, 1
   13820:	b0000001 	imm	1
   13824:	f8606dc8 	swi	r3, r0, 28104	// 16dc8 <Xil_AssertStatus>
   13828:	b60f0008 	rtsd	r15, 8
   1382c:	3021001c 	addik	r1, r1, 28
   13830:	b0000001 	imm	1
   13834:	30a067b0 	addik	r5, r0, 26544
   13838:	b9f414a0 	brlid	r15, 5280	// 14cd8 <Xil_Assert>
   1383c:	30c00292 	addik	r6, r0, 658
   13840:	e9e10000 	lwi	r15, r1, 0
   13844:	30800001 	addik	r4, r0, 1
   13848:	b0000001 	imm	1
   1384c:	f8806dc8 	swi	r4, r0, 28104	// 16dc8 <Xil_AssertStatus>
   13850:	b60f0008 	rtsd	r15, 8
   13854:	3021001c 	addik	r1, r1, 28
   13858:	b0000001 	imm	1
   1385c:	30a067b0 	addik	r5, r0, 26544
   13860:	b9f41478 	brlid	r15, 5240	// 14cd8 <Xil_Assert>
   13864:	30c00291 	addik	r6, r0, 657
   13868:	30600001 	addik	r3, r0, 1
   1386c:	b0000001 	imm	1
   13870:	f8606dc8 	swi	r3, r0, 28104	// 16dc8 <Xil_AssertStatus>
   13874:	b810ff8c 	brid	-116		// 13800
   13878:	e9e10000 	lwi	r15, r1, 0

0001387c <XIntc_LookupConfig>:
   1387c:	b0000001 	imm	1
   13880:	e48056a0 	lhui	r4, r0, 22176	// 156a0 <XIntc_ConfigTable>
   13884:	88a42800 	xor	r5, r4, r5
   13888:	be250010 	bneid	r5, 16		// 13898
   1388c:	10600000 	addk	r3, r0, r0
   13890:	b0000001 	imm	1
   13894:	306056a0 	addik	r3, r0, 22176	// 156a0 <XIntc_ConfigTable>
   13898:	b60f0008 	rtsd	r15, 8
   1389c:	80000000 	or	r0, r0, r0

000138a0 <XIntc_ConnectFastHandler>:
   138a0:	3021ffd4 	addik	r1, r1, -44
   138a4:	f9e10000 	swi	r15, r1, 0
   138a8:	fa610020 	swi	r19, r1, 32
   138ac:	fac10024 	swi	r22, r1, 36
   138b0:	be050168 	beqid	r5, 360		// 13a18
   138b4:	fae10028 	swi	r23, r1, 40
   138b8:	b0000001 	imm	1
   138bc:	f8006dc8 	swi	r0, r0, 28104	// 16dc8 <Xil_AssertStatus>
   138c0:	bc2600e8 	bnei	r6, 232		// 139a8
   138c4:	bc070178 	beqi	r7, 376		// 13a3c
   138c8:	e8650004 	lwi	r3, r5, 4
   138cc:	b0001111 	imm	4369
   138d0:	a8631111 	xori	r3, r3, 4369
   138d4:	be23005c 	bneid	r3, 92		// 13930
   138d8:	12650000 	addk	r19, r5, r0
   138dc:	e8650010 	lwi	r3, r5, 16
   138e0:	eac3000c 	lwi	r22, r3, 12
   138e4:	aad60001 	xori	r22, r22, 1
   138e8:	bc3600f8 	bnei	r22, 248		// 139e0
   138ec:	e8650000 	lwi	r3, r5, 0
   138f0:	b0000001 	imm	1
   138f4:	eae06d48 	lwi	r23, r0, 27976	// 16d48 <XIntc_BitPosMask>
   138f8:	e8830008 	lwi	r4, r3, 8
   138fc:	84972000 	and	r4, r23, r4
   13900:	bc240068 	bnei	r4, 104		// 13968
   13904:	f8e30100 	swi	r7, r3, 256
   13908:	e8830020 	lwi	r4, r3, 32
   1390c:	82f72000 	or	r23, r23, r4
   13910:	fae30020 	swi	r23, r3, 32
   13914:	e9e10000 	lwi	r15, r1, 0
   13918:	ea610020 	lwi	r19, r1, 32
   1391c:	eac10024 	lwi	r22, r1, 36
   13920:	eae10028 	lwi	r23, r1, 40
   13924:	10600000 	addk	r3, r0, r0
   13928:	b60f0008 	rtsd	r15, 8
   1392c:	3021002c 	addik	r1, r1, 44
   13930:	b0000001 	imm	1
   13934:	30a067b0 	addik	r5, r0, 26544
   13938:	b9f413a0 	brlid	r15, 5024	// 14cd8 <Xil_Assert>
   1393c:	30c0030d 	addik	r6, r0, 781
   13940:	30600001 	addik	r3, r0, 1
   13944:	b0000001 	imm	1
   13948:	f8606dc8 	swi	r3, r0, 28104	// 16dc8 <Xil_AssertStatus>
   1394c:	e9e10000 	lwi	r15, r1, 0
   13950:	ea610020 	lwi	r19, r1, 32
   13954:	eac10024 	lwi	r22, r1, 36
   13958:	eae10028 	lwi	r23, r1, 40
   1395c:	10600000 	addk	r3, r0, r0
   13960:	b60f0008 	rtsd	r15, 8
   13964:	3021002c 	addik	r1, r1, 44
   13968:	b000ffff 	imm	-1
   1396c:	b9f4fd94 	brlid	r15, -620	// 13700 <XIntc_Disable>
   13970:	f8e1001c 	swi	r7, r1, 28
   13974:	e8730000 	lwi	r3, r19, 0
   13978:	e8e1001c 	lwi	r7, r1, 28
   1397c:	10d60000 	addk	r6, r22, r0
   13980:	10b30000 	addk	r5, r19, r0
   13984:	f8e30100 	swi	r7, r3, 256
   13988:	e8830020 	lwi	r4, r3, 32
   1398c:	82f72000 	or	r23, r23, r4
   13990:	fae30020 	swi	r23, r3, 32
   13994:	b000ffff 	imm	-1
   13998:	b9f4fca8 	brlid	r15, -856	// 13640 <XIntc_Enable>
   1399c:	80000000 	or	r0, r0, r0
   139a0:	b810ffb0 	brid	-80		// 13950
   139a4:	e9e10000 	lwi	r15, r1, 0
   139a8:	b0000001 	imm	1
   139ac:	30a067b0 	addik	r5, r0, 26544
   139b0:	b9f41328 	brlid	r15, 4904	// 14cd8 <Xil_Assert>
   139b4:	30c0030b 	addik	r6, r0, 779
   139b8:	e9e10000 	lwi	r15, r1, 0
   139bc:	ea610020 	lwi	r19, r1, 32
   139c0:	eac10024 	lwi	r22, r1, 36
   139c4:	eae10028 	lwi	r23, r1, 40
   139c8:	30600001 	addik	r3, r0, 1
   139cc:	b0000001 	imm	1
   139d0:	f8606dc8 	swi	r3, r0, 28104	// 16dc8 <Xil_AssertStatus>
   139d4:	10600000 	addk	r3, r0, r0
   139d8:	b60f0008 	rtsd	r15, 8
   139dc:	3021002c 	addik	r1, r1, 44
   139e0:	b0000001 	imm	1
   139e4:	30a067b0 	addik	r5, r0, 26544
   139e8:	b9f412f0 	brlid	r15, 4848	// 14cd8 <Xil_Assert>
   139ec:	30c0030e 	addik	r6, r0, 782
   139f0:	e9e10000 	lwi	r15, r1, 0
   139f4:	ea610020 	lwi	r19, r1, 32
   139f8:	eac10024 	lwi	r22, r1, 36
   139fc:	eae10028 	lwi	r23, r1, 40
   13a00:	30600001 	addik	r3, r0, 1
   13a04:	b0000001 	imm	1
   13a08:	f8606dc8 	swi	r3, r0, 28104	// 16dc8 <Xil_AssertStatus>
   13a0c:	10600000 	addk	r3, r0, r0
   13a10:	b60f0008 	rtsd	r15, 8
   13a14:	3021002c 	addik	r1, r1, 44
   13a18:	b0000001 	imm	1
   13a1c:	30a067b0 	addik	r5, r0, 26544
   13a20:	b9f412b8 	brlid	r15, 4792	// 14cd8 <Xil_Assert>
   13a24:	30c0030a 	addik	r6, r0, 778
   13a28:	30600001 	addik	r3, r0, 1
   13a2c:	b0000001 	imm	1
   13a30:	f8606dc8 	swi	r3, r0, 28104	// 16dc8 <Xil_AssertStatus>
   13a34:	b810ff1c 	brid	-228		// 13950
   13a38:	e9e10000 	lwi	r15, r1, 0
   13a3c:	b0000001 	imm	1
   13a40:	30a067b0 	addik	r5, r0, 26544
   13a44:	b9f41294 	brlid	r15, 4756	// 14cd8 <Xil_Assert>
   13a48:	30c0030c 	addik	r6, r0, 780
   13a4c:	30600001 	addik	r3, r0, 1
   13a50:	b0000001 	imm	1
   13a54:	f8606dc8 	swi	r3, r0, 28104	// 16dc8 <Xil_AssertStatus>
   13a58:	b810fef8 	brid	-264		// 13950
   13a5c:	e9e10000 	lwi	r15, r1, 0

00013a60 <XIntc_SetNormalIntrMode>:
   13a60:	3021ffd4 	addik	r1, r1, -44
   13a64:	f9e10000 	swi	r15, r1, 0
   13a68:	fa61001c 	swi	r19, r1, 28
   13a6c:	fac10020 	swi	r22, r1, 32
   13a70:	fae10024 	swi	r23, r1, 36
   13a74:	be050168 	beqid	r5, 360		// 13bdc
   13a78:	fb010028 	swi	r24, r1, 40
   13a7c:	b0000001 	imm	1
   13a80:	f8006dc8 	swi	r0, r0, 28104	// 16dc8 <Xil_AssertStatus>
   13a84:	be2600e8 	bneid	r6, 232		// 13b6c
   13a88:	12660000 	addk	r19, r6, r0
   13a8c:	e8650004 	lwi	r3, r5, 4
   13a90:	b0001111 	imm	4369
   13a94:	a8631111 	xori	r3, r3, 4369
   13a98:	be230088 	bneid	r3, 136		// 13b20
   13a9c:	12c50000 	addk	r22, r5, r0
   13aa0:	e8650010 	lwi	r3, r5, 16
   13aa4:	e863000c 	lwi	r3, r3, 12
   13aa8:	a8630001 	xori	r3, r3, 1
   13aac:	bc2300f8 	bnei	r3, 248		// 13ba4
   13ab0:	e8650000 	lwi	r3, r5, 0
   13ab4:	b0000001 	imm	1
   13ab8:	eae06d48 	lwi	r23, r0, 27976	// 16d48 <XIntc_BitPosMask>
   13abc:	eb030008 	lwi	r24, r3, 8
   13ac0:	8717c000 	and	r24, r23, r24
   13ac4:	bc380094 	bnei	r24, 148		// 13b58
   13ac8:	e8830020 	lwi	r4, r3, 32
   13acc:	aaf7ffff 	xori	r23, r23, -1
   13ad0:	30a30100 	addik	r5, r3, 256
   13ad4:	86f72000 	and	r23, r23, r4
   13ad8:	fae30020 	swi	r23, r3, 32
   13adc:	30600020 	addik	r3, r0, 32	// 20 <_vector_hw_exception>
   13ae0:	10939800 	addk	r4, r19, r19
   13ae4:	10842000 	addk	r4, r4, r4
   13ae8:	3063ffff 	addik	r3, r3, -1
   13aec:	30c00010 	addik	r6, r0, 16	// 10 <_vector_interrupt>
   13af0:	32730001 	addik	r19, r19, 1
   13af4:	d8c52000 	sw	r6, r5, r4
   13af8:	a46300ff 	andi	r3, r3, 255
   13afc:	be23ffe4 	bneid	r3, -28		// 13ae0
   13b00:	a67300ff 	andi	r19, r19, 255
   13b04:	be180038 	beqid	r24, 56		// 13b3c
   13b08:	10b60000 	addk	r5, r22, r0
   13b0c:	b000ffff 	imm	-1
   13b10:	b9f4fb30 	brlid	r15, -1232	// 13640 <XIntc_Enable>
   13b14:	30c00020 	addik	r6, r0, 32	// 20 <_vector_hw_exception>
   13b18:	b8100028 	brid	40		// 13b40
   13b1c:	e9e10000 	lwi	r15, r1, 0
   13b20:	b0000001 	imm	1
   13b24:	30a067b0 	addik	r5, r0, 26544
   13b28:	b9f411b0 	brlid	r15, 4528	// 14cd8 <Xil_Assert>
   13b2c:	30c0037a 	addik	r6, r0, 890
   13b30:	30600001 	addik	r3, r0, 1
   13b34:	b0000001 	imm	1
   13b38:	f8606dc8 	swi	r3, r0, 28104	// 16dc8 <Xil_AssertStatus>
   13b3c:	e9e10000 	lwi	r15, r1, 0
   13b40:	ea61001c 	lwi	r19, r1, 28
   13b44:	eac10020 	lwi	r22, r1, 32
   13b48:	eae10024 	lwi	r23, r1, 36
   13b4c:	eb010028 	lwi	r24, r1, 40
   13b50:	b60f0008 	rtsd	r15, 8
   13b54:	3021002c 	addik	r1, r1, 44
   13b58:	b000ffff 	imm	-1
   13b5c:	b9f4fba4 	brlid	r15, -1116	// 13700 <XIntc_Disable>
   13b60:	80000000 	or	r0, r0, r0
   13b64:	b810ff64 	brid	-156		// 13ac8
   13b68:	e8760000 	lwi	r3, r22, 0
   13b6c:	b0000001 	imm	1
   13b70:	30a067b0 	addik	r5, r0, 26544
   13b74:	b9f41164 	brlid	r15, 4452	// 14cd8 <Xil_Assert>
   13b78:	30c00379 	addik	r6, r0, 889
   13b7c:	e9e10000 	lwi	r15, r1, 0
   13b80:	ea61001c 	lwi	r19, r1, 28
   13b84:	eac10020 	lwi	r22, r1, 32
   13b88:	eae10024 	lwi	r23, r1, 36
   13b8c:	eb010028 	lwi	r24, r1, 40
   13b90:	30c00001 	addik	r6, r0, 1
   13b94:	b0000001 	imm	1
   13b98:	f8c06dc8 	swi	r6, r0, 28104	// 16dc8 <Xil_AssertStatus>
   13b9c:	b60f0008 	rtsd	r15, 8
   13ba0:	3021002c 	addik	r1, r1, 44
   13ba4:	b0000001 	imm	1
   13ba8:	30a067b0 	addik	r5, r0, 26544
   13bac:	b9f4112c 	brlid	r15, 4396	// 14cd8 <Xil_Assert>
   13bb0:	30c0037b 	addik	r6, r0, 891
   13bb4:	e9e10000 	lwi	r15, r1, 0
   13bb8:	ea61001c 	lwi	r19, r1, 28
   13bbc:	eac10020 	lwi	r22, r1, 32
   13bc0:	eae10024 	lwi	r23, r1, 36
   13bc4:	eb010028 	lwi	r24, r1, 40
   13bc8:	30c00001 	addik	r6, r0, 1
   13bcc:	b0000001 	imm	1
   13bd0:	f8c06dc8 	swi	r6, r0, 28104	// 16dc8 <Xil_AssertStatus>
   13bd4:	b60f0008 	rtsd	r15, 8
   13bd8:	3021002c 	addik	r1, r1, 44
   13bdc:	b0000001 	imm	1
   13be0:	30a067b0 	addik	r5, r0, 26544
   13be4:	b9f410f4 	brlid	r15, 4340	// 14cd8 <Xil_Assert>
   13be8:	30c00378 	addik	r6, r0, 888
   13bec:	30600001 	addik	r3, r0, 1
   13bf0:	b0000001 	imm	1
   13bf4:	f8606dc8 	swi	r3, r0, 28104	// 16dc8 <Xil_AssertStatus>
   13bf8:	b810ff48 	brid	-184		// 13b40
   13bfc:	e9e10000 	lwi	r15, r1, 0

00013c00 <XIntc_VoidInterruptHandler>:
   13c00:	3021ffe4 	addik	r1, r1, -28
   13c04:	f9e10000 	swi	r15, r1, 0
   13c08:	b9f40068 	brlid	r15, 104	// 13c70 <XIntc_DeviceInterruptHandler>
   13c0c:	10a00000 	addk	r5, r0, r0
   13c10:	e9e10000 	lwi	r15, r1, 0
   13c14:	b60f0008 	rtsd	r15, 8
   13c18:	3021001c 	addik	r1, r1, 28

00013c1c <XIntc_InterruptHandler>:
   13c1c:	3021ffe4 	addik	r1, r1, -28
   13c20:	be050028 	beqid	r5, 40		// 13c48
   13c24:	f9e10000 	swi	r15, r1, 0
   13c28:	e8650010 	lwi	r3, r5, 16
   13c2c:	b0000001 	imm	1
   13c30:	f8006dc8 	swi	r0, r0, 28104	// 16dc8 <Xil_AssertStatus>
   13c34:	b9f4003c 	brlid	r15, 60	// 13c70 <XIntc_DeviceInterruptHandler>
   13c38:	e4a30000 	lhui	r5, r3, 0
   13c3c:	e9e10000 	lwi	r15, r1, 0
   13c40:	b60f0008 	rtsd	r15, 8
   13c44:	3021001c 	addik	r1, r1, 28
   13c48:	b0000001 	imm	1
   13c4c:	30a067b8 	addik	r5, r0, 26552
   13c50:	b9f41088 	brlid	r15, 4232	// 14cd8 <Xil_Assert>
   13c54:	30c000a8 	addik	r6, r0, 168
   13c58:	e9e10000 	lwi	r15, r1, 0
   13c5c:	30600001 	addik	r3, r0, 1
   13c60:	b0000001 	imm	1
   13c64:	f8606dc8 	swi	r3, r0, 28104	// 16dc8 <Xil_AssertStatus>
   13c68:	b60f0008 	rtsd	r15, 8
   13c6c:	3021001c 	addik	r1, r1, 28

00013c70 <XIntc_DeviceInterruptHandler>:
   13c70:	10652800 	addk	r3, r5, r5
   13c74:	10631800 	addk	r3, r3, r3
   13c78:	3021ffc4 	addik	r1, r1, -60
   13c7c:	10651800 	addk	r3, r5, r3
   13c80:	f9e10000 	swi	r15, r1, 0
   13c84:	fa61001c 	swi	r19, r1, 28
   13c88:	fac10020 	swi	r22, r1, 32
   13c8c:	fae10024 	swi	r23, r1, 36
   13c90:	fb010028 	swi	r24, r1, 40
   13c94:	fb21002c 	swi	r25, r1, 44
   13c98:	fb410030 	swi	r26, r1, 48
   13c9c:	fb610034 	swi	r27, r1, 52
   13ca0:	fb810038 	swi	r28, r1, 56
   13ca4:	10801800 	addk	r4, r0, r3
   13ca8:	10831800 	addk	r4, r3, r3
   13cac:	10842000 	addk	r4, r4, r4
   13cb0:	10842000 	addk	r4, r4, r4
   13cb4:	b0000001 	imm	1
   13cb8:	306456a0 	addik	r3, r4, 22176
   13cbc:	e8830004 	lwi	r4, r3, 4
   13cc0:	e863000c 	lwi	r3, r3, 12
   13cc4:	e8c40000 	lwi	r6, r4, 0
   13cc8:	eac40008 	lwi	r22, r4, 8
   13ccc:	a8630001 	xori	r3, r3, 1
   13cd0:	be030124 	beqid	r3, 292		// 13df4
   13cd4:	86d63000 	and	r22, r22, r6
   13cd8:	13052800 	addk	r24, r5, r5
   13cdc:	1318c000 	addk	r24, r24, r24
   13ce0:	1305c000 	addk	r24, r5, r24
   13ce4:	1320c000 	addk	r25, r0, r24
   13ce8:	1338c000 	addk	r25, r24, r24
   13cec:	1339c800 	addk	r25, r25, r25
   13cf0:	1339c800 	addk	r25, r25, r25
   13cf4:	b0000001 	imm	1
   13cf8:	333956a0 	addik	r25, r25, 22176
   13cfc:	e8790014 	lwi	r3, r25, 20
   13d00:	12e00000 	addk	r23, r0, r0
   13d04:	be6300c4 	bleid	r3, 196		// 13dc8
   13d08:	32600001 	addik	r19, r0, 1
   13d0c:	33590008 	addik	r26, r25, 8
   13d10:	33790004 	addik	r27, r25, 4
   13d14:	33990018 	addik	r28, r25, 24
   13d18:	b8100018 	brid	24		// 13d30
   13d1c:	33390014 	addik	r25, r25, 20
   13d20:	e8790000 	lwi	r3, r25, 0
   13d24:	1643b801 	cmp	r18, r3, r23
   13d28:	beb200a4 	bgeid	r18, 164		// 13dcc
   13d2c:	e9e10000 	lwi	r15, r1, 0
   13d30:	1078b800 	addk	r3, r24, r23
   13d34:	30830004 	addik	r4, r3, 4
   13d38:	10842000 	addk	r4, r4, r4
   13d3c:	10631800 	addk	r3, r3, r3
   13d40:	10631800 	addk	r3, r3, r3
   13d44:	10842000 	addk	r4, r4, r4
   13d48:	10631800 	addk	r3, r3, r3
   13d4c:	10842000 	addk	r4, r4, r4
   13d50:	a4b60001 	andi	r5, r22, 1
   13d54:	b0000001 	imm	1
   13d58:	306356a0 	addik	r3, r3, 22176
   13d5c:	b0000001 	imm	1
   13d60:	308456a0 	addik	r4, r4, 22176
   13d64:	92d60041 	srl	r22, r22
   13d68:	be050058 	beqid	r5, 88		// 13dc0
   13d6c:	32f70001 	addik	r23, r23, 1
   13d70:	e8ba0000 	lwi	r5, r26, 0
   13d74:	84b32800 	and	r5, r19, r5
   13d78:	bc05000c 	beqi	r5, 12		// 13d84
   13d7c:	e8bb0000 	lwi	r5, r27, 0
   13d80:	fa65000c 	swi	r19, r5, 12
   13d84:	e8840000 	lwi	r4, r4, 0
   13d88:	99fc2000 	brald	r15, r4
   13d8c:	e8a30024 	lwi	r5, r3, 36
   13d90:	e87a0000 	lwi	r3, r26, 0
   13d94:	84731800 	and	r3, r19, r3
   13d98:	bc23000c 	bnei	r3, 12		// 13da4
   13d9c:	e87b0000 	lwi	r3, r27, 0
   13da0:	fa63000c 	swi	r19, r3, 12
   13da4:	e89b0000 	lwi	r4, r27, 0
   13da8:	e87c0000 	lwi	r3, r28, 0
   13dac:	e8a40000 	lwi	r5, r4, 0
   13db0:	e8840008 	lwi	r4, r4, 8
   13db4:	a8630001 	xori	r3, r3, 1
   13db8:	be030014 	beqid	r3, 20		// 13dcc
   13dbc:	e9e10000 	lwi	r15, r1, 0
   13dc0:	be36ff60 	bneid	r22, -160		// 13d20
   13dc4:	12739800 	addk	r19, r19, r19
   13dc8:	e9e10000 	lwi	r15, r1, 0
   13dcc:	ea61001c 	lwi	r19, r1, 28
   13dd0:	eac10020 	lwi	r22, r1, 32
   13dd4:	eae10024 	lwi	r23, r1, 36
   13dd8:	eb010028 	lwi	r24, r1, 40
   13ddc:	eb21002c 	lwi	r25, r1, 44
   13de0:	eb410030 	lwi	r26, r1, 48
   13de4:	eb610034 	lwi	r27, r1, 52
   13de8:	eb810038 	lwi	r28, r1, 56
   13dec:	b60f0008 	rtsd	r15, 8
   13df0:	3021003c 	addik	r1, r1, 60
   13df4:	e8640020 	lwi	r3, r4, 32
   13df8:	a863ffff 	xori	r3, r3, -1
   13dfc:	b810fedc 	brid	-292		// 13cd8
   13e00:	86d61800 	and	r22, r22, r3

00013e04 <XIntc_LowLevelInterruptHandler>:
   13e04:	3021ffe4 	addik	r1, r1, -28
   13e08:	f9e10000 	swi	r15, r1, 0
   13e0c:	b000ffff 	imm	-1
   13e10:	b9f4fe60 	brlid	r15, -416	// 13c70 <XIntc_DeviceInterruptHandler>
   13e14:	10a00000 	addk	r5, r0, r0
   13e18:	e9e10000 	lwi	r15, r1, 0
   13e1c:	b60f0008 	rtsd	r15, 8
   13e20:	3021001c 	addik	r1, r1, 28

00013e24 <XIntc_SetIntrSvcOption>:
   13e24:	b0000001 	imm	1
   13e28:	e86056a4 	lwi	r3, r0, 22180
   13e2c:	88a51800 	xor	r5, r5, r3
   13e30:	bc05000c 	beqi	r5, 12		// 13e3c
   13e34:	b60f0008 	rtsd	r15, 8
   13e38:	80000000 	or	r0, r0, r0
   13e3c:	b0000001 	imm	1
   13e40:	f8c056b8 	swi	r6, r0, 22200
   13e44:	b60f0008 	rtsd	r15, 8
   13e48:	80000000 	or	r0, r0, r0

00013e4c <XIntc_RegisterHandler>:
   13e4c:	b0000001 	imm	1
   13e50:	e86056a4 	lwi	r3, r0, 22180
   13e54:	88a51800 	xor	r5, r5, r3
   13e58:	bc05000c 	beqi	r5, 12		// 13e64
   13e5c:	b60f0008 	rtsd	r15, 8
   13e60:	80000000 	or	r0, r0, r0
   13e64:	3060001f 	addik	r3, r0, 31
   13e68:	16461801 	cmp	r18, r6, r3
   13e6c:	be520038 	bltid	r18, 56		// 13ea4
   13e70:	30660004 	addik	r3, r6, 4
   13e74:	10631800 	addk	r3, r3, r3
   13e78:	10631800 	addk	r3, r3, r3
   13e7c:	10c63000 	addk	r6, r6, r6
   13e80:	10631800 	addk	r3, r3, r3
   13e84:	10c63000 	addk	r6, r6, r6
   13e88:	b0000001 	imm	1
   13e8c:	f8e356a0 	swi	r7, r3, 22176
   13e90:	10c63000 	addk	r6, r6, r6
   13e94:	b0000001 	imm	1
   13e98:	f90656c4 	swi	r8, r6, 22212
   13e9c:	b60f0008 	rtsd	r15, 8
   13ea0:	80000000 	or	r0, r0, r0
   13ea4:	3021fff0 	addik	r1, r1, -16
   13ea8:	fa610004 	swi	r19, r1, 4
   13eac:	12660000 	addk	r19, r6, r0
   13eb0:	10a03000 	addk	r5, r0, r6
   13eb4:	90a60001 	sra	r5, r6
   13eb8:	90a50001 	sra	r5, r5
   13ebc:	90a50001 	sra	r5, r5
   13ec0:	90a50001 	sra	r5, r5
   13ec4:	90a50001 	sra	r5, r5
   13ec8:	b0000000 	imm	0
   13ecc:	a4a5ffff 	andi	r5, r5, -1
   13ed0:	f9e10000 	swi	r15, r1, 0
   13ed4:	fac10008 	swi	r22, r1, 8
   13ed8:	fae1000c 	swi	r23, r1, 12
   13edc:	12c70000 	addk	r22, r7, r0
   13ee0:	b000ffff 	imm	-1
   13ee4:	b9f4f998 	brlid	r15, -1640	// 1387c <XIntc_LookupConfig>
   13ee8:	12e80000 	addk	r23, r8, r0
   13eec:	a4d3001f 	andi	r6, r19, 31
   13ef0:	30860004 	addik	r4, r6, 4
   13ef4:	10842000 	addk	r4, r4, r4
   13ef8:	10c63000 	addk	r6, r6, r6
   13efc:	10842000 	addk	r4, r4, r4
   13f00:	10c63000 	addk	r6, r6, r6
   13f04:	10842000 	addk	r4, r4, r4
   13f08:	10c63000 	addk	r6, r6, r6
   13f0c:	dac41800 	sw	r22, r4, r3
   13f10:	10c33000 	addk	r6, r3, r6
   13f14:	fae60024 	swi	r23, r6, 36
   13f18:	e9e10000 	lwi	r15, r1, 0
   13f1c:	ea610004 	lwi	r19, r1, 4
   13f20:	eac10008 	lwi	r22, r1, 8
   13f24:	eae1000c 	lwi	r23, r1, 12
   13f28:	b60f0008 	rtsd	r15, 8
   13f2c:	30210010 	addik	r1, r1, 16

00013f30 <XIntc_RegisterFastHandler>:
   13f30:	3060001f 	addik	r3, r0, 31
   13f34:	16461803 	cmpu	r18, r6, r3
   13f38:	bc520088 	blti	r18, 136		// 13fc0
   13f3c:	10c63000 	addk	r6, r6, r6
   13f40:	10c63000 	addk	r6, r6, r6
   13f44:	b0000001 	imm	1
   13f48:	30666d48 	addik	r3, r6, 27976
   13f4c:	e8850008 	lwi	r4, r5, 8
   13f50:	e8630000 	lwi	r3, r3, 0
   13f54:	84832000 	and	r4, r3, r4
   13f58:	be040048 	beqid	r4, 72		// 13fa0
   13f5c:	30850100 	addik	r4, r5, 256
   13f60:	e9050008 	lwi	r8, r5, 8
   13f64:	a883ffff 	xori	r4, r3, -1
   13f68:	31250100 	addik	r9, r5, 256
   13f6c:	84844000 	and	r4, r4, r8
   13f70:	f8850008 	swi	r4, r5, 8
   13f74:	d8e93000 	sw	r7, r9, r6
   13f78:	e8850020 	lwi	r4, r5, 32
   13f7c:	85034000 	and	r8, r3, r8
   13f80:	80832000 	or	r4, r3, r4
   13f84:	f8850020 	swi	r4, r5, 32
   13f88:	bc080030 	beqi	r8, 48		// 13fb8
   13f8c:	e8850008 	lwi	r4, r5, 8
   13f90:	80632000 	or	r3, r3, r4
   13f94:	f8650008 	swi	r3, r5, 8
   13f98:	b60f0008 	rtsd	r15, 8
   13f9c:	80000000 	or	r0, r0, r0
   13fa0:	d8e62000 	sw	r7, r6, r4
   13fa4:	e8850020 	lwi	r4, r5, 32
   13fa8:	80641800 	or	r3, r4, r3
   13fac:	f8650020 	swi	r3, r5, 32
   13fb0:	b60f0008 	rtsd	r15, 8
   13fb4:	80000000 	or	r0, r0, r0
   13fb8:	b60f0008 	rtsd	r15, 8
   13fbc:	80000000 	or	r0, r0, r0
   13fc0:	3021fff4 	addik	r1, r1, -12
   13fc4:	fa610004 	swi	r19, r1, 4
   13fc8:	12660000 	addk	r19, r6, r0
   13fcc:	10a03000 	addk	r5, r0, r6
   13fd0:	90a60041 	srl	r5, r6
   13fd4:	90a50041 	srl	r5, r5
   13fd8:	90a50041 	srl	r5, r5
   13fdc:	90a50041 	srl	r5, r5
   13fe0:	90a50041 	srl	r5, r5
   13fe4:	fac10008 	swi	r22, r1, 8
   13fe8:	f9e10000 	swi	r15, r1, 0
   13fec:	b000ffff 	imm	-1
   13ff0:	b9f4f88c 	brlid	r15, -1908	// 1387c <XIntc_LookupConfig>
   13ff4:	12c70000 	addk	r22, r7, r0
   13ff8:	a4d3001f 	andi	r6, r19, 31
   13ffc:	e8630004 	lwi	r3, r3, 4
   14000:	10c63000 	addk	r6, r6, r6
   14004:	10c63000 	addk	r6, r6, r6
   14008:	b0000001 	imm	1
   1400c:	30866d48 	addik	r4, r6, 27976
   14010:	e8a30008 	lwi	r5, r3, 8
   14014:	e8840000 	lwi	r4, r4, 0
   14018:	84e42800 	and	r7, r4, r5
   1401c:	bc270028 	bnei	r7, 40		// 14044
   14020:	30c60100 	addik	r6, r6, 256
   14024:	dac33000 	sw	r22, r3, r6
   14028:	3080ffff 	addik	r4, r0, -1
   1402c:	f8830020 	swi	r4, r3, 32
   14030:	e9e10000 	lwi	r15, r1, 0
   14034:	ea610004 	lwi	r19, r1, 4
   14038:	eac10008 	lwi	r22, r1, 8
   1403c:	b60f0008 	rtsd	r15, 8
   14040:	3021000c 	addik	r1, r1, 12
   14044:	a8e4ffff 	xori	r7, r4, -1
   14048:	84e72800 	and	r7, r7, r5
   1404c:	f8e30008 	swi	r7, r3, 8
   14050:	30c60100 	addik	r6, r6, 256
   14054:	dac33000 	sw	r22, r3, r6
   14058:	30c0ffff 	addik	r6, r0, -1
   1405c:	f8c30020 	swi	r6, r3, 32
   14060:	80842800 	or	r4, r4, r5
   14064:	f8830008 	swi	r4, r3, 8
   14068:	e9e10000 	lwi	r15, r1, 0
   1406c:	ea610004 	lwi	r19, r1, 4
   14070:	eac10008 	lwi	r22, r1, 8
   14074:	b60f0008 	rtsd	r15, 8
   14078:	3021000c 	addik	r1, r1, 12

0001407c <XTmrCtr_StubCallback>:
   1407c:	3021ffe0 	addik	r1, r1, -32
   14080:	f9e10000 	swi	r15, r1, 0
   14084:	be050048 	beqid	r5, 72		// 140cc
   14088:	fa61001c 	swi	r19, r1, 28
   1408c:	b0000001 	imm	1
   14090:	f8006dc8 	swi	r0, r0, 28104	// 16dc8 <Xil_AssertStatus>
   14094:	32600001 	addik	r19, r0, 1
   14098:	16469803 	cmpu	r18, r6, r19
   1409c:	beb20024 	bgeid	r18, 36		// 140c0
   140a0:	e9e10000 	lwi	r15, r1, 0
   140a4:	b0000001 	imm	1
   140a8:	30a067c8 	addik	r5, r0, 26568
   140ac:	b9f40c2c 	brlid	r15, 3116	// 14cd8 <Xil_Assert>
   140b0:	30c00217 	addik	r6, r0, 535
   140b4:	b0000001 	imm	1
   140b8:	fa606dc8 	swi	r19, r0, 28104	// 16dc8 <Xil_AssertStatus>
   140bc:	e9e10000 	lwi	r15, r1, 0
   140c0:	ea61001c 	lwi	r19, r1, 28
   140c4:	b60f0008 	rtsd	r15, 8
   140c8:	30210020 	addik	r1, r1, 32
   140cc:	b0000001 	imm	1
   140d0:	30a067c8 	addik	r5, r0, 26568
   140d4:	b9f40c04 	brlid	r15, 3076	// 14cd8 <Xil_Assert>
   140d8:	30c00216 	addik	r6, r0, 534
   140dc:	30600001 	addik	r3, r0, 1
   140e0:	b0000001 	imm	1
   140e4:	f8606dc8 	swi	r3, r0, 28104	// 16dc8 <Xil_AssertStatus>
   140e8:	b810ffd8 	brid	-40		// 140c0
   140ec:	e9e10000 	lwi	r15, r1, 0

000140f0 <XTmrCtr_CfgInitialize>:
   140f0:	3021ffe4 	addik	r1, r1, -28
   140f4:	be050084 	beqid	r5, 132		// 14178
   140f8:	f9e10000 	swi	r15, r1, 0
   140fc:	b0000001 	imm	1
   14100:	f8006dc8 	swi	r0, r0, 28104	// 16dc8 <Xil_AssertStatus>
   14104:	bc060098 	beqi	r6, 152		// 1419c
   14108:	bc070048 	beqi	r7, 72		// 14150
   1410c:	e8660008 	lwi	r3, r6, 8
   14110:	e8c60000 	lwi	r6, r6, 0
   14114:	f8e50004 	swi	r7, r5, 4
   14118:	f8650008 	swi	r3, r5, 8
   1411c:	b0000001 	imm	1
   14120:	3060407c 	addik	r3, r0, 16508	// 1407c <XTmrCtr_StubCallback>
   14124:	f8c50000 	swi	r6, r5, 0
   14128:	f8e50010 	swi	r7, r5, 16
   1412c:	f8650020 	swi	r3, r5, 32
   14130:	b0001111 	imm	4369
   14134:	30601111 	addik	r3, r0, 4369
   14138:	f8a50024 	swi	r5, r5, 36
   1413c:	f805000c 	swi	r0, r5, 12
   14140:	f8650014 	swi	r3, r5, 20
   14144:	e9e10000 	lwi	r15, r1, 0
   14148:	b60f0008 	rtsd	r15, 8
   1414c:	3021001c 	addik	r1, r1, 28
   14150:	b0000001 	imm	1
   14154:	30a067c8 	addik	r5, r0, 26568
   14158:	b9f40b80 	brlid	r15, 2944	// 14cd8 <Xil_Assert>
   1415c:	30c00074 	addik	r6, r0, 116
   14160:	e9e10000 	lwi	r15, r1, 0
   14164:	30600001 	addik	r3, r0, 1
   14168:	b0000001 	imm	1
   1416c:	f8606dc8 	swi	r3, r0, 28104	// 16dc8 <Xil_AssertStatus>
   14170:	b60f0008 	rtsd	r15, 8
   14174:	3021001c 	addik	r1, r1, 28
   14178:	b0000001 	imm	1
   1417c:	30a067c8 	addik	r5, r0, 26568
   14180:	b9f40b58 	brlid	r15, 2904	// 14cd8 <Xil_Assert>
   14184:	30c00072 	addik	r6, r0, 114
   14188:	30600001 	addik	r3, r0, 1
   1418c:	b0000001 	imm	1
   14190:	f8606dc8 	swi	r3, r0, 28104	// 16dc8 <Xil_AssertStatus>
   14194:	b810ffb4 	brid	-76		// 14148
   14198:	e9e10000 	lwi	r15, r1, 0
   1419c:	b0000001 	imm	1
   141a0:	30a067c8 	addik	r5, r0, 26568
   141a4:	b9f40b34 	brlid	r15, 2868	// 14cd8 <Xil_Assert>
   141a8:	30c00073 	addik	r6, r0, 115
   141ac:	30600001 	addik	r3, r0, 1
   141b0:	b0000001 	imm	1
   141b4:	f8606dc8 	swi	r3, r0, 28104	// 16dc8 <Xil_AssertStatus>
   141b8:	b810ff90 	brid	-112		// 14148
   141bc:	e9e10000 	lwi	r15, r1, 0

000141c0 <XTmrCtr_InitHw>:
   141c0:	3021ffd8 	addik	r1, r1, -40
   141c4:	fa610024 	swi	r19, r1, 36
   141c8:	f9e10000 	swi	r15, r1, 0
   141cc:	be050104 	beqid	r5, 260		// 142d0
   141d0:	12650000 	addk	r19, r5, r0
   141d4:	e8850014 	lwi	r4, r5, 20
   141d8:	b0000001 	imm	1
   141dc:	f8006dc8 	swi	r0, r0, 28104	// 16dc8 <Xil_AssertStatus>
   141e0:	b0001111 	imm	4369
   141e4:	a8841111 	xori	r4, r4, 4369
   141e8:	be2400b8 	bneid	r4, 184		// 142a0
   141ec:	30600005 	addik	r3, r0, 5
   141f0:	e8c50018 	lwi	r6, r5, 24
   141f4:	e925001c 	lwi	r9, r5, 28
   141f8:	30a00002 	addik	r5, r0, 2
   141fc:	f8c1001c 	swi	r6, r1, 28
   14200:	30a5ffff 	addik	r5, r5, -1
   14204:	f9210020 	swi	r9, r1, 32
   14208:	b0002222 	imm	8738
   1420c:	a8c62222 	xori	r6, r6, 8738
   14210:	3141001c 	addik	r10, r1, 28
   14214:	30e40001 	addik	r7, r4, 1
   14218:	be06003c 	beqid	r6, 60		// 14254
   1421c:	a4a500ff 	andi	r5, r5, 255
   14220:	e8d30010 	lwi	r6, r19, 16
   14224:	b0000001 	imm	1
   14228:	e10456c8 	lbui	r8, r4, 22216
   1422c:	10600000 	addk	r3, r0, r0
   14230:	31260004 	addik	r9, r6, 4
   14234:	d8684800 	sw	r3, r8, r9
   14238:	b0000001 	imm	1
   1423c:	e10456c8 	lbui	r8, r4, 22216
   14240:	31200120 	addik	r9, r0, 288
   14244:	d9264000 	sw	r9, r6, r8
   14248:	b0000001 	imm	1
   1424c:	e08456c8 	lbui	r4, r4, 22216
   14250:	d8662000 	sw	r3, r6, r4
   14254:	a48700ff 	andi	r4, r7, 255
   14258:	10c42000 	addk	r6, r4, r4
   1425c:	be050034 	beqid	r5, 52		// 14290
   14260:	10c63000 	addk	r6, r6, r6
   14264:	c8c65000 	lw	r6, r6, r10
   14268:	30a5ffff 	addik	r5, r5, -1
   1426c:	30e40001 	addik	r7, r4, 1
   14270:	b0002222 	imm	8738
   14274:	a8c62222 	xori	r6, r6, 8738
   14278:	be26ffa8 	bneid	r6, -88		// 14220
   1427c:	a4a500ff 	andi	r5, r5, 255
   14280:	a48700ff 	andi	r4, r7, 255
   14284:	10c42000 	addk	r6, r4, r4
   14288:	be25ffdc 	bneid	r5, -36		// 14264
   1428c:	10c63000 	addk	r6, r6, r6
   14290:	e9e10000 	lwi	r15, r1, 0
   14294:	ea610024 	lwi	r19, r1, 36
   14298:	b60f0008 	rtsd	r15, 8
   1429c:	30210028 	addik	r1, r1, 40
   142a0:	b0000001 	imm	1
   142a4:	30a067c8 	addik	r5, r0, 26568
   142a8:	b9f40a30 	brlid	r15, 2608	// 14cd8 <Xil_Assert>
   142ac:	30c00098 	addik	r6, r0, 152
   142b0:	e9e10000 	lwi	r15, r1, 0
   142b4:	ea610024 	lwi	r19, r1, 36
   142b8:	30600001 	addik	r3, r0, 1
   142bc:	b0000001 	imm	1
   142c0:	f8606dc8 	swi	r3, r0, 28104	// 16dc8 <Xil_AssertStatus>
   142c4:	10600000 	addk	r3, r0, r0
   142c8:	b60f0008 	rtsd	r15, 8
   142cc:	30210028 	addik	r1, r1, 40
   142d0:	b0000001 	imm	1
   142d4:	30a067c8 	addik	r5, r0, 26568
   142d8:	b9f40a00 	brlid	r15, 2560	// 14cd8 <Xil_Assert>
   142dc:	30c00097 	addik	r6, r0, 151
   142e0:	30600001 	addik	r3, r0, 1
   142e4:	b0000001 	imm	1
   142e8:	f8606dc8 	swi	r3, r0, 28104	// 16dc8 <Xil_AssertStatus>
   142ec:	b810ffa4 	brid	-92		// 14290
   142f0:	10730000 	addk	r3, r19, r0

000142f4 <XTmrCtr_Initialize>:
   142f4:	3021ffe0 	addik	r1, r1, -32
   142f8:	fa61001c 	swi	r19, r1, 28
   142fc:	f9e10000 	swi	r15, r1, 0
   14300:	be050090 	beqid	r5, 144		// 14390
   14304:	12650000 	addk	r19, r5, r0
   14308:	e8650018 	lwi	r3, r5, 24
   1430c:	b0000001 	imm	1
   14310:	f8006dc8 	swi	r0, r0, 28104	// 16dc8 <Xil_AssertStatus>
   14314:	b0002222 	imm	8738
   14318:	a8632222 	xori	r3, r3, 8738
   1431c:	bc030044 	beqi	r3, 68		// 14360
   14320:	b9f40968 	brlid	r15, 2408	// 14c88 <XTmrCtr_LookupConfig>
   14324:	10a60000 	addk	r5, r6, r0
   14328:	10c30000 	addk	r6, r3, r0
   1432c:	be060024 	beqid	r6, 36		// 14350
   14330:	30600002 	addik	r3, r0, 2
   14334:	10b30000 	addk	r5, r19, r0
   14338:	b000ffff 	imm	-1
   1433c:	b9f4fdb4 	brlid	r15, -588	// 140f0 <XTmrCtr_CfgInitialize>
   14340:	e8e60004 	lwi	r7, r6, 4
   14344:	b000ffff 	imm	-1
   14348:	b9f4fe78 	brlid	r15, -392	// 141c0 <XTmrCtr_InitHw>
   1434c:	10b30000 	addk	r5, r19, r0
   14350:	e9e10000 	lwi	r15, r1, 0
   14354:	ea61001c 	lwi	r19, r1, 28
   14358:	b60f0008 	rtsd	r15, 8
   1435c:	30210020 	addik	r1, r1, 32
   14360:	e885001c 	lwi	r4, r5, 28
   14364:	b0002222 	imm	8738
   14368:	a8842222 	xori	r4, r4, 8738
   1436c:	be04ffe4 	beqid	r4, -28		// 14350
   14370:	30600005 	addik	r3, r0, 5
   14374:	b9f40914 	brlid	r15, 2324	// 14c88 <XTmrCtr_LookupConfig>
   14378:	10a60000 	addk	r5, r6, r0
   1437c:	10c30000 	addk	r6, r3, r0
   14380:	be26ffb4 	bneid	r6, -76		// 14334
   14384:	30600002 	addik	r3, r0, 2
   14388:	b810ffcc 	brid	-52		// 14354
   1438c:	e9e10000 	lwi	r15, r1, 0
   14390:	b0000001 	imm	1
   14394:	30a067c8 	addik	r5, r0, 26568
   14398:	b9f40940 	brlid	r15, 2368	// 14cd8 <Xil_Assert>
   1439c:	30c000cf 	addik	r6, r0, 207
   143a0:	30600001 	addik	r3, r0, 1
   143a4:	b0000001 	imm	1
   143a8:	f8606dc8 	swi	r3, r0, 28104	// 16dc8 <Xil_AssertStatus>
   143ac:	b810ffa4 	brid	-92		// 14350
   143b0:	10730000 	addk	r3, r19, r0

000143b4 <XTmrCtr_Start>:
   143b4:	3021ffe0 	addik	r1, r1, -32
   143b8:	f9e10000 	swi	r15, r1, 0
   143bc:	be0500d4 	beqid	r5, 212		// 14490
   143c0:	fa61001c 	swi	r19, r1, 28
   143c4:	b0000001 	imm	1
   143c8:	f8006dc8 	swi	r0, r0, 28104	// 16dc8 <Xil_AssertStatus>
   143cc:	32600001 	addik	r19, r0, 1
   143d0:	16469803 	cmpu	r18, r6, r19
   143d4:	bc520084 	blti	r18, 132		// 14458
   143d8:	e8650014 	lwi	r3, r5, 20
   143dc:	b0001111 	imm	4369
   143e0:	a8631111 	xori	r3, r3, 4369
   143e4:	be23004c 	bneid	r3, 76		// 14430
   143e8:	31000020 	addik	r8, r0, 32	// 20 <_vector_hw_exception>
   143ec:	e8650010 	lwi	r3, r5, 16
   143f0:	b0000001 	imm	1
   143f4:	e0e656c8 	lbui	r7, r6, 22216
   143f8:	c8833800 	lw	r4, r3, r7
   143fc:	d9033800 	sw	r8, r3, r7
   14400:	bc060080 	beqi	r6, 128		// 14480
   14404:	b0002222 	imm	8738
   14408:	31002222 	addik	r8, r0, 8738
   1440c:	f905001c 	swi	r8, r5, 28
   14410:	b0000001 	imm	1
   14414:	e0a656c8 	lbui	r5, r6, 22216
   14418:	a0840080 	ori	r4, r4, 128
   1441c:	d8832800 	sw	r4, r3, r5
   14420:	e9e10000 	lwi	r15, r1, 0
   14424:	ea61001c 	lwi	r19, r1, 28
   14428:	b60f0008 	rtsd	r15, 8
   1442c:	30210020 	addik	r1, r1, 32
   14430:	b0000001 	imm	1
   14434:	30a067c8 	addik	r5, r0, 26568
   14438:	b9f408a0 	brlid	r15, 2208	// 14cd8 <Xil_Assert>
   1443c:	30c00100 	addik	r6, r0, 256
   14440:	b0000001 	imm	1
   14444:	fa606dc8 	swi	r19, r0, 28104	// 16dc8 <Xil_AssertStatus>
   14448:	e9e10000 	lwi	r15, r1, 0
   1444c:	ea61001c 	lwi	r19, r1, 28
   14450:	b60f0008 	rtsd	r15, 8
   14454:	30210020 	addik	r1, r1, 32
   14458:	b0000001 	imm	1
   1445c:	30a067c8 	addik	r5, r0, 26568
   14460:	b9f40878 	brlid	r15, 2168	// 14cd8 <Xil_Assert>
   14464:	30c000ff 	addik	r6, r0, 255
   14468:	e9e10000 	lwi	r15, r1, 0
   1446c:	b0000001 	imm	1
   14470:	fa606dc8 	swi	r19, r0, 28104	// 16dc8 <Xil_AssertStatus>
   14474:	ea61001c 	lwi	r19, r1, 28
   14478:	b60f0008 	rtsd	r15, 8
   1447c:	30210020 	addik	r1, r1, 32
   14480:	b0002222 	imm	8738
   14484:	30e02222 	addik	r7, r0, 8738
   14488:	b810ff88 	brid	-120		// 14410
   1448c:	f8e50018 	swi	r7, r5, 24
   14490:	b0000001 	imm	1
   14494:	30a067c8 	addik	r5, r0, 26568
   14498:	b9f40840 	brlid	r15, 2112	// 14cd8 <Xil_Assert>
   1449c:	30c000fe 	addik	r6, r0, 254
   144a0:	30600001 	addik	r3, r0, 1
   144a4:	b0000001 	imm	1
   144a8:	f8606dc8 	swi	r3, r0, 28104	// 16dc8 <Xil_AssertStatus>
   144ac:	b810ffa0 	brid	-96		// 1444c
   144b0:	e9e10000 	lwi	r15, r1, 0

000144b4 <XTmrCtr_Stop>:
   144b4:	3021ffe0 	addik	r1, r1, -32
   144b8:	f9e10000 	swi	r15, r1, 0
   144bc:	be0500c0 	beqid	r5, 192		// 1457c
   144c0:	fa61001c 	swi	r19, r1, 28
   144c4:	b0000001 	imm	1
   144c8:	f8006dc8 	swi	r0, r0, 28104	// 16dc8 <Xil_AssertStatus>
   144cc:	32600001 	addik	r19, r0, 1
   144d0:	16469803 	cmpu	r18, r6, r19
   144d4:	bc52006c 	blti	r18, 108		// 14540
   144d8:	e8650014 	lwi	r3, r5, 20
   144dc:	b0001111 	imm	4369
   144e0:	a8631111 	xori	r3, r3, 4369
   144e4:	bc230034 	bnei	r3, 52		// 14518
   144e8:	b0000001 	imm	1
   144ec:	e10656c8 	lbui	r8, r6, 22216
   144f0:	e8e50010 	lwi	r7, r5, 16
   144f4:	c8874000 	lw	r4, r7, r8
   144f8:	a484ff7f 	andi	r4, r4, -129
   144fc:	d8874000 	sw	r4, r7, r8
   14500:	bc060068 	beqi	r6, 104		// 14568
   14504:	f865001c 	swi	r3, r5, 28
   14508:	e9e10000 	lwi	r15, r1, 0
   1450c:	ea61001c 	lwi	r19, r1, 28
   14510:	b60f0008 	rtsd	r15, 8
   14514:	30210020 	addik	r1, r1, 32
   14518:	b0000001 	imm	1
   1451c:	30a067c8 	addik	r5, r0, 26568
   14520:	b9f407b8 	brlid	r15, 1976	// 14cd8 <Xil_Assert>
   14524:	30c00141 	addik	r6, r0, 321
   14528:	e9e10000 	lwi	r15, r1, 0
   1452c:	b0000001 	imm	1
   14530:	fa606dc8 	swi	r19, r0, 28104	// 16dc8 <Xil_AssertStatus>
   14534:	ea61001c 	lwi	r19, r1, 28
   14538:	b60f0008 	rtsd	r15, 8
   1453c:	30210020 	addik	r1, r1, 32
   14540:	b0000001 	imm	1
   14544:	30a067c8 	addik	r5, r0, 26568
   14548:	b9f40790 	brlid	r15, 1936	// 14cd8 <Xil_Assert>
   1454c:	30c00140 	addik	r6, r0, 320
   14550:	e9e10000 	lwi	r15, r1, 0
   14554:	b0000001 	imm	1
   14558:	fa606dc8 	swi	r19, r0, 28104	// 16dc8 <Xil_AssertStatus>
   1455c:	ea61001c 	lwi	r19, r1, 28
   14560:	b60f0008 	rtsd	r15, 8
   14564:	30210020 	addik	r1, r1, 32
   14568:	f8c50018 	swi	r6, r5, 24
   1456c:	e9e10000 	lwi	r15, r1, 0
   14570:	ea61001c 	lwi	r19, r1, 28
   14574:	b60f0008 	rtsd	r15, 8
   14578:	30210020 	addik	r1, r1, 32
   1457c:	b0000001 	imm	1
   14580:	30a067c8 	addik	r5, r0, 26568
   14584:	b9f40754 	brlid	r15, 1876	// 14cd8 <Xil_Assert>
   14588:	30c0013f 	addik	r6, r0, 319
   1458c:	30600001 	addik	r3, r0, 1
   14590:	b0000001 	imm	1
   14594:	f8606dc8 	swi	r3, r0, 28104	// 16dc8 <Xil_AssertStatus>
   14598:	b810ff74 	brid	-140		// 1450c
   1459c:	e9e10000 	lwi	r15, r1, 0

000145a0 <XTmrCtr_GetValue>:
   145a0:	3021ffdc 	addik	r1, r1, -36
   145a4:	fa61001c 	swi	r19, r1, 28
   145a8:	f9e10000 	swi	r15, r1, 0
   145ac:	fac10020 	swi	r22, r1, 32
   145b0:	be0500b4 	beqid	r5, 180		// 14664
   145b4:	12650000 	addk	r19, r5, r0
   145b8:	b0000001 	imm	1
   145bc:	f8006dc8 	swi	r0, r0, 28104	// 16dc8 <Xil_AssertStatus>
   145c0:	32c00001 	addik	r22, r0, 1
   145c4:	1646b003 	cmpu	r18, r6, r22
   145c8:	bc52006c 	blti	r18, 108		// 14634
   145cc:	e8650014 	lwi	r3, r5, 20
   145d0:	b0001111 	imm	4369
   145d4:	a8631111 	xori	r3, r3, 4369
   145d8:	be030038 	beqid	r3, 56		// 14610
   145dc:	e9e10000 	lwi	r15, r1, 0
   145e0:	b0000001 	imm	1
   145e4:	30a067c8 	addik	r5, r0, 26568
   145e8:	b9f406f0 	brlid	r15, 1776	// 14cd8 <Xil_Assert>
   145ec:	30c00174 	addik	r6, r0, 372
   145f0:	10600000 	addk	r3, r0, r0
   145f4:	b0000001 	imm	1
   145f8:	fac06dc8 	swi	r22, r0, 28104	// 16dc8 <Xil_AssertStatus>
   145fc:	e9e10000 	lwi	r15, r1, 0
   14600:	ea61001c 	lwi	r19, r1, 28
   14604:	eac10020 	lwi	r22, r1, 32
   14608:	b60f0008 	rtsd	r15, 8
   1460c:	30210024 	addik	r1, r1, 36
   14610:	b0000001 	imm	1
   14614:	e06656c8 	lbui	r3, r6, 22216
   14618:	e8850010 	lwi	r4, r5, 16
   1461c:	ea61001c 	lwi	r19, r1, 28
   14620:	10632000 	addk	r3, r3, r4
   14624:	e8630008 	lwi	r3, r3, 8
   14628:	eac10020 	lwi	r22, r1, 32
   1462c:	b60f0008 	rtsd	r15, 8
   14630:	30210024 	addik	r1, r1, 36
   14634:	b0000001 	imm	1
   14638:	30a067c8 	addik	r5, r0, 26568
   1463c:	b9f4069c 	brlid	r15, 1692	// 14cd8 <Xil_Assert>
   14640:	30c00173 	addik	r6, r0, 371
   14644:	e9e10000 	lwi	r15, r1, 0
   14648:	b0000001 	imm	1
   1464c:	fac06dc8 	swi	r22, r0, 28104	// 16dc8 <Xil_AssertStatus>
   14650:	ea61001c 	lwi	r19, r1, 28
   14654:	eac10020 	lwi	r22, r1, 32
   14658:	10600000 	addk	r3, r0, r0
   1465c:	b60f0008 	rtsd	r15, 8
   14660:	30210024 	addik	r1, r1, 36
   14664:	b0000001 	imm	1
   14668:	30a067c8 	addik	r5, r0, 26568
   1466c:	b9f4066c 	brlid	r15, 1644	// 14cd8 <Xil_Assert>
   14670:	30c00172 	addik	r6, r0, 370
   14674:	30600001 	addik	r3, r0, 1
   14678:	b0000001 	imm	1
   1467c:	f8606dc8 	swi	r3, r0, 28104	// 16dc8 <Xil_AssertStatus>
   14680:	b810ff7c 	brid	-132		// 145fc
   14684:	10730000 	addk	r3, r19, r0

00014688 <XTmrCtr_SetResetValue>:
   14688:	3021ffe0 	addik	r1, r1, -32
   1468c:	f9e10000 	swi	r15, r1, 0
   14690:	be0500a0 	beqid	r5, 160		// 14730
   14694:	fa61001c 	swi	r19, r1, 28
   14698:	b0000001 	imm	1
   1469c:	f8006dc8 	swi	r0, r0, 28104	// 16dc8 <Xil_AssertStatus>
   146a0:	32600001 	addik	r19, r0, 1
   146a4:	16469803 	cmpu	r18, r6, r19
   146a8:	bc520060 	blti	r18, 96		// 14708
   146ac:	e8650014 	lwi	r3, r5, 20
   146b0:	b0001111 	imm	4369
   146b4:	a8631111 	xori	r3, r3, 4369
   146b8:	bc03002c 	beqi	r3, 44		// 146e4
   146bc:	b0000001 	imm	1
   146c0:	30a067c8 	addik	r5, r0, 26568
   146c4:	b9f40614 	brlid	r15, 1556	// 14cd8 <Xil_Assert>
   146c8:	30c00194 	addik	r6, r0, 404
   146cc:	b0000001 	imm	1
   146d0:	fa606dc8 	swi	r19, r0, 28104	// 16dc8 <Xil_AssertStatus>
   146d4:	e9e10000 	lwi	r15, r1, 0
   146d8:	ea61001c 	lwi	r19, r1, 28
   146dc:	b60f0008 	rtsd	r15, 8
   146e0:	30210020 	addik	r1, r1, 32
   146e4:	b0000001 	imm	1
   146e8:	e06656c8 	lbui	r3, r6, 22216
   146ec:	e8850010 	lwi	r4, r5, 16
   146f0:	10632000 	addk	r3, r3, r4
   146f4:	f8e30004 	swi	r7, r3, 4
   146f8:	e9e10000 	lwi	r15, r1, 0
   146fc:	ea61001c 	lwi	r19, r1, 28
   14700:	b60f0008 	rtsd	r15, 8
   14704:	30210020 	addik	r1, r1, 32
   14708:	b0000001 	imm	1
   1470c:	30a067c8 	addik	r5, r0, 26568
   14710:	b9f405c8 	brlid	r15, 1480	// 14cd8 <Xil_Assert>
   14714:	30c00193 	addik	r6, r0, 403
   14718:	e9e10000 	lwi	r15, r1, 0
   1471c:	b0000001 	imm	1
   14720:	fa606dc8 	swi	r19, r0, 28104	// 16dc8 <Xil_AssertStatus>
   14724:	ea61001c 	lwi	r19, r1, 28
   14728:	b60f0008 	rtsd	r15, 8
   1472c:	30210020 	addik	r1, r1, 32
   14730:	b0000001 	imm	1
   14734:	30a067c8 	addik	r5, r0, 26568
   14738:	b9f405a0 	brlid	r15, 1440	// 14cd8 <Xil_Assert>
   1473c:	30c00192 	addik	r6, r0, 402
   14740:	30600001 	addik	r3, r0, 1
   14744:	b0000001 	imm	1
   14748:	f8606dc8 	swi	r3, r0, 28104	// 16dc8 <Xil_AssertStatus>
   1474c:	b810ff8c 	brid	-116		// 146d8
   14750:	e9e10000 	lwi	r15, r1, 0

00014754 <XTmrCtr_GetCaptureValue>:
   14754:	3021ffdc 	addik	r1, r1, -36
   14758:	fa61001c 	swi	r19, r1, 28
   1475c:	f9e10000 	swi	r15, r1, 0
   14760:	fac10020 	swi	r22, r1, 32
   14764:	be0500b4 	beqid	r5, 180		// 14818
   14768:	12650000 	addk	r19, r5, r0
   1476c:	b0000001 	imm	1
   14770:	f8006dc8 	swi	r0, r0, 28104	// 16dc8 <Xil_AssertStatus>
   14774:	32c00001 	addik	r22, r0, 1
   14778:	1646b003 	cmpu	r18, r6, r22
   1477c:	bc52006c 	blti	r18, 108		// 147e8
   14780:	e8650014 	lwi	r3, r5, 20
   14784:	b0001111 	imm	4369
   14788:	a8631111 	xori	r3, r3, 4369
   1478c:	be030038 	beqid	r3, 56		// 147c4
   14790:	e9e10000 	lwi	r15, r1, 0
   14794:	b0000001 	imm	1
   14798:	30a067c8 	addik	r5, r0, 26568
   1479c:	b9f4053c 	brlid	r15, 1340	// 14cd8 <Xil_Assert>
   147a0:	30c001b0 	addik	r6, r0, 432
   147a4:	10600000 	addk	r3, r0, r0
   147a8:	b0000001 	imm	1
   147ac:	fac06dc8 	swi	r22, r0, 28104	// 16dc8 <Xil_AssertStatus>
   147b0:	e9e10000 	lwi	r15, r1, 0
   147b4:	ea61001c 	lwi	r19, r1, 28
   147b8:	eac10020 	lwi	r22, r1, 32
   147bc:	b60f0008 	rtsd	r15, 8
   147c0:	30210024 	addik	r1, r1, 36
   147c4:	b0000001 	imm	1
   147c8:	e06656c8 	lbui	r3, r6, 22216
   147cc:	e8850010 	lwi	r4, r5, 16
   147d0:	ea61001c 	lwi	r19, r1, 28
   147d4:	10632000 	addk	r3, r3, r4
   147d8:	e8630004 	lwi	r3, r3, 4
   147dc:	eac10020 	lwi	r22, r1, 32
   147e0:	b60f0008 	rtsd	r15, 8
   147e4:	30210024 	addik	r1, r1, 36
   147e8:	b0000001 	imm	1
   147ec:	30a067c8 	addik	r5, r0, 26568
   147f0:	b9f404e8 	brlid	r15, 1256	// 14cd8 <Xil_Assert>
   147f4:	30c001af 	addik	r6, r0, 431
   147f8:	e9e10000 	lwi	r15, r1, 0
   147fc:	b0000001 	imm	1
   14800:	fac06dc8 	swi	r22, r0, 28104	// 16dc8 <Xil_AssertStatus>
   14804:	ea61001c 	lwi	r19, r1, 28
   14808:	eac10020 	lwi	r22, r1, 32
   1480c:	10600000 	addk	r3, r0, r0
   14810:	b60f0008 	rtsd	r15, 8
   14814:	30210024 	addik	r1, r1, 36
   14818:	b0000001 	imm	1
   1481c:	30a067c8 	addik	r5, r0, 26568
   14820:	b9f404b8 	brlid	r15, 1208	// 14cd8 <Xil_Assert>
   14824:	30c001ae 	addik	r6, r0, 430
   14828:	30600001 	addik	r3, r0, 1
   1482c:	b0000001 	imm	1
   14830:	f8606dc8 	swi	r3, r0, 28104	// 16dc8 <Xil_AssertStatus>
   14834:	b810ff7c 	brid	-132		// 147b0
   14838:	10730000 	addk	r3, r19, r0

0001483c <XTmrCtr_Reset>:
   1483c:	3021ffe0 	addik	r1, r1, -32
   14840:	f9e10000 	swi	r15, r1, 0
   14844:	be0500b0 	beqid	r5, 176		// 148f4
   14848:	fa61001c 	swi	r19, r1, 28
   1484c:	b0000001 	imm	1
   14850:	f8006dc8 	swi	r0, r0, 28104	// 16dc8 <Xil_AssertStatus>
   14854:	32600001 	addik	r19, r0, 1
   14858:	16469803 	cmpu	r18, r6, r19
   1485c:	bc520070 	blti	r18, 112		// 148cc
   14860:	e8650014 	lwi	r3, r5, 20
   14864:	b0001111 	imm	4369
   14868:	a8631111 	xori	r3, r3, 4369
   1486c:	bc03002c 	beqi	r3, 44		// 14898
   14870:	b0000001 	imm	1
   14874:	30a067c8 	addik	r5, r0, 26568
   14878:	b9f40460 	brlid	r15, 1120	// 14cd8 <Xil_Assert>
   1487c:	30c001cd 	addik	r6, r0, 461
   14880:	b0000001 	imm	1
   14884:	fa606dc8 	swi	r19, r0, 28104	// 16dc8 <Xil_AssertStatus>
   14888:	e9e10000 	lwi	r15, r1, 0
   1488c:	ea61001c 	lwi	r19, r1, 28
   14890:	b60f0008 	rtsd	r15, 8
   14894:	30210020 	addik	r1, r1, 32
   14898:	e8650010 	lwi	r3, r5, 16
   1489c:	b0000001 	imm	1
   148a0:	e0a656c8 	lbui	r5, r6, 22216
   148a4:	c8832800 	lw	r4, r3, r5
   148a8:	a0e40020 	ori	r7, r4, 32
   148ac:	d8e32800 	sw	r7, r3, r5
   148b0:	b0000001 	imm	1
   148b4:	e0a656c8 	lbui	r5, r6, 22216
   148b8:	d8832800 	sw	r4, r3, r5
   148bc:	e9e10000 	lwi	r15, r1, 0
   148c0:	ea61001c 	lwi	r19, r1, 28
   148c4:	b60f0008 	rtsd	r15, 8
   148c8:	30210020 	addik	r1, r1, 32
   148cc:	b0000001 	imm	1
   148d0:	30a067c8 	addik	r5, r0, 26568
   148d4:	b9f40404 	brlid	r15, 1028	// 14cd8 <Xil_Assert>
   148d8:	30c001cc 	addik	r6, r0, 460
   148dc:	e9e10000 	lwi	r15, r1, 0
   148e0:	b0000001 	imm	1
   148e4:	fa606dc8 	swi	r19, r0, 28104	// 16dc8 <Xil_AssertStatus>
   148e8:	ea61001c 	lwi	r19, r1, 28
   148ec:	b60f0008 	rtsd	r15, 8
   148f0:	30210020 	addik	r1, r1, 32
   148f4:	b0000001 	imm	1
   148f8:	30a067c8 	addik	r5, r0, 26568
   148fc:	b9f403dc 	brlid	r15, 988	// 14cd8 <Xil_Assert>
   14900:	30c001cb 	addik	r6, r0, 459
   14904:	30600001 	addik	r3, r0, 1
   14908:	b0000001 	imm	1
   1490c:	f8606dc8 	swi	r3, r0, 28104	// 16dc8 <Xil_AssertStatus>
   14910:	b810ff7c 	brid	-132		// 1488c
   14914:	e9e10000 	lwi	r15, r1, 0

00014918 <XTmrCtr_IsExpired>:
   14918:	3021ffdc 	addik	r1, r1, -36
   1491c:	fa61001c 	swi	r19, r1, 28
   14920:	f9e10000 	swi	r15, r1, 0
   14924:	fac10020 	swi	r22, r1, 32
   14928:	be0500d8 	beqid	r5, 216		// 14a00
   1492c:	12650000 	addk	r19, r5, r0
   14930:	b0000001 	imm	1
   14934:	f8006dc8 	swi	r0, r0, 28104	// 16dc8 <Xil_AssertStatus>
   14938:	32c00001 	addik	r22, r0, 1
   1493c:	1646b003 	cmpu	r18, r6, r22
   14940:	bc520090 	blti	r18, 144		// 149d0
   14944:	e8650014 	lwi	r3, r5, 20
   14948:	b0001111 	imm	4369
   1494c:	a8631111 	xori	r3, r3, 4369
   14950:	be030038 	beqid	r3, 56		// 14988
   14954:	e9e10000 	lwi	r15, r1, 0
   14958:	b0000001 	imm	1
   1495c:	30a067c8 	addik	r5, r0, 26568
   14960:	b9f40378 	brlid	r15, 888	// 14cd8 <Xil_Assert>
   14964:	30c001fa 	addik	r6, r0, 506
   14968:	10600000 	addk	r3, r0, r0
   1496c:	b0000001 	imm	1
   14970:	fac06dc8 	swi	r22, r0, 28104	// 16dc8 <Xil_AssertStatus>
   14974:	e9e10000 	lwi	r15, r1, 0
   14978:	ea61001c 	lwi	r19, r1, 28
   1497c:	eac10020 	lwi	r22, r1, 32
   14980:	b60f0008 	rtsd	r15, 8
   14984:	30210024 	addik	r1, r1, 36
   14988:	e8650010 	lwi	r3, r5, 16
   1498c:	b0000001 	imm	1
   14990:	e08656c8 	lbui	r4, r6, 22216
   14994:	ea61001c 	lwi	r19, r1, 28
   14998:	c8832000 	lw	r4, r3, r4
   1499c:	eac10020 	lwi	r22, r1, 32
   149a0:	10602000 	addk	r3, r0, r4
   149a4:	90640041 	srl	r3, r4
   149a8:	90630041 	srl	r3, r3
   149ac:	90630041 	srl	r3, r3
   149b0:	90630041 	srl	r3, r3
   149b4:	90630041 	srl	r3, r3
   149b8:	90630041 	srl	r3, r3
   149bc:	90630041 	srl	r3, r3
   149c0:	90630041 	srl	r3, r3
   149c4:	a4630001 	andi	r3, r3, 1
   149c8:	b60f0008 	rtsd	r15, 8
   149cc:	30210024 	addik	r1, r1, 36
   149d0:	b0000001 	imm	1
   149d4:	30a067c8 	addik	r5, r0, 26568
   149d8:	b9f40300 	brlid	r15, 768	// 14cd8 <Xil_Assert>
   149dc:	30c001f9 	addik	r6, r0, 505
   149e0:	e9e10000 	lwi	r15, r1, 0
   149e4:	b0000001 	imm	1
   149e8:	fac06dc8 	swi	r22, r0, 28104	// 16dc8 <Xil_AssertStatus>
   149ec:	ea61001c 	lwi	r19, r1, 28
   149f0:	eac10020 	lwi	r22, r1, 32
   149f4:	10600000 	addk	r3, r0, r0
   149f8:	b60f0008 	rtsd	r15, 8
   149fc:	30210024 	addik	r1, r1, 36
   14a00:	b0000001 	imm	1
   14a04:	30a067c8 	addik	r5, r0, 26568
   14a08:	b9f402d0 	brlid	r15, 720	// 14cd8 <Xil_Assert>
   14a0c:	30c001f8 	addik	r6, r0, 504
   14a10:	30600001 	addik	r3, r0, 1
   14a14:	b0000001 	imm	1
   14a18:	f8606dc8 	swi	r3, r0, 28104	// 16dc8 <Xil_AssertStatus>
   14a1c:	b810ff58 	brid	-168		// 14974
   14a20:	10730000 	addk	r3, r19, r0

00014a24 <XTmrCtr_SetOptions>:
   14a24:	3021ffe0 	addik	r1, r1, -32
   14a28:	f9e10000 	swi	r15, r1, 0
   14a2c:	be05010c 	beqid	r5, 268		// 14b38
   14a30:	fa61001c 	swi	r19, r1, 28
   14a34:	b0000001 	imm	1
   14a38:	f8006dc8 	swi	r0, r0, 28104	// 16dc8 <Xil_AssertStatus>
   14a3c:	32600001 	addik	r19, r0, 1
   14a40:	16469803 	cmpu	r18, r6, r19
   14a44:	bc5200cc 	blti	r18, 204		// 14b10
   14a48:	e8850014 	lwi	r4, r5, 20
   14a4c:	b0001111 	imm	4369
   14a50:	a8841111 	xori	r4, r4, 4369
   14a54:	be240094 	bneid	r4, 148		// 14ae8
   14a58:	31200007 	addik	r9, r0, 7
   14a5c:	30600800 	addik	r3, r0, 2048	// 800 <_HEAP_SIZE>
   14a60:	31000080 	addik	r8, r0, 128
   14a64:	b8100034 	brid	52		// 14a98
   14a68:	11440000 	addk	r10, r4, r0
   14a6c:	30840001 	addik	r4, r4, 1
   14a70:	814a1800 	or	r10, r10, r3
   14a74:	10642000 	addk	r3, r4, r4
   14a78:	10631800 	addk	r3, r3, r3
   14a7c:	10631800 	addk	r3, r3, r3
   14a80:	3129ffff 	addik	r9, r9, -1
   14a84:	b0000001 	imm	1
   14a88:	30636bc4 	addik	r3, r3, 27588
   14a8c:	bc09003c 	beqi	r9, 60		// 14ac8
   14a90:	e9030000 	lwi	r8, r3, 0
   14a94:	e8630004 	lwi	r3, r3, 4
   14a98:	85074000 	and	r8, r7, r8
   14a9c:	be28ffd0 	bneid	r8, -48		// 14a6c
   14aa0:	a963ffff 	xori	r11, r3, -1
   14aa4:	30840001 	addik	r4, r4, 1
   14aa8:	10642000 	addk	r3, r4, r4
   14aac:	10631800 	addk	r3, r3, r3
   14ab0:	10631800 	addk	r3, r3, r3
   14ab4:	3129ffff 	addik	r9, r9, -1
   14ab8:	b0000001 	imm	1
   14abc:	30636bc4 	addik	r3, r3, 27588
   14ac0:	be29ffd0 	bneid	r9, -48		// 14a90
   14ac4:	854a5800 	and	r10, r10, r11
   14ac8:	b0000001 	imm	1
   14acc:	e08656c8 	lbui	r4, r6, 22216
   14ad0:	e8650010 	lwi	r3, r5, 16
   14ad4:	d9432000 	sw	r10, r3, r4
   14ad8:	e9e10000 	lwi	r15, r1, 0
   14adc:	ea61001c 	lwi	r19, r1, 28
   14ae0:	b60f0008 	rtsd	r15, 8
   14ae4:	30210020 	addik	r1, r1, 32
   14ae8:	b0000001 	imm	1
   14aec:	30a067d4 	addik	r5, r0, 26580
   14af0:	b9f401e8 	brlid	r15, 488	// 14cd8 <Xil_Assert>
   14af4:	30c00087 	addik	r6, r0, 135
   14af8:	b0000001 	imm	1
   14afc:	fa606dc8 	swi	r19, r0, 28104	// 16dc8 <Xil_AssertStatus>
   14b00:	e9e10000 	lwi	r15, r1, 0
   14b04:	ea61001c 	lwi	r19, r1, 28
   14b08:	b60f0008 	rtsd	r15, 8
   14b0c:	30210020 	addik	r1, r1, 32
   14b10:	b0000001 	imm	1
   14b14:	30a067d4 	addik	r5, r0, 26580
   14b18:	b9f401c0 	brlid	r15, 448	// 14cd8 <Xil_Assert>
   14b1c:	30c00086 	addik	r6, r0, 134
   14b20:	e9e10000 	lwi	r15, r1, 0
   14b24:	b0000001 	imm	1
   14b28:	fa606dc8 	swi	r19, r0, 28104	// 16dc8 <Xil_AssertStatus>
   14b2c:	ea61001c 	lwi	r19, r1, 28
   14b30:	b60f0008 	rtsd	r15, 8
   14b34:	30210020 	addik	r1, r1, 32
   14b38:	b0000001 	imm	1
   14b3c:	30a067d4 	addik	r5, r0, 26580
   14b40:	b9f40198 	brlid	r15, 408	// 14cd8 <Xil_Assert>
   14b44:	30c00085 	addik	r6, r0, 133
   14b48:	30600001 	addik	r3, r0, 1
   14b4c:	b0000001 	imm	1
   14b50:	f8606dc8 	swi	r3, r0, 28104	// 16dc8 <Xil_AssertStatus>
   14b54:	b810ffb0 	brid	-80		// 14b04
   14b58:	e9e10000 	lwi	r15, r1, 0

00014b5c <XTmrCtr_GetOptions>:
   14b5c:	3021ffdc 	addik	r1, r1, -36
   14b60:	fa61001c 	swi	r19, r1, 28
   14b64:	f9e10000 	swi	r15, r1, 0
   14b68:	fac10020 	swi	r22, r1, 32
   14b6c:	be0500f8 	beqid	r5, 248		// 14c64
   14b70:	12650000 	addk	r19, r5, r0
   14b74:	b0000001 	imm	1
   14b78:	f8006dc8 	swi	r0, r0, 28104	// 16dc8 <Xil_AssertStatus>
   14b7c:	32c00001 	addik	r22, r0, 1
   14b80:	1646b003 	cmpu	r18, r6, r22
   14b84:	bc5200b0 	blti	r18, 176		// 14c34
   14b88:	e8850014 	lwi	r4, r5, 20
   14b8c:	b0001111 	imm	4369
   14b90:	a8841111 	xori	r4, r4, 4369
   14b94:	be240070 	bneid	r4, 112		// 14c04
   14b98:	30e00007 	addik	r7, r0, 7
   14b9c:	b0000001 	imm	1
   14ba0:	e0a656c8 	lbui	r5, r6, 22216
   14ba4:	e8730010 	lwi	r3, r19, 16
   14ba8:	10c40000 	addk	r6, r4, r0
   14bac:	c9232800 	lw	r9, r3, r5
   14bb0:	30800080 	addik	r4, r0, 128
   14bb4:	30a00800 	addik	r5, r0, 2048	// 800 <_HEAP_SIZE>
   14bb8:	b8100038 	brid	56		// 14bf0
   14bbc:	10660000 	addk	r3, r6, r0
   14bc0:	80632000 	or	r3, r3, r4
   14bc4:	30c60001 	addik	r6, r6, 1
   14bc8:	10863000 	addk	r4, r6, r6
   14bcc:	10842000 	addk	r4, r4, r4
   14bd0:	10842000 	addk	r4, r4, r4
   14bd4:	30e7ffff 	addik	r7, r7, -1
   14bd8:	b0000001 	imm	1
   14bdc:	30846bc4 	addik	r4, r4, 27588
   14be0:	be070044 	beqid	r7, 68		// 14c24
   14be4:	e9e10000 	lwi	r15, r1, 0
   14be8:	e8a40004 	lwi	r5, r4, 4
   14bec:	e8840000 	lwi	r4, r4, 0
   14bf0:	84a54800 	and	r5, r5, r9
   14bf4:	be25ffcc 	bneid	r5, -52		// 14bc0
   14bf8:	a904ffff 	xori	r8, r4, -1
   14bfc:	b810ffc8 	brid	-56		// 14bc4
   14c00:	84634000 	and	r3, r3, r8
   14c04:	b0000001 	imm	1
   14c08:	30a067d4 	addik	r5, r0, 26580
   14c0c:	b9f400cc 	brlid	r15, 204	// 14cd8 <Xil_Assert>
   14c10:	30c000c2 	addik	r6, r0, 194
   14c14:	10600000 	addk	r3, r0, r0
   14c18:	b0000001 	imm	1
   14c1c:	fac06dc8 	swi	r22, r0, 28104	// 16dc8 <Xil_AssertStatus>
   14c20:	e9e10000 	lwi	r15, r1, 0
   14c24:	ea61001c 	lwi	r19, r1, 28
   14c28:	eac10020 	lwi	r22, r1, 32
   14c2c:	b60f0008 	rtsd	r15, 8
   14c30:	30210024 	addik	r1, r1, 36
   14c34:	b0000001 	imm	1
   14c38:	30a067d4 	addik	r5, r0, 26580
   14c3c:	b9f4009c 	brlid	r15, 156	// 14cd8 <Xil_Assert>
   14c40:	30c000c1 	addik	r6, r0, 193
   14c44:	e9e10000 	lwi	r15, r1, 0
   14c48:	b0000001 	imm	1
   14c4c:	fac06dc8 	swi	r22, r0, 28104	// 16dc8 <Xil_AssertStatus>
   14c50:	ea61001c 	lwi	r19, r1, 28
   14c54:	eac10020 	lwi	r22, r1, 32
   14c58:	10600000 	addk	r3, r0, r0
   14c5c:	b60f0008 	rtsd	r15, 8
   14c60:	30210024 	addik	r1, r1, 36
   14c64:	b0000001 	imm	1
   14c68:	30a067d4 	addik	r5, r0, 26580
   14c6c:	b9f4006c 	brlid	r15, 108	// 14cd8 <Xil_Assert>
   14c70:	30c000c0 	addik	r6, r0, 192
   14c74:	30600001 	addik	r3, r0, 1
   14c78:	b0000001 	imm	1
   14c7c:	f8606dc8 	swi	r3, r0, 28104	// 16dc8 <Xil_AssertStatus>
   14c80:	b810ffa0 	brid	-96		// 14c20
   14c84:	10730000 	addk	r3, r19, r0

00014c88 <XTmrCtr_LookupConfig>:
   14c88:	b0000001 	imm	1
   14c8c:	e46056d0 	lhui	r3, r0, 22224	// 156d0 <XTmrCtr_ConfigTable>
   14c90:	88a32800 	xor	r5, r3, r5
   14c94:	bc05000c 	beqi	r5, 12		// 14ca0
   14c98:	b60f0008 	rtsd	r15, 8
   14c9c:	10600000 	addk	r3, r0, r0
   14ca0:	b0000001 	imm	1
   14ca4:	306056d0 	addik	r3, r0, 22224	// 156d0 <XTmrCtr_ConfigTable>
   14ca8:	b60f0008 	rtsd	r15, 8
   14cac:	80000000 	or	r0, r0, r0

00014cb0 <outbyte>:
   14cb0:	a4c500ff 	andi	r6, r5, 255
   14cb4:	b000e000 	imm	-8192
   14cb8:	30a00000 	addik	r5, r0, 0
   14cbc:	3021fffc 	addik	r1, r1, -4
   14cc0:	f9e10000 	swi	r15, r1, 0
   14cc4:	b9f40074 	brlid	r15, 116	// 14d38 <XUartPs_SendByte>
   14cc8:	80000000 	or	r0, r0, r0
   14ccc:	e9e10000 	lwi	r15, r1, 0
   14cd0:	b60f0008 	rtsd	r15, 8
   14cd4:	30210004 	addik	r1, r1, 4

00014cd8 <Xil_Assert>:
   14cd8:	b0000001 	imm	1
   14cdc:	e8606c48 	lwi	r3, r0, 27720	// 16c48 <Xil_AssertCallbackRoutine>
   14ce0:	bc03002c 	beqi	r3, 44		// 14d0c
   14ce4:	3021ffe4 	addik	r1, r1, -28
   14ce8:	f9e10000 	swi	r15, r1, 0
   14cec:	99fc1800 	brald	r15, r3
   14cf0:	80000000 	or	r0, r0, r0
   14cf4:	b0000001 	imm	1
   14cf8:	e86056cc 	lwi	r3, r0, 22220	// 156cc <Xil_AssertWait>
   14cfc:	be230000 	bneid	r3, 0		// 14cfc
   14d00:	e9e10000 	lwi	r15, r1, 0
   14d04:	b60f0008 	rtsd	r15, 8
   14d08:	3021001c 	addik	r1, r1, 28
   14d0c:	b0000001 	imm	1
   14d10:	e86056cc 	lwi	r3, r0, 22220	// 156cc <Xil_AssertWait>
   14d14:	bc230000 	bnei	r3, 0		// 14d14
   14d18:	b60f0008 	rtsd	r15, 8
   14d1c:	80000000 	or	r0, r0, r0

00014d20 <Xil_AssertSetCallback>:
   14d20:	b0000001 	imm	1
   14d24:	f8a06c48 	swi	r5, r0, 27720	// 16c48 <Xil_AssertCallbackRoutine>
   14d28:	b60f0008 	rtsd	r15, 8
   14d2c:	80000000 	or	r0, r0, r0

00014d30 <XNullHandler>:
   14d30:	b60f0008 	rtsd	r15, 8
   14d34:	80000000 	or	r0, r0, r0

00014d38 <XUartPs_SendByte>:
   14d38:	3085002c 	addik	r4, r5, 44
   14d3c:	e8640000 	lwi	r3, r4, 0
   14d40:	a4630010 	andi	r3, r3, 16
   14d44:	bc23fff8 	bnei	r3, -8		// 14d3c
   14d48:	f8c50030 	swi	r6, r5, 48
   14d4c:	b60f0008 	rtsd	r15, 8
   14d50:	80000000 	or	r0, r0, r0

00014d54 <XUartPs_RecvByte>:
   14d54:	3085002c 	addik	r4, r5, 44
   14d58:	e8640000 	lwi	r3, r4, 0
   14d5c:	a4630002 	andi	r3, r3, 2
   14d60:	bc23fff8 	bnei	r3, -8		// 14d58
   14d64:	e8650030 	lwi	r3, r5, 48
   14d68:	b60f0008 	rtsd	r15, 8
   14d6c:	a46300ff 	andi	r3, r3, 255

00014d70 <XUartPs_ResetHw>:
   14d70:	30603fff 	addik	r3, r0, 16383
   14d74:	f865000c 	swi	r3, r5, 12
   14d78:	30800028 	addik	r4, r0, 40
   14d7c:	f8850000 	swi	r4, r5, 0
   14d80:	30800003 	addik	r4, r0, 3
   14d84:	f8850000 	swi	r4, r5, 0
   14d88:	f8650014 	swi	r3, r5, 20
   14d8c:	f8050004 	swi	r0, r5, 4
   14d90:	30600020 	addik	r3, r0, 32	// 20 <_vector_hw_exception>
   14d94:	f8650020 	swi	r3, r5, 32
   14d98:	f8650044 	swi	r3, r5, 68
   14d9c:	f805001c 	swi	r0, r5, 28
   14da0:	3060028b 	addik	r3, r0, 651
   14da4:	f8650018 	swi	r3, r5, 24
   14da8:	3080000f 	addik	r4, r0, 15
   14dac:	f8850034 	swi	r4, r5, 52
   14db0:	30600128 	addik	r3, r0, 296
   14db4:	f8650000 	swi	r3, r5, 0
   14db8:	b60f0008 	rtsd	r15, 8
   14dbc:	80000000 	or	r0, r0, r0

Disassembly of section .ssc.data.buffer:

00014dc0 <ssc_data>:
	...

Disassembly of section .data:

00015590 <__data_start>:
   15590:	
00015594 <__dso_handle>:
   15594:	
00015598 <c>:
   15598:	3cc00000 	rsubikc	r6, r0, 0

0001559c <__ctype_ptr__>:
   1559c:	00016867 		r0, r1, r13

000155a0 <impure_data>:
	...
   155c0:	00016a6c 		r0, r1, r13
	...

00015690 <_impure_ptr>:
   15690:	000155a0 		r0, r1, r10

00015694 <force_to_data>:
   15694:	
00015698 <MB_InterruptVectorTable>:
   15698:	00013c70 		r0, r1, r7
   1569c:	
000156a0 <XIntc_ConfigTable>:
   156a0:	
000156c8 <XTmrCtr_Offsets>:
   156c8:	00001000 	add	r0, r0, r2

000156cc <Xil_AssertWait>:
   156cc:	00000001 		r0, r0, r0

000156d0 <XTmrCtr_ConfigTable>:
   156d0:	
Disassembly of section .init:

000156dc <__init>:
   156dc:	3021fff8 	addik	r1, r1, -8
   156e0:	d9e00800 	sw	r15, r0, r1
   156e4:	3160ffff 	addik	r11, r0, -1
   156e8:	940bc802 	mts	rshr, r11
   156ec:	31600000 	addik	r11, r0, 0
   156f0:	940bc800 	mts	rslr, r11
   156f4:	b000ffff 	imm	-1
   156f8:	b9f4bef0 	brlid	r15, -16656	// 115e8 <frame_dummy>
   156fc:	80000000 	or	r0, r0, r0
   15700:	b000ffff 	imm	-1
   15704:	b9f4cf9c 	brlid	r15, -12388	// 126a0 <__do_global_ctors_aux>
   15708:	80000000 	or	r0, r0, r0
   1570c:	c9e00800 	lw	r15, r0, r1
   15710:	b60f0008 	rtsd	r15, 8
   15714:	30210008 	addik	r1, r1, 8

Disassembly of section .fini:

00015718 <__fini>:
   15718:	3021fff8 	addik	r1, r1, -8
   1571c:	d9e00800 	sw	r15, r0, r1
   15720:	b000ffff 	imm	-1
   15724:	b9f4bde4 	brlid	r15, -16924	// 11508 <__do_global_dtors_aux>
   15728:	80000000 	or	r0, r0, r0
   1572c:	c9e00800 	lw	r15, r0, r1
   15730:	b60f0008 	rtsd	r15, 8
   15734:	30210008 	addik	r1, r1, 8

Disassembly of section .ctors:

00015738 <__CTOR_LIST__>:
   15738:	ffffffff 		r31, r31, r31

0001573c <__CTOR_END__>:
   1573c:	
Disassembly of section .dtors:

00015740 <__DTOR_LIST__>:
   15740:	ffffffff 		r31, r31, r31

00015744 <__DTOR_END__>:
   15744:	
Disassembly of section .ssc.ro.data.buffer:

00015748 <ssc_ro_data>:
	...

Disassembly of section .rodata:

00015f18 <__rodata_start>:
   15f18:	7b777c63 		r27, r23, r15
   15f1c:	c56f6bf2 		r11, r15, r13
   15f20:	2b670130 	addic	r27, r7, 304
   15f24:	76abd7fe 		r21, r11, r26
   15f28:	7dc982ca 		r14, r9, r16
   15f2c:	f04759fa 	sbi	r2, r7, 23034
   15f30:	afa2d4ad 	andni	r29, r2, -11091
   15f34:	c072a49c 		r3, r18, r20
   15f38:	2693fdb7 	rsubi	r20, r19, -585
   15f3c:	ccf73f36 		r7, r23, r7
   15f40:	f1e5a534 	sbi	r15, r5, -23244
   15f44:	1531d871 		r9, r17, r27
   15f48:	c323c704 		r25, r3, r24
   15f4c:	9a059618 		r16, r5, r18
   15f50:	e2801207 	lbui	r20, r0, 4615
   15f54:	75b227eb 		r13, r18, r4
   15f58:	1a2c8309 		r17, r12, r16
   15f5c:	a05a6e1b 	ori	r2, r26, 28187
   15f60:	b3d63b52 		r30, r22, r7
   15f64:	842fe329 		r1, r15, r28
   15f68:	ed00d153 		r8, r0, r26
   15f6c:	5bb1fc20 		r29, r17, r31
   15f70:	39becb6a 	addikc	r13, r30, -13462
   15f74:	cf584c4a 		r26, r24, r9
   15f78:	fbaaefd0 	swi	r29, r10, -4144
   15f7c:	85334d43 		r9, r19, r9
   15f80:	7f02f945 		r24, r2, r31
   15f84:	a89f3c50 	xori	r4, r31, 15440
   15f88:	8f40a351 		r26, r0, r20
   15f8c:	f5389d92 	shi	r9, r24, -25198
   15f90:	21dab6bc 	addi	r14, r26, -18756
   15f94:	d2f3ff10 		r23, r19, r31
   15f98:	ec130ccd 		r0, r19, r1
   15f9c:	1744975f 		r26, r4, r18
   15fa0:	3d7ea7c4 	rsubikc	r11, r30, -22588
   15fa4:	73195d64 		r24, r25, r11
   15fa8:	dc4f8160 		r2, r15, r16
   15fac:	88902a22 		r4, r16, r5
   15fb0:	14b8ee46 		r5, r24, r29
   15fb4:	db0b5ede 		r24, r11, r11
   15fb8:	0a3a32e0 		r17, r26, r6
   15fbc:	5c240649 		r1, r4, r0
   15fc0:	62acd3c2 	muli	r21, r12, -11326
   15fc4:	79e49591 		r15, r4, r18
   15fc8:	6d37c8e7 	naput	r23, rfsl7
   15fcc:	a94ed58d 	xori	r10, r14, -10867
   15fd0:	eaf4566c 	lwi	r23, r20, 22124
   15fd4:	08ae7a65 		r5, r14, r15
   15fd8:	2e2578ba 	rsubic	r17, r5, 30906
   15fdc:	c6b4a61c 		r21, r20, r20
   15fe0:	1f74dde8 		r27, r20, r27
   15fe4:	8a8bbd4b 		r20, r11, r23
   15fe8:	66b53e70 		r21, r21, r7
   15fec:	0ef60348 		r23, r22, r0
   15ff0:	b9573561 		r10, r23, r6
   15ff4:	9e1dc186 		r16, r29, r24
   15ff8:	1198f8e1 		r12, r24, r31
   15ffc:	948ed969 		r4, r14, r27
   16000:	e9871e9b 	lwi	r12, r7, 7835
   16004:	df2855ce 		r25, r8, r10
   16008:	0d89a18c 		r12, r9, r20
   1600c:	6842e6bf 		r2, r2, r28
   16010:	0f2d9941 		r25, r13, r19
   16014:	16bb54b0 		r21, r27, r10

00016018 <rsbox>:
   16018:	d56a0952 		r11, r10, r1
   1601c:	38a53630 	addikc	r5, r5, 13872
   16020:	9ea340bf 		r21, r3, r8
   16024:	fbd7f381 	swi	r30, r23, -3199
   16028:	8239e37c 		r17, r25, r28
   1602c:	87ff2f9b 		r31, r31, r5
   16030:	44438e34 		r2, r3, r17
   16034:	cbe9dec4 		r31, r9, r27
   16038:	32947b54 	addik	r20, r20, 31572
   1603c:	3d23c2a6 	rsubikc	r9, r3, -15706
   16040:	0b954cee 		r28, r21, r9
   16044:	4ec3fa42 	nagetd	r22, r31
   16048:	66a12e08 		r21, r1, r5
   1604c:	b224d928 		r17, r4, r27
   16050:	49a25b76 		r13, r2, r11
   16054:	25d18b6d 	rsubi	r14, r17, -29843
   16058:	64f6f872 	bsrli	r7, r22, 18
   1605c:	16986886 		r20, r24, r13
   16060:	cc5ca4d4 		r2, r28, r20
   16064:	92b6655d 		r21, r22, r12
   16068:	5048706c 		r2, r8, r14
   1606c:	dab9edfd 		r21, r25, r29
   16070:	5746155e 		r26, r6, r2
   16074:	849d8da7 		r4, r29, r17
   16078:	00abd890 		r5, r11, r27
   1607c:	0ad3bc8c 		r22, r19, r23
   16080:	0558e4f7 	neg	r10, r24
   16084:	0645b3b8 	neg	r18, r5
   16088:	8f1e2cd0 		r24, r30, r5
   1608c:	020f3fca 		r16, r15, r7
   16090:	03bdafc1 		r29, r29, r21
   16094:	6b8a1301 		r28, r10, r2
   16098:	4111913a 		r8, r17, r18
   1609c:	eadc674f 	lwi	r22, r28, 26447
   160a0:	cecff297 		r22, r15, r30
   160a4:	73e6b4f0 		r31, r6, r22
   160a8:	2274ac96 	addi	r19, r20, -21354
   160ac:	8535ade7 		r9, r21, r21
   160b0:	e837f9e2 	lwi	r1, r23, -1566
   160b4:	6edf751c 	tnecget	r22, rfsl12
   160b8:	711af147 		r8, r26, r30
   160bc:	89c5291d 		r14, r5, r5
   160c0:	0e62b76f 		r19, r2, r22
   160c4:	1bbe18aa 		r29, r30, r3
   160c8:	4b3e56fc 		r25, r30, r10
   160cc:	2079d2c6 	addi	r3, r25, -11578
   160d0:	fec0db9a 		r22, r0, r27
   160d4:	f45acd78 	shi	r2, r26, -12936
   160d8:	33a8dd1f 	addik	r29, r8, -8929
   160dc:	31c70788 	addik	r14, r7, 1928
   160e0:	591012b1 		r8, r16, r2
   160e4:	5fec8027 		r31, r12, r16
   160e8:	a97f5160 	xori	r11, r31, 20832
   160ec:	0d4ab519 		r10, r10, r22
   160f0:	9f7ae52d 		r27, r26, r28
   160f4:	ef9cc993 		r28, r28, r25
   160f8:	4d3be0a0 	tegetd	r9, r28
   160fc:	b0f52aae 		r7, r21, r5
   16100:	3cbbebc8 	rsubikc	r5, r27, -5176
   16104:	61995383 	muli	r12, r25, 21379
   16108:	7e042b17 		r16, r4, r5
   1610c:	26d677ba 	rsubi	r22, r22, 30650
   16110:	631469e1 	muli	r24, r20, 27105
   16114:	7d0c2155 		r8, r12, r4

00016118 <Rcon>:
   16118:	0402018d 	neg	r0, r2
   1611c:	40201008 		r1, r0, r2
   16120:	00361b80 		r1, r22, r3

00016124 <blake2s_IV>:
   16124:	6a09e667 		r16, r9, r28
   16128:	bb67ae85 	suspend
   1612c:	3c6ef372 	rsubikc	r3, r14, -3214
   16130:	a54ff53a 	andi	r10, r15, -2758
   16134:	510e527f 		r8, r14, r10
   16138:	9b05688c 		r24, r5, r13
   1613c:	1f83d9ab 		r28, r3, r27
   16140:	5be0cd19 		r31, r0, r25

00016144 <blake2s_sigma>:
   16144:	67452301 	bsrai	r26, r5, 1
   16148:	efcdab89 		r30, r13, r21
   1614c:	d69f48ea 		r20, r31, r9
   16150:	53b7021c 		r29, r23, r0
   16154:	fd52c0b8 		r10, r18, r24
   16158:	947136ae 	msrclr	r3, 13998
   1615c:	bedc3179 		r22, r28, r6
   16160:	f8405a26 	swi	r2, r0, 23078
   16164:	af245790 	andni	r25, r4, 22416
   16168:	3d68bce1 	rsubikc	r11, r8, -17183
   1616c:	830b6a2c 		r24, r11, r13
   16170:	19fe754d 		r15, r30, r14
   16174:	4aed1fc5 		r23, r13, r3
   16178:	8b926307 		r28, r18, r12
   1617c:	39c17edb 	addikc	r14, r1, 32475
   16180:	2a86f450 	addic	r20, r6, -2992
   16184:	08b3e96f 		r5, r19, r29
   16188:	a514d7c2 	andi	r8, r20, -10302
   1618c:	157684a2 		r11, r22, r16
   16190:	d03c9efb 		r1, r28, r19

00016194 <auth_key>:
   16194:	23cc497c 	addi	r30, r12, 18812
   16198:	87c7f81f 		r30, r7, r31
   1619c:	285f5b9d 	addic	r2, r31, 23453
   161a0:	19d0883e 		r14, r16, r17
   161a4:	649b7999 	bsrli	r4, r27, 25
   161a8:	cdca431f 		r14, r10, r8
   161ac:	75bf7687 		r13, r31, r14
   161b0:	bcaa90ab 	bgei	r10, -28501		// f25b
   161b4:	401c8b2f 		r0, r28, r17
   161b8:	0ee29ffe 		r23, r2, r19
   161bc:	e03a1193 	lbui	r1, r26, 4499
   161c0:	ac6b0ed8 	andni	r3, r11, 3800
   161c4:	3ef346f9 	rsubikc	r23, r19, 18169
   161c8:	21e47f3d 	addi	r15, r4, 32573
   161cc:	d4f6bdf8 		r7, r22, r23
   161d0:	a9c5bb25 	xori	r14, r5, -17627
   161d4:	59420a0d 		r10, r2, r1
   161d8:	525f544f 		r18, r31, r10
   161dc:	69746e75 		r11, r20, r13
   161e0:	203e656d 	addi	r1, r30, 25965
   161e4:	544f5942 		r2, r15, r11
   161e8:	6e75525f 	tnget	r19, rfsl15
   161ec:	656d6974 	bsrli	r11, r13, 20
   161f0:	696e4920 		r11, r14, r9
   161f4:	6c616974 	ncaget	r3, rfsl4
   161f8:	64657a69 	bsrai	r3, r5, 9
   161fc:	0a0d2121 		r16, r13, r4
   16200:	
0001649c <iv.1397>:
   1649c:	6a09e667 		r16, r9, r28
   164a0:	f3bcc908 	sbi	r29, r28, -14072
   164a4:	bb67ae85 	suspend
   164a8:	84caa73b 		r6, r10, r20
   164ac:	3c6ef372 	rsubikc	r3, r14, -3214
   164b0:	fe94f82b 		r20, r20, r31
   164b4:	a54ff53a 	andi	r10, r15, -2758
   164b8:	5f1d36f1 		r24, r29, r6
   164bc:	510e527f 		r8, r14, r10
   164c0:	ade682d1 	andni	r15, r6, -32047
   164c4:	9b05688c 		r24, r5, r13
   164c8:	2b3e6c1f 	addic	r25, r30, 27679
   164cc:	1f83d9ab 		r28, r3, r27
   164d0:	fb41bd6b 	swi	r26, r1, -17045
   164d4:	5be0cd19 		r31, r0, r25
   164d8:	137e2179 		r27, r30, r4

000164dc <k.1415>:
   164dc:	428a2f98 		r20, r10, r5
   164e0:	d728ae22 		r25, r8, r21
   164e4:	71374491 		r9, r23, r8
   164e8:	23ef65cd 	addi	r31, r15, 26061
   164ec:	b5c0fbcf 		r14, r0, r31
   164f0:	ec4d3b2f 		r2, r13, r7
   164f4:	e9b5dba5 	lwi	r13, r21, -9307
   164f8:	8189dbbc 		r12, r9, r27
   164fc:	3956c25b 	addikc	r10, r22, -15781
   16500:	f348b538 	sbi	r26, r8, -19144
   16504:	59f111f1 		r15, r17, r2
   16508:	b605d019 	rtsd	r5, -12263
   1650c:	923f82a4 		r17, r31, r16
   16510:	af194f9b 	andni	r24, r25, 20379
   16514:	ab1c5ed5 	xori	r24, r28, 24277
   16518:	da6d8118 		r19, r13, r16
   1651c:	d807aa98 		r0, r7, r21
   16520:	a3030242 	ori	r24, r3, 578
   16524:	12835b01 		r20, r3, r11
   16528:	45706fbe 		r11, r16, r13
   1652c:	243185be 	rsubi	r1, r17, -31298
   16530:	4ee4b28c 	tngetd	r23, r22
   16534:	550c7dc3 		r8, r12, r15
   16538:	d5ffb4e2 		r15, r31, r22
   1653c:	72be5d74 		r21, r30, r11
   16540:	f27b896f 	sbi	r19, r27, -30353
   16544:	80deb1fe 		r6, r30, r22
   16548:	3b1696b1 	addikc	r24, r22, -26959
   1654c:	9bdc06a7 		r30, r28, r0
   16550:	25c71235 	rsubi	r14, r7, 4661
   16554:	c19bf174 		r12, r27, r30
   16558:	cf692694 		r27, r9, r4
   1655c:	e49b69c1 	lhui	r4, r27, 27073
   16560:	9ef14ad2 		r23, r17, r9
   16564:	efbe4786 		r29, r30, r8
   16568:	384f25e3 	addikc	r2, r15, 9699
   1656c:	0fc19dc6 		r30, r1, r19
   16570:	8b8cd5b5 		r28, r12, r26
   16574:	240ca1cc 	rsubi	r0, r12, -24116
   16578:	77ac9c65 		r29, r12, r19
   1657c:	2de92c6f 	rsubic	r15, r9, 11375
   16580:	592b0275 		r9, r11, r0
   16584:	4a7484aa 		r19, r20, r16
   16588:	6ea6e483 	necput	r6, rfsl3
   1658c:	5cb0a9dc 		r5, r16, r21
   16590:	bd41fbd4 		r10, r1, r31
   16594:	76f988da 		r23, r25, r17
   16598:	831153b5 		r24, r17, r10
   1659c:	983e5152 		r1, r30, r10
   165a0:	ee66dfab 		r19, r6, r27
   165a4:	a831c66d 	xori	r1, r17, -14739
   165a8:	2db43210 	rsubic	r13, r20, 12816
   165ac:	b00327c8 		r0, r3, r4
   165b0:	98fb213f 		r7, r27, r4
   165b4:	bf597fc7 		r26, r25, r15
   165b8:	beef0ee4 		r23, r15, r1
   165bc:	c6e00bf3 		r23, r0, r1
   165c0:	3da88fc2 	rsubikc	r13, r8, -28734
   165c4:	d5a79147 		r13, r7, r18
   165c8:	930aa725 		r24, r10, r20
   165cc:	06ca6351 	neg	r22, r10
   165d0:	e003826f 	lbui	r0, r3, -32145
   165d4:	14292967 		r1, r9, r5
   165d8:	0a0e6e70 		r16, r14, r13
   165dc:	27b70a85 	rsubi	r29, r23, 2693
   165e0:	46d22ffc 		r22, r18, r5
   165e4:	2e1b2138 	rsubic	r16, r27, 8504
   165e8:	5c26c926 		r1, r6, r25
   165ec:	4d2c6dfc 	tecaputd	r13
   165f0:	5ac42aed 		r22, r4, r5
   165f4:	53380d13 		r25, r24, r1
   165f8:	9d95b3df 		r12, r21, r22
   165fc:	650a7354 	bsrai	r8, r10, 20
   16600:	8baf63de 		r29, r15, r12
   16604:	766a0abb 		r19, r10, r1
   16608:	3c77b2a8 	rsubikc	r3, r23, -19800
   1660c:	81c2c92e 		r14, r2, r25
   16610:	47edaee6 		r31, r13, r21
   16614:	92722c85 		r19, r18, r5
   16618:	1482353b 		r4, r2, r6
   1661c:	a2bfe8a1 	ori	r21, r31, -5983
   16620:	4cf10364 	necagetd	r7, r0
   16624:	a81a664b 	xori	r0, r26, 26187
   16628:	bc423001 	blti	r2, 12289		// 19629
   1662c:	c24b8b70 		r18, r11, r17
   16630:	d0f89791 		r7, r24, r18
   16634:	c76c51a3 		r27, r12, r10
   16638:	0654be30 	neg	r18, r20
   1663c:	d192e819 		r12, r18, r29
   16640:	d6ef5218 		r23, r15, r10
   16644:	d6990624 		r20, r25, r0
   16648:	5565a910 		r11, r5, r21
   1664c:	f40e3585 	shi	r0, r14, 13701
   16650:	5771202a 		r27, r17, r4
   16654:	106aa070 		r3, r10, r20
   16658:	32bbd1b8 	addik	r21, r27, -11848
   1665c:	19a4c116 		r13, r4, r24
   16660:	b8d2d0c8 		r6, r18, r26
   16664:	1e376c08 		r17, r23, r13
   16668:	5141ab53 		r10, r1, r21
   1666c:	2748774c 	rsubi	r26, r8, 30540
   16670:	df8eeb99 		r28, r14, r29
   16674:	34b0bcb5 	rsubik	r5, r16, -17227
   16678:	e19b48a8 	lbui	r12, r27, 18600
   1667c:	391c0cb3 	addikc	r8, r28, 3251
   16680:	c5c95a63 		r14, r9, r11
   16684:	4ed8aa4a 	nagetd	r22, r21
   16688:	e3418acb 	lbui	r26, r1, -30005
   1668c:	5b9cca4f 		r28, r28, r25
   16690:	7763e373 		r27, r3, r28
   16694:	682e6ff3 		r1, r14, r13
   16698:	d6b2b8a3 		r21, r18, r23
   1669c:	748f82ee 		r4, r15, r16
   166a0:	5defb2fc 		r15, r15, r22
   166a4:	78a5636f 		r5, r5, r12
   166a8:	43172f60 		r24, r23, r5
   166ac:	84c87814 		r6, r8, r15
   166b0:	a1f0ab72 	ori	r15, r16, -21646
   166b4:	8cc70208 		r6, r7, r0
   166b8:	1a6439ec 		r19, r4, r7
   166bc:	90befffa 		r5, r30, r31
   166c0:	23631e28 	addi	r27, r3, 7720
   166c4:	a4506ceb 	andi	r2, r16, 27883
   166c8:	de82bde9 		r20, r2, r23
   166cc:	bef9a3f7 		r23, r25, r20
   166d0:	b2c67915 		r22, r6, r15
   166d4:	c67178f2 		r19, r17, r15
   166d8:	e372532b 	lbui	r27, r18, 21291
   166dc:	ca273ece 		r17, r7, r7
   166e0:	ea26619c 	lwi	r17, r6, 24988
   166e4:	d186b8c7 		r12, r6, r23
   166e8:	21c0c207 	addi	r14, r0, -15865
   166ec:	eada7dd6 	lwi	r22, r26, 32214
   166f0:	cde0eb1e 		r15, r0, r29
   166f4:	f57d4f7f 	shi	r11, r29, 20351
   166f8:	ee6ed178 		r19, r14, r26
   166fc:	06f067aa 	neg	r23, r16
   16700:	72176fba 		r16, r23, r13
   16704:	0a637dc5 		r19, r3, r15
   16708:	a2c898a6 	ori	r22, r8, -26458
   1670c:	113f9804 		r9, r31, r19
   16710:	bef90dae 		r23, r25, r1
   16714:	1b710b35 		r27, r17, r1
   16718:	131c471b 		r24, r28, r8
   1671c:	28db77f5 	addic	r6, r27, 30709
   16720:	23047d84 	addi	r24, r4, 32132
   16724:	32caab7b 	addik	r22, r10, -21637
   16728:	40c72493 		r6, r7, r4
   1672c:	3c9ebe0a 	rsubikc	r4, r30, -16886
   16730:	15c9bebc 		r14, r9, r23
   16734:	431d67c4 		r24, r29, r12
   16738:	9c100d4c 		r0, r16, r1
   1673c:	4cc5d4be 	teputd	r26
   16740:	cb3e42b6 		r25, r30, r8
   16744:	597f299c 		r11, r31, r5
   16748:	fc657e2a 		r3, r5, r15
   1674c:	5fcb6fab 		r30, r11, r13
   16750:	3ad6faec 	addikc	r22, r22, -1300
   16754:	6c44198c 	taget	r2, rfsl12
   16758:	4a475817 		r18, r7, r11

0001675c <auth_key>:
   1675c:	23cc497c 	addi	r30, r12, 18812
   16760:	87c7f81f 		r30, r7, r31
   16764:	285f5b9d 	addic	r2, r31, 23453
   16768:	19d0883e 		r14, r16, r17
   1676c:	649b7999 	bsrli	r4, r27, 25
   16770:	cdca431f 		r14, r10, r8
   16774:	75bf7687 		r13, r31, r14
   16778:	bcaa90ab 	bgei	r10, -28501		// f823
   1677c:	401c8b2f 		r0, r28, r17
   16780:	0ee29ffe 		r23, r2, r19
   16784:	e03a1193 	lbui	r1, r26, 4499
   16788:	ac6b0ed8 	andni	r3, r11, 3800
   1678c:	3ef346f9 	rsubikc	r23, r19, 18169
   16790:	21e47f3d 	addi	r15, r4, 32573
   16794:	d4f6bdf8 		r7, r22, r23
   16798:	a9c5bb25 	xori	r14, r5, -17627
   1679c:	33323130 	addik	r25, r18, 12592
   167a0:	37363534 	rsubik	r25, r22, 13620
   167a4:	42413938 		r18, r1, r7
   167a8:	46454443 	bsll	r18, r5, r8
   167ac:	
000167e8 <_ctype_b>:
	...
   16868:	20202020 	addi	r1, r0, 8224
   1686c:	20202020 	addi	r1, r0, 8224
   16870:	28282820 	addic	r1, r8, 10272
   16874:	20202828 	addi	r1, r0, 10280
   16878:	20202020 	addi	r1, r0, 8224
   1687c:	20202020 	addi	r1, r0, 8224
   16880:	20202020 	addi	r1, r0, 8224
   16884:	20202020 	addi	r1, r0, 8224
   16888:	10101088 		r0, r16, r2
   1688c:	10101010 		r0, r16, r2
   16890:	10101010 		r0, r16, r2
   16894:	10101010 		r0, r16, r2
   16898:	04040404 	neg	r0, r4
   1689c:	04040404 	neg	r0, r4
   168a0:	10100404 		r0, r16, r0
   168a4:	10101010 		r0, r16, r2
   168a8:	41414110 		r10, r1, r8
   168ac:	01414141 		r10, r1, r8
   168b0:	01010101 		r8, r1, r0
   168b4:	01010101 		r8, r1, r0
   168b8:	01010101 		r8, r1, r0
   168bc:	01010101 		r8, r1, r0
   168c0:	10010101 		r0, r1, r0
   168c4:	10101010 		r0, r16, r2
   168c8:	42424210 		r18, r2, r8
   168cc:	02424242 		r18, r2, r8
   168d0:	02020202 		r16, r2, r0
   168d4:	02020202 		r16, r2, r0
   168d8:	02020202 		r16, r2, r0
   168dc:	02020202 		r16, r2, r0
   168e0:	10020202 		r0, r2, r0
   168e4:	20101010 	addi	r0, r16, 4112
	...

00016968 <_ctype_>:
   16968:	20202000 	addi	r1, r0, 8192
   1696c:	20202020 	addi	r1, r0, 8224
   16970:	28282020 	addic	r1, r8, 8224
   16974:	20282828 	addi	r1, r8, 10280
   16978:	20202020 	addi	r1, r0, 8224
   1697c:	20202020 	addi	r1, r0, 8224
   16980:	20202020 	addi	r1, r0, 8224
   16984:	20202020 	addi	r1, r0, 8224
   16988:	10108820 		r0, r16, r17
   1698c:	10101010 		r0, r16, r2
   16990:	10101010 		r0, r16, r2
   16994:	10101010 		r0, r16, r2
   16998:	04040410 	neg	r0, r4
   1699c:	04040404 	neg	r0, r4
   169a0:	10040404 		r0, r4, r0
   169a4:	10101010 		r0, r16, r2
   169a8:	41411010 		r10, r1, r2
   169ac:	41414141 		r10, r1, r8
   169b0:	01010101 		r8, r1, r0
   169b4:	01010101 		r8, r1, r0
   169b8:	01010101 		r8, r1, r0
   169bc:	01010101 		r8, r1, r0
   169c0:	01010101 		r8, r1, r0
   169c4:	10101010 		r0, r16, r2
   169c8:	42421010 		r18, r2, r2
   169cc:	42424242 		r18, r2, r8
   169d0:	02020202 		r16, r2, r0
   169d4:	02020202 		r16, r2, r0
   169d8:	02020202 		r16, r2, r0
   169dc:	02020202 		r16, r2, r0
   169e0:	02020202 		r16, r2, r0
   169e4:	10101010 		r0, r16, r2
   169e8:	00000020 		r0, r0, r0
	...
   16a6c:	00000043 		r0, r0, r0

00016a70 <_global_impure_ptr>:
   16a70:	000155a0 		r0, r1, r10
   16a74:	00012e90 		r0, r1, r5
   16a78:	00012e24 		r0, r1, r5
   16a7c:	00012e24 		r0, r1, r5
   16a80:	00012e24 		r0, r1, r5
   16a84:	00012e24 		r0, r1, r5
   16a88:	00012e24 		r0, r1, r5
   16a8c:	00012e24 		r0, r1, r5
   16a90:	00012e24 		r0, r1, r5
   16a94:	00012e78 		r0, r1, r5
   16a98:	00012e40 		r0, r1, r5
   16a9c:	00012e24 		r0, r1, r5
   16aa0:	00012e24 		r0, r1, r5
   16aa4:	00012e24 		r0, r1, r5
   16aa8:	00012e24 		r0, r1, r5
   16aac:	00012e24 		r0, r1, r5
   16ab0:	00012e24 		r0, r1, r5
   16ab4:	00012e24 		r0, r1, r5
   16ab8:	00012e24 		r0, r1, r5
   16abc:	00012e24 		r0, r1, r5
   16ac0:	00012e24 		r0, r1, r5
   16ac4:	00012e24 		r0, r1, r5
   16ac8:	00012e24 		r0, r1, r5
   16acc:	00012e24 		r0, r1, r5
   16ad0:	00012e24 		r0, r1, r5
   16ad4:	00012e24 		r0, r1, r5
   16ad8:	00012e24 		r0, r1, r5
   16adc:	00012e24 		r0, r1, r5
   16ae0:	00012e24 		r0, r1, r5
   16ae4:	00012e24 		r0, r1, r5
   16ae8:	00012e24 		r0, r1, r5
   16aec:	00012e24 		r0, r1, r5
   16af0:	00012e24 		r0, r1, r5
   16af4:	00012e24 		r0, r1, r5
   16af8:	00012e24 		r0, r1, r5
   16afc:	00012e24 		r0, r1, r5
   16b00:	00012e24 		r0, r1, r5
   16b04:	00012e24 		r0, r1, r5
   16b08:	00012e24 		r0, r1, r5
   16b0c:	00012e24 		r0, r1, r5
   16b10:	00012e24 		r0, r1, r5
   16b14:	00012e24 		r0, r1, r5
   16b18:	00012e24 		r0, r1, r5
   16b1c:	00012e24 		r0, r1, r5
   16b20:	00012e24 		r0, r1, r5
   16b24:	00012e24 		r0, r1, r5
   16b28:	00012e24 		r0, r1, r5
   16b2c:	00012e24 		r0, r1, r5
   16b30:	00012e24 		r0, r1, r5
   16b34:	00012e24 		r0, r1, r5
   16b38:	00012e24 		r0, r1, r5
   16b3c:	00012e24 		r0, r1, r5
   16b40:	00012e50 		r0, r1, r5
   16b44:	00012e24 		r0, r1, r5
   16b48:	00012e24 		r0, r1, r5
   16b4c:	00012e24 		r0, r1, r5
   16b50:	00012fd8 		r0, r1, r5
   16b54:	00012e24 		r0, r1, r5
   16b58:	00012e24 		r0, r1, r5
   16b5c:	00012e24 		r0, r1, r5
   16b60:	00012e24 		r0, r1, r5
   16b64:	00012e24 		r0, r1, r5
   16b68:	00012e24 		r0, r1, r5
   16b6c:	00012fc0 		r0, r1, r5
   16b70:	00012e00 		r0, r1, r5
   16b74:	00012e24 		r0, r1, r5
   16b78:	00012e24 		r0, r1, r5
   16b7c:	00012e24 		r0, r1, r5
   16b80:	00012e24 		r0, r1, r5
   16b84:	00012e00 		r0, r1, r5
   16b88:	00012e24 		r0, r1, r5
   16b8c:	00012e24 		r0, r1, r5
   16b90:	00012e30 		r0, r1, r5
   16b94:	00012e24 		r0, r1, r5
   16b98:	00012e24 		r0, r1, r5
   16b9c:	00012e24 		r0, r1, r5
   16ba0:	00012e50 		r0, r1, r5
   16ba4:	00012e24 		r0, r1, r5
   16ba8:	00012e24 		r0, r1, r5
   16bac:	00012ea0 		r0, r1, r5
   16bb0:	00012e24 		r0, r1, r5
   16bb4:	00012df8 		r0, r1, r5
   16bb8:	00012e24 		r0, r1, r5
   16bbc:	00012e24 		r0, r1, r5
   16bc0:	00012e50 		r0, r1, r5

00016bc4 <OptionsTable>:
   16bc4:	00000080 		r0, r0, r0
   16bc8:	00000800 	add	r0, r0, r1
   16bcc:	00000040 		r0, r0, r0
   16bd0:	00000400 		r0, r0, r0
   16bd4:	00000020 		r0, r0, r0
   16bd8:	00000002 		r0, r0, r0
   16bdc:	00000010 		r0, r0, r0
   16be0:	00000009 		r0, r0, r0
   16be4:	00000008 		r0, r0, r0
   16be8:	00000040 		r0, r0, r0
   16bec:	00000004 		r0, r0, r0
   16bf0:	00000010 		r0, r0, r0
   16bf4:	00000002 		r0, r0, r0
   16bf8:	00000004 		r0, r0, r0

Disassembly of section .sdata2:

00016bfc <__sbss2_end-0x4>:
   16bfc:	
Disassembly of section .eh_frame:

00016c00 <__EH_FRAME_BEGIN__>:
   16c00:	
Disassembly of section .jcr:

00016c04 <__JCR_END__>:
   16c04:	
Disassembly of section .bss:

00016c08 <__bss_start>:
   16c08:	
00016c0c <dtor_idx.5085>:
   16c0c:	
00016c10 <object.5095>:
	...

00016c28 <ssc_module_loaded>:
   16c28:	
00016c2c <InterruptProcessed>:
   16c2c:	
00016c30 <InterruptController>:
	...

00016c44 <__atexit_lock>:
   16c44:	
00016c48 <Xil_AssertCallbackRoutine>:
   16c48:	
00016c4c <ctx>:
	...

00016d0c <received_metadata>:
	...

00016d24 <preExeResult>:
	...

00016d44 <challenge_number>:
   16d44:	
00016d48 <XIntc_BitPosMask>:
	...

00016dc8 <Xil_AssertStatus>:
   16dc8:	
Disassembly of section .heap:

00016dcc <_heap-0x4>:
   16dcc:	
00016dd0 <_heap>:
	...

Disassembly of section .stack:

000175d0 <_stack_end>:
	...

Disassembly of section .debug_frame:

00000000 <.debug_frame>:
   0:	0000000c 		r0, r0, r0
   4:	ffffffff 		r31, r31, r31
   8:	7c010003 		r0, r1, r0
   c:	00010c0f 		r0, r1, r1
  10:	00000024 		r0, r0, r0
  14:	
Disassembly of section .debug_info:

00000000 <.debug_info>:
       0:	00000f4e 		r0, r0, r1
       4:	00000004 		r0, r0, r0
       8:	01040000 	add	r8, r4, r0
       c:	00002a9c 		r0, r0, r5
      10:	0051b40c 		r2, r17, r22
      14:	0051ea00 		r2, r17, r29
      18:	00714800 	add	r3, r17, r9
      1c:	001f3800 	add	r0, r31, r7
	...
      28:	05040200 	neg	r8, r4
      2c:	00746e69 		r3, r20, r13
      30:	002b7e03 		r1, r11, r15
      34:	3bd80200 	addikc	r30, r24, 512
      38:	04000000 	rsub	r0, r0, r0
      3c:	156d0704 		r11, r13, r0
      40:	08040000 	addc	r0, r4, r0
      44:	00311c05 		r1, r17, r3
      48:	04080400 	neg	r0, r8
      4c:	00000152 		r0, r0, r0
      50:	9d060104 		r8, r6, r0
      54:	03000004 		r24, r0, r0
      58:	00000aff 		r0, r0, r1
      5c:	00621d03 		r3, r2, r3
      60:	01040000 	add	r8, r4, r0
      64:	00375008 		r1, r23, r10
      68:	05020400 	neg	r8, r2
      6c:	00000692 		r0, r0, r0
      70:	db070204 		r24, r7, r0
      74:	0400003f 	neg	r0, r0
      78:	56d00504 		r22, r16, r0
      7c:	04040000 	rsub	r0, r4, r0
      80:	00110a07 		r0, r17, r1
      84:	07080400 	neg	r24, r8
      88:	000023fb 		r0, r0, r4
      8c:	0026c003 		r1, r6, r24
      90:	29070400 	addic	r8, r7, 1024
      94:	03000000 	add	r24, r0, r0
      98:	00005367 		r0, r0, r10
      9c:	00771005 		r3, r23, r2
      a0:	e4030000 	lhui	r0, r3, 0
      a4:	05000052 	neg	r8, r0
      a8:	00007727 		r0, r0, r14
      ac:	16c70500 		r22, r7, r0
      b0:	65020000 	bsrli	r8, r2, 0
      b4:	00003b01 		r0, r0, r7
      b8:	05040600 	neg	r8, r4
      bc:	0000d84a 		r0, r0, r27
      c0:	0db50700 		r13, r21, r0
      c4:	4c050000 	getd	r0, r0
      c8:	000000ad 		r0, r0, r0
      cc:	0011f507 		r0, r17, r30
      d0:	d84d0500 		r2, r13, r0
      d4:	
Disassembly of section .debug_abbrev:

00000000 <.debug_abbrev>:
   0:	25011101 	rsubi	r8, r1, 4353
   4:	030b130e 		r24, r11, r2
   8:	110e1b0e 		r8, r14, r3
   c:	10061201 		r0, r6, r2
  10:	17429917 		r26, r2, r19
  14:	24020000 	rsubi	r0, r2, 0
  18:	3e0b0b00 	rsubikc	r16, r11, 2816
  1c:	0008030b 		r0, r8, r0
  20:	00160300 		r0, r22, r0
  24:	0b3a0e03 		r25, r26, r1
  28:	13490b3b 		r26, r9, r1
  2c:	24040000 	rsubi	r0, r4, 0
  30:	3e0b0b00 	rsubikc	r16, r11, 2816
  34:	000e030b 		r0, r14, r0
  38:	00160500 		r0, r22, r0
  3c:	0b3a0e03 		r25, r26, r1
  40:	1349053b 		r26, r9, r0
  44:	17060000 	rsubk	r24, r6, r0
  48:	3a0b0b01 	addikc	r16, r11, 2817
  4c:	010b3b0b 		r8, r11, r7
  50:	07000013 	neg	r24, r0
  54:	0e03000d 		r16, r3, r0
  58:	0b3b0b3a 		r25, r27, r1
  5c:	00001349 		r0, r0, r2
  60:	49010108 		r8, r1, r0
  64:	00130113 		r0, r19, r0
  68:	00210900 		r1, r1, r1
  6c:	0b2f1349 		r25, r15, r2
  70:	130a0000 	addk	r24, r10, r0
  74:	3a0b0b01 	addikc	r16, r11, 2817
  78:	010b3b0b 		r8, r11, r7
  7c:	0b000013 		r24, r0, r0
  80:	0e03000d 		r16, r3, r0
  84:	0b3b0b3a 		r25, r27, r1
  88:	0b381349 		r25, r24, r2
  8c:	0f0c0000 	rsubc	r24, r12, r0
  90:	000b0b00 		r0, r11, r1
  94:	01130d00 		r8, r19, r1
  98:	0b0b0e03 		r24, r11, r1
  9c:	0b3b0b3a 		r25, r27, r1
  a0:	00001301 		r0, r0, r2
  a4:	03000d0e 		r24, r0, r1
  a8:	3b0b3a08 	addikc	r24, r11, 14856
  ac:	3813490b 	addikc	r0, r19, 18699
  b0:	0f00000b 		r24, r0, r0
  b4:	0b0b000f 		r24, r11, r0
  b8:	00001349 		r0, r0, r2
  bc:	03011310 		r24, r1, r2
  c0:	3a050b0e 	addikc	r16, r5, 2830
  c4:	010b3b0b 		r8, r11, r7
  c8:	11000013 		r8, r0, r0
  cc:	0e03000d 		r16, r3, r0
  d0:	0b3b0b3a 		r25, r27, r1
  d4:	05381349 	neg	r9, r24
  d8:	15120000 	rsubk	r8, r18, r0
  dc:	00192700 		r0, r25, r4
  e0:	00261300 		r1, r6, r2
  e4:	00001349 		r0, r0, r2
  e8:	03011314 		r24, r1, r2
  ec:	3a0b0b0e 	addikc	r16, r11, 2830
  f0:	01053b0b 		r8, r5, r7
  f4:	15000013 		r8, r0, r0
  f8:	0e03000d 		r16, r3, r0
  fc:	053b0b3a 	neg	r9, r27
 100:	0b381349 		r25, r24, r2
 104:	0d160000 	rsubc	r8, r22, r0
 108:	3a080300 	addikc	r16, r8, 768
 10c:	49053b0b 		r8, r5, r7
 110:	000b3813 		r0, r11, r7
 114:	01151700 		r8, r21, r2
 118:	13491927 		r26, r9, r3
 11c:	00001301 		r0, r0, r2
 120:	49000518 		r8, r0, r0
 124:	19000013 		r8, r0, r0
 128:	19270115 		r9, r7, r0
 12c:	00001301 		r0, r0, r2
 130:	0300341a 		r24, r0, r6
 134:	3b0b3a0e 	addikc	r24, r11, 14862
 138:	3f134905 	rsubikc	r24, r19, 18693
 13c:	00193c19 		r0, r25, r7
 140:	00341b00 		r1, r20, r3
 144:	0b3a0e03 		r25, r26, r1
 148:	13490b3b 		r26, r9, r1
 14c:	00001802 		r0, r0, r3
 150:	3f012e1c 	rsubikc	r24, r1, 11804
 154:	3a0e0319 	addikc	r16, r14, 793
 158:	27053b0b 	rsubi	r24, r5, 15115
 15c:	12011119 		r16, r1, r2
 160:	96184006 		r16, r24, r8
 164:	13011942 		r24, r1, r3
 168:	051d0000 	rsub	r8, r29, r0
 16c:	3a080300 	addikc	r16, r8, 768
 170:	49053b0b 		r8, r5, r7
 174:	00180213 		r0, r24, r0
 178:	00051e00 		r0, r5, r3
 17c:	0b3a0e03 		r25, r26, r1
 180:	1349053b 		r26, r9, r0
 184:	00001802 		r0, r0, r3
 188:	0300341f 		r24, r0, r6
 18c:	3b0b3a0e 	addikc	r24, r11, 14862
 190:	02134905 		r16, r19, r9
 194:	20000018 	addi	r0, r0, 24
 198:	08030034 		r0, r3, r0
 19c:	053b0b3a 	neg	r9, r27
 1a0:	18021349 		r0, r2, r2
 1a4:	2e210000 	rsubic	r17, r1, 0
 1a8:	3a0e0301 	addikc	r16, r14, 769
 1ac:	27053b0b 	rsubi	r24, r5, 15115
 1b0:	12011119 		r16, r1, r2
 1b4:	97184006 		r24, r24, r8
 1b8:	13011942 		r24, r1, r3
 1bc:	2e220000 	rsubic	r17, r2, 0
 1c0:	3a0e0301 	addikc	r16, r14, 769
 1c4:	27053b0b 	rsubi	r24, r5, 15115
 1c8:	12011119 		r16, r1, r2
 1cc:	96184006 		r16, r24, r8
 1d0:	13011942 		r24, r1, r3
 1d4:	2e230000 	rsubic	r17, r3, 0
 1d8:	3a0e0301 	addikc	r16, r14, 769
 1dc:	27053b0b 	rsubi	r24, r5, 15115
 1e0:	11134919 		r8, r19, r9
 1e4:	40061201 		r0, r6, r2
 1e8:	19429718 		r10, r2, r18
 1ec:	00001301 		r0, r0, r2
 1f0:	03012e24 		r24, r1, r5
 1f4:	3b0b3a0e 	addikc	r24, r11, 14862
 1f8:	1119270b 		r8, r25, r4
 1fc:	40061201 		r0, r6, r2
 200:	19429718 		r10, r2, r18
 204:	00001301 		r0, r0, r2
 208:	03000525 		r24, r0, r0
 20c:	3b0b3a0e 	addikc	r24, r11, 14862
 210:	0213490b 		r16, r19, r9
 214:	26000018 	rsubi	r16, r0, 24
 218:	08030034 		r0, r3, r0
 21c:	0b3b0b3a 		r25, r27, r1
 220:	18021349 		r0, r2, r2
 224:	2e270000 	rsubic	r17, r7, 0
 228:	03193f01 		r24, r25, r7
 22c:	3b0b3a0e 	addikc	r24, r11, 14862
 230:	1119270b 		r8, r25, r4
 234:	40061201 		r0, r6, r2
 238:	19429618 		r10, r2, r18
 23c:	00001301 		r0, r0, r2
 240:	03000528 		r24, r0, r0
 244:	3b0b3a08 	addikc	r24, r11, 14856
 248:	0213490b 		r16, r19, r9
 24c:	29000018 	addic	r8, r0, 24
 250:	0111010b 		r8, r17, r0
 254:	00000612 		r0, r0, r0
 258:	4901012a 		r8, r1, r0
 25c:	00000013 		r0, r0, r0
 260:	25011101 	rsubi	r8, r1, 4353
 264:	030b130e 		r24, r11, r2
 268:	110e1b0e 		r8, r14, r3
 26c:	10061201 		r0, r6, r2
 270:	17429917 		r26, r2, r19
 274:	24020000 	rsubi	r0, r2, 0
 278:	3e0b0b00 	rsubikc	r16, r11, 2816
 27c:	000e030b 		r0, r14, r0
 280:	00160300 		r0, r22, r0
 284:	0b3a0e03 		r25, r26, r1
 288:	13490b3b 		r26, r9, r1
 28c:	24040000 	rsubi	r0, r4, 0
 290:	3e0b0b00 	rsubikc	r16, r11, 2816
 294:	0008030b 		r0, r8, r0
 298:	00260500 		r1, r6, r0
 29c:	00001349 		r0, r0, r2
 2a0:	03001606 		r24, r0, r2
 2a4:	3b0b3a0e 	addikc	r24, r11, 14862
 2a8:	00134905 		r0, r19, r9
 2ac:	01170700 		r8, r23, r0
 2b0:	0b3a0b0b 		r25, r26, r1
 2b4:	13010b3b 		r24, r1, r1
 2b8:	0d080000 	rsubc	r8, r8, r0
 2bc:	3a0e0300 	addikc	r16, r14, 768
 2c0:	490b3b0b 		r8, r11, r7
 2c4:	09000013 		r8, r0, r0
 2c8:	13490101 		r26, r9, r0
 2cc:	00001301 		r0, r0, r2
 2d0:	4900210a 		r8, r0, r4
 2d4:	000b2f13 		r0, r11, r5
 2d8:	01130b00 		r8, r19, r1
 2dc:	0b3a0b0b 		r25, r26, r1
 2e0:	13010b3b 		r24, r1, r1
 2e4:	0d0c0000 	rsubc	r8, r12, r0
 2e8:	3a0e0300 	addikc	r16, r14, 768
 2ec:	490b3b0b 		r8, r11, r7
 2f0:	000b3813 		r0, r11, r7
 2f4:	000f0d00 		r0, r15, r1
 2f8:	00000b0b 		r0, r0, r1
 2fc:	0301130e 		r24, r1, r2
 300:	3a0b0b0e 	addikc	r16, r11, 2830
 304:	010b3b0b 		r8, r11, r7
 308:	0f000013 		r24, r0, r0
 30c:	0803000d 		r0, r3, r0
 310:	0b3b0b3a 		r25, r27, r1
 314:	0b381349 		r25, r24, r2
 318:	0f100000 	rsubc	r24, r16, r0
 31c:	490b0b00 		r8, r11, r1
 320:	11000013 		r8, r0, r0
 324:	0e030113 		r16, r3, r0
 328:	0b3a050b 		r25, r26, r0
 32c:	13010b3b 		r24, r1, r1
 330:	0d120000 	rsubc	r8, r18, r0
 334:	3a0e0300 	addikc	r16, r14, 768
 338:	490b3b0b 		r8, r11, r7
 33c:	00053813 		r0, r5, r7
 340:	00151300 		r0, r21, r2
 344:	00001927 		r0, r0, r3
 348:	03011314 		r24, r1, r2
 34c:	3a0b0b0e 	addikc	r16, r11, 2830
 350:	01053b0b 		r8, r5, r7
 354:	15000013 		r8, r0, r0
 358:	0e03000d 		r16, r3, r0
 35c:	053b0b3a 	neg	r9, r27
 360:	0b381349 		r25, r24, r2
 364:	0d160000 	rsubc	r8, r22, r0
 368:	3a080300 	addikc	r16, r8, 768
 36c:	49053b0b 		r8, r5, r7
 370:	000b3813 		r0, r11, r7
 374:	01151700 		r8, r21, r2
 378:	13491927 		r26, r9, r3
 37c:	00001301 		r0, r0, r2
 380:	49000518 		r8, r0, r0
 384:	19000013 		r8, r0, r0
 388:	19270115 		r9, r7, r0
 38c:	00001301 		r0, r0, r2
 390:	0300341a 		r24, r0, r6
 394:	3b0b3a0e 	addikc	r24, r11, 14862
 398:	3f134905 	rsubikc	r24, r19, 18693
 39c:	00193c19 		r0, r25, r7
 3a0:	00341b00 		r1, r20, r3
 3a4:	0b3a0e03 		r25, r26, r1
 3a8:	13490b3b 		r26, r9, r1
 3ac:	00001802 		r0, r0, r3
 3b0:	3f012e1c 	rsubikc	r24, r1, 11804
 3b4:	3a0e0319 	addikc	r16, r14, 793
 3b8:	27053b0b 	rsubi	r24, r5, 15115
 3bc:	11134919 		r8, r19, r9
 3c0:	40061201 		r0, r6, r2
 3c4:	19429618 		r10, r2, r18
 3c8:	00001301 		r0, r0, r2
 3cc:	0300051d 		r24, r0, r0
 3d0:	3b0b3a08 	addikc	r24, r11, 14856
 3d4:	02134905 		r16, r19, r9
 3d8:	1e000018 		r16, r0, r0
 3dc:	0e030005 		r16, r3, r0
 3e0:	053b0b3a 	neg	r9, r27
 3e4:	18021349 		r0, r2, r2
 3e8:	341f0000 	rsubik	r0, r31, 0
 3ec:	3a080300 	addikc	r16, r8, 768
 3f0:	49053b0b 		r8, r5, r7
 3f4:	00180213 		r0, r24, r0
 3f8:	00342000 	add	r1, r20, r4
 3fc:	0b3a0e03 		r25, r26, r1
 400:	1349053b 		r26, r9, r0
 404:	00001802 		r0, r0, r3
 408:	01010b21 		r8, r1, r1
 40c:	22000013 	addi	r16, r0, 19
 410:	0e030034 		r16, r3, r0
 414:	053b0b3a 	neg	r9, r27
 418:	00001349 		r0, r0, r2
 41c:	11010b23 		r8, r1, r1
 420:	00061201 		r0, r6, r2
 424:	00262400 		r1, r6, r4
 428:	2e250000 	rsubic	r17, r5, 0
 42c:	3a0e0301 	addikc	r16, r14, 769
 430:	270b3b0b 	rsubi	r24, r11, 15115
 434:	11134919 		r8, r19, r9
 438:	40061201 		r0, r6, r2
 43c:	19429618 		r10, r2, r18
 440:	00001301 		r0, r0, r2
 444:	03000526 		r24, r0, r0
 448:	3b0b3a08 	addikc	r24, r11, 14856
 44c:	0213490b 		r16, r19, r9
 450:	27000018 	rsubi	r24, r0, 24
 454:	0e030005 		r16, r3, r0
 458:	0b3b0b3a 		r25, r27, r1
 45c:	18021349 		r0, r2, r2
 460:	34280000 	rsubik	r1, r8, 0
 464:	3a080300 	addikc	r16, r8, 768
 468:	490b3b0b 		r8, r11, r7
 46c:	00180213 		r0, r24, r0
 470:	012e2900 		r9, r14, r5
 474:	0b3a0e03 		r25, r26, r1
 478:	19270b3b 		r9, r7, r1
 47c:	06120111 	neg	r16, r18
 480:	42961840 		r20, r22, r3
 484:	00130119 		r0, r19, r0
 488:	010b2a00 		r8, r11, r5
 48c:	06120111 	neg	r16, r18
 490:	00001301 		r0, r0, r2
 494:	03012e2b 		r24, r1, r5
 498:	3b0b3a0e 	addikc	r24, r11, 14862
 49c:	1119270b 		r8, r25, r4
 4a0:	40061201 		r0, r6, r2
 4a4:	19429718 		r10, r2, r18
 4a8:	00001301 		r0, r0, r2
 4ac:	03012e2c 		r24, r1, r5
 4b0:	3b0b3a0e 	addikc	r24, r11, 14862
 4b4:	4919270b 		r8, r25, r4
 4b8:	12011113 		r16, r1, r2
 4bc:	97184006 		r24, r24, r8
 4c0:	13011942 		r24, r1, r3
 4c4:	2e2d0000 	rsubic	r17, r13, 0
 4c8:	3a0e0301 	addikc	r16, r14, 769
 4cc:	270b3b0b 	rsubi	r24, r11, 15115
 4d0:	11134919 		r8, r19, r9
 4d4:	40061201 		r0, r6, r2
 4d8:	19429718 		r10, r2, r18
 4dc:	01000000 	add	r8, r0, r0
 4e0:	0e250111 		r17, r5, r0
 4e4:	0e030b13 		r16, r3, r1
 4e8:	01110e1b 		r8, r17, r1
 4ec:	17100612 		r24, r16, r0
 4f0:	00174299 		r0, r23, r8
 4f4:	00240200 		r1, r4, r0
 4f8:	0b3e0b0b 		r25, r30, r1
 4fc:	00000803 		r0, r0, r1
 500:	03001603 		r24, r0, r2
 504:	3b0b3a0e 	addikc	r24, r11, 14862
 508:	0013490b 		r0, r19, r9
 50c:	00240400 		r1, r4, r0
 510:	0b3e0b0b 		r25, r30, r1
 514:	00000e03 		r0, r0, r1
 518:	49002605 		r8, r0, r4
 51c:	06000013 	neg	r16, r0
 520:	0e030016 		r16, r3, r0
 524:	053b0b3a 	neg	r9, r27
 528:	00001349 		r0, r0, r2
 52c:	0b011707 		r24, r1, r2
 530:	3b0b3a0b 	addikc	r24, r11, 14859
 534:	0013010b 		r0, r19, r0
 538:	000d0800 	add	r0, r13, r1
 53c:	0b3a0e03 		r25, r26, r1
 540:	13490b3b 		r26, r9, r1
 544:	01090000 	add	r8, r9, r0
 548:	01134901 		r8, r19, r9
 54c:	0a000013 		r16, r0, r0
 550:	13490021 		r26, r9, r0
 554:	00000b2f 		r0, r0, r1
 558:	0b01130b 		r24, r1, r2
 55c:	3b0b3a0b 	addikc	r24, r11, 14859
 560:	0013010b 		r0, r19, r0
 564:	000d0c00 		r0, r13, r1
 568:	0b3a0e03 		r25, r26, r1
 56c:	13490b3b 		r26, r9, r1
 570:	00000b38 		r0, r0, r1
 574:	0b000f0d 		r24, r0, r1
 578:	0e00000b 		r16, r0, r0
 57c:	0e030113 		r16, r3, r0
 580:	0b3a0b0b 		r25, r26, r1
 584:	13010b3b 		r24, r1, r1
 588:	0d0f0000 	rsubc	r8, r15, r0
 58c:	3a080300 	addikc	r16, r8, 768
 590:	490b3b0b 		r8, r11, r7
 594:	000b3813 		r0, r11, r7
 598:	000f1000 	add	r0, r15, r2
 59c:	13490b0b 		r26, r9, r1
 5a0:	13110000 	addk	r24, r17, r0
 5a4:	0b0e0301 		r24, r14, r0
 5a8:	3b0b3a05 	addikc	r24, r11, 14853
 5ac:	0013010b 		r0, r19, r0
 5b0:	000d1200 		r0, r13, r2
 5b4:	0b3a0e03 		r25, r26, r1
 5b8:	13490b3b 		r26, r9, r1
 5bc:	00000538 		r0, r0, r0
 5c0:	27001513 	rsubi	r24, r0, 5395
 5c4:	14000019 		r0, r0, r0
 5c8:	0e030113 		r16, r3, r0
 5cc:	0b3a0b0b 		r25, r26, r1
 5d0:	1301053b 		r24, r1, r0
 5d4:	0d150000 	rsubc	r8, r21, r0
 5d8:	3a0e0300 	addikc	r16, r14, 768
 5dc:	49053b0b 		r8, r5, r7
 5e0:	000b3813 		r0, r11, r7
 5e4:	000d1600 		r0, r13, r2
 5e8:	0b3a0803 		r25, r26, r1
 5ec:	1349053b 		r26, r9, r0
 5f0:	00000b38 		r0, r0, r1
 5f4:	27011517 	rsubi	r24, r1, 5399
 5f8:	01134919 		r8, r19, r9
 5fc:	18000013 		r0, r0, r0
 600:	13490005 		r26, r9, r0
 604:	15190000 	rsubk	r8, r25, r0
 608:	01192701 		r8, r25, r4
 60c:	1a000013 		r16, r0, r0
 610:	0e030034 		r16, r3, r0
 614:	053b0b3a 	neg	r9, r27
 618:	193f1349 		r9, r31, r2
 61c:	0000193c 		r0, r0, r3
 620:	3f012e1b 	rsubikc	r24, r1, 11803
 624:	3a0e0319 	addikc	r16, r14, 793
 628:	270b3b0b 	rsubi	r24, r11, 15115
 62c:	12011119 		r16, r1, r2
 630:	96184006 		r16, r24, r8
 634:	13011942 		r24, r1, r3
 638:	051c0000 	rsub	r8, r28, r0
 63c:	3a080300 	addikc	r16, r8, 768
 640:	490b3b0b 		r8, r11, r7
 644:	00180213 		r0, r24, r0
 648:	00051d00 		r0, r5, r3
 64c:	0b3a0e03 		r25, r26, r1
 650:	13490b3b 		r26, r9, r1
 654:	00001802 		r0, r0, r3
 658:	0300341e 		r24, r0, r6
 65c:	3b0b3a0e 	addikc	r24, r11, 14862
 660:	0213490b 		r16, r19, r9
 664:	1f000018 		r24, r0, r0
 668:	0111010b 		r8, r17, r0
 66c:	00000612 		r0, r0, r0
 670:	03003420 		r24, r0, r6
 674:	3b0b3a08 	addikc	r24, r11, 14856
 678:	0213490b 		r16, r19, r9
 67c:	21000018 	addi	r8, r0, 24
 680:	193f012e 		r9, r31, r0
 684:	0b3a0e03 		r25, r26, r1
 688:	19270b3b 		r9, r7, r1
 68c:	06120111 	neg	r16, r18
 690:	42961840 		r20, r22, r3
 694:	00000019 		r0, r0, r0
 698:	25011101 	rsubi	r8, r1, 4353
 69c:	030b130e 		r24, r11, r2
 6a0:	110e1b0e 		r8, r14, r3
 6a4:	10061201 		r0, r6, r2
 6a8:	17429917 		r26, r2, r19
 6ac:	24020000 	rsubi	r0, r2, 0
 6b0:	3e0b0b00 	rsubikc	r16, r11, 2816
 6b4:	000e030b 		r0, r14, r0
 6b8:	00160300 		r0, r22, r0
 6bc:	0b3a0e03 		r25, r26, r1
 6c0:	13490b3b 		r26, r9, r1
 6c4:	24040000 	rsubi	r0, r4, 0
 6c8:	3e0b0b00 	rsubikc	r16, r11, 2816
 6cc:	0008030b 		r0, r8, r0
 6d0:	00350500 		r1, r21, r0
 6d4:	00001349 		r0, r0, r2
 6d8:	03001606 		r24, r0, r2
 6dc:	3b0b3a0e 	addikc	r24, r11, 14862
 6e0:	00134905 		r0, r19, r9
 6e4:	01170700 		r8, r23, r0
 6e8:	0b3a0b0b 		r25, r26, r1
 6ec:	13010b3b 		r24, r1, r1
 6f0:	0d080000 	rsubc	r8, r8, r0
 6f4:	3a0e0300 	addikc	r16, r14, 768
 6f8:	490b3b0b 		r8, r11, r7
 6fc:	09000013 		r8, r0, r0
 700:	13490101 		r26, r9, r0
 704:	00001301 		r0, r0, r2
 708:	4900210a 		r8, r0, r4
 70c:	000b2f13 		r0, r11, r5
 710:	01130b00 		r8, r19, r1
 714:	0b3a0b0b 		r25, r26, r1
 718:	13010b3b 		r24, r1, r1
 71c:	0d0c0000 	rsubc	r8, r12, r0
 720:	3a0e0300 	addikc	r16, r14, 768
 724:	490b3b0b 		r8, r11, r7
 728:	000b3813 		r0, r11, r7
 72c:	000f0d00 		r0, r15, r1
 730:	00000b0b 		r0, r0, r1
 734:	0301130e 		r24, r1, r2
 738:	3a0b0b0e 	addikc	r16, r11, 2830
 73c:	010b3b0b 		r8, r11, r7
 740:	0f000013 		r24, r0, r0
 744:	0803000d 		r0, r3, r0
 748:	0b3b0b3a 		r25, r27, r1
 74c:	0b381349 		r25, r24, r2
 750:	0f100000 	rsubc	r24, r16, r0
 754:	490b0b00 		r8, r11, r1
 758:	11000013 		r8, r0, r0
 75c:	0e030113 		r16, r3, r0
 760:	0b3a050b 		r25, r26, r0
 764:	13010b3b 		r24, r1, r1
 768:	0d120000 	rsubc	r8, r18, r0
 76c:	3a0e0300 	addikc	r16, r14, 768
 770:	490b3b0b 		r8, r11, r7
 774:	00053813 		r0, r5, r7
 778:	00151300 		r0, r21, r2
 77c:	00001927 		r0, r0, r3
 780:	49002614 		r8, r0, r4
 784:	15000013 		r8, r0, r0
 788:	0e030113 		r16, r3, r0
 78c:	0b3a0b0b 		r25, r26, r1
 790:	1301053b 		r24, r1, r0
 794:	0d160000 	rsubc	r8, r22, r0
 798:	3a0e0300 	addikc	r16, r14, 768
 79c:	49053b0b 		r8, r5, r7
 7a0:	000b3813 		r0, r11, r7
 7a4:	000d1700 		r0, r13, r2
 7a8:	0b3a0803 		r25, r26, r1
 7ac:	1349053b 		r26, r9, r0
 7b0:	00000b38 		r0, r0, r1
 7b4:	27011518 	rsubi	r24, r1, 5400
 7b8:	01134919 		r8, r19, r9
 7bc:	19000013 		r8, r0, r0
 7c0:	13490005 		r26, r9, r0
 7c4:	151a0000 	rsubk	r8, r26, r0
 7c8:	01192701 		r8, r25, r4
 7cc:	1b000013 		r24, r0, r0
 7d0:	0e030034 		r16, r3, r0
 7d4:	053b0b3a 	neg	r9, r27
 7d8:	193f1349 		r9, r31, r2
 7dc:	0000193c 		r0, r0, r3
 7e0:	0300161c 		r24, r0, r2
 7e4:	3b0b3a08 	addikc	r24, r11, 14856
 7e8:	0013490b 		r0, r19, r9
 7ec:	00341d00 		r1, r20, r3
 7f0:	0b3a0e03 		r25, r26, r1
 7f4:	13490b3b 		r26, r9, r1
 7f8:	193c193f 		r9, r28, r3
 7fc:	211e0000 	addi	r8, r30, 0
 800:	1f000000 	rsubkc	r24, r0, r0
 804:	0b0b0113 		r24, r11, r0
 808:	053b0b3a 	neg	r9, r27
 80c:	00001301 		r0, r0, r2
 810:	03003420 		r24, r0, r6
 814:	3b0b3a0e 	addikc	r24, r11, 14862
 818:	0213490b 		r16, r19, r9
 81c:	21000018 	addi	r8, r0, 24
 820:	0e030104 		r16, r3, r0
 824:	13490b0b 		r26, r9, r1
 828:	0b3b0b3a 		r25, r27, r1
 82c:	00001301 		r0, r0, r2
 830:	03002822 		r24, r0, r5
 834:	000b1c0e 		r0, r11, r3
 838:	00342300 		r1, r20, r4
 83c:	0b3a0e03 		r25, r26, r1
 840:	13490b3b 		r26, r9, r1
 844:	1802193f 		r0, r2, r3
 848:	13240000 	addk	r25, r4, r0
 84c:	3a050b01 	addikc	r16, r5, 2817
 850:	010b3b0b 		r8, r11, r7
 854:	25000013 	rsubi	r8, r0, 19
 858:	13490021 		r26, r9, r0
 85c:	0000052f 		r0, r0, r0
 860:	03003426 		r24, r0, r6
 864:	3b0b3a08 	addikc	r24, r11, 14856
 868:	3f13490b 	rsubikc	r24, r19, 18699
 86c:	00180219 		r0, r24, r0
 870:	012e2700 		r9, r14, r4
 874:	0e03193f 		r16, r3, r3
 878:	053b0b3a 	neg	r9, r27
 87c:	01111349 		r8, r17, r2
 880:	18400612 		r2, r0, r0
 884:	01194296 		r8, r25, r8
 888:	28000013 	addic	r0, r0, 19
 88c:	0e030034 		r16, r3, r0
 890:	053b0b3a 	neg	r9, r27
 894:	18021349 		r0, r2, r2
 898:	34290000 	rsubik	r1, r9, 0
 89c:	3a080300 	addikc	r16, r8, 768
 8a0:	49053b0b 		r8, r5, r7
 8a4:	00180213 		r0, r24, r0
 8a8:	012e2a00 		r9, r14, r5
 8ac:	0e03193f 		r16, r3, r3
 8b0:	053b0b3a 	neg	r9, r27
 8b4:	13491927 		r26, r9, r3
 8b8:	06120111 	neg	r16, r18
 8bc:	42961840 		r20, r22, r3
 8c0:	00130119 		r0, r19, r0
 8c4:	00052b00 		r0, r5, r5
 8c8:	0b3a0e03 		r25, r26, r1
 8cc:	1349053b 		r26, r9, r0
 8d0:	00001802 		r0, r0, r3
 8d4:	3f002e2c 	rsubikc	r24, r0, 11820
 8d8:	3a0e0319 	addikc	r16, r14, 793
 8dc:	11053b0b 		r8, r5, r7
 8e0:	40061201 		r0, r6, r2
 8e4:	19429618 		r10, r2, r18
 8e8:	2e2d0000 	rsubic	r17, r13, 0
 8ec:	03193f00 		r24, r25, r7
 8f0:	3b0b3a0e 	addikc	r24, r11, 14862
 8f4:	1201110b 		r16, r1, r2
 8f8:	96184006 		r16, r24, r8
 8fc:	00001942 		r0, r0, r3
 900:	3f012e2e 	rsubikc	r24, r1, 11822
 904:	3a0e0319 	addikc	r16, r14, 793
 908:	110b3b0b 		r8, r11, r7
 90c:	40061201 		r0, r6, r2
 910:	19429618 		r10, r2, r18
 914:	00001301 		r0, r0, r2
 918:	3f012e2f 	rsubikc	r24, r1, 11823
 91c:	3a0e0319 	addikc	r16, r14, 793
 920:	270b3b0b 	rsubi	r24, r11, 15115
 924:	12011119 		r16, r1, r2
 928:	96184006 		r16, r24, r8
 92c:	13011942 		r24, r1, r3
 930:	05300000 	rsub	r9, r16, r0
 934:	3a0e0300 	addikc	r16, r14, 768
 938:	490b3b0b 		r8, r11, r7
 93c:	00180213 		r0, r24, r0
 940:	012e3100 		r9, r14, r6
 944:	0e03193f 		r16, r3, r3
 948:	0b3b0b3a 		r25, r27, r1
 94c:	13491927 		r26, r9, r3
 950:	06120111 	neg	r16, r18
 954:	42971840 		r20, r23, r3
 958:	00130119 		r0, r19, r0
 95c:	012e3200 		r9, r14, r6
 960:	0e03193f 		r16, r3, r3
 964:	0b3b0b3a 		r25, r27, r1
 968:	193c1349 		r9, r28, r2
 96c:	00001301 		r0, r0, r2
 970:	00001833 		r0, r0, r3
 974:	010b3400 		r8, r11, r6
 978:	06120111 	neg	r16, r18
 97c:	2e350000 	rsubic	r17, r21, 0
 980:	03193f01 		r24, r25, r7
 984:	3b0b3a0e 	addikc	r24, r11, 14862
 988:	3c13490b 	rsubikc	r0, r19, 18699
 98c:	36000019 	rsubik	r16, r0, 25
 990:	0111010b 		r8, r17, r0
 994:	13010612 		r24, r1, r0
 998:	2e370000 	rsubic	r17, r23, 0
 99c:	03193f00 		r24, r25, r7
 9a0:	3b0b3a0e 	addikc	r24, r11, 14862
 9a4:	1119270b 		r8, r25, r4
 9a8:	40061201 		r0, r6, r2
 9ac:	19429718 		r10, r2, r18
 9b0:	01000000 	add	r8, r0, r0
 9b4:	0e250111 		r17, r5, r0
 9b8:	0e030b13 		r16, r3, r1
 9bc:	01110e1b 		r8, r17, r1
 9c0:	17100612 		r24, r16, r0
 9c4:	00174299 		r0, r23, r8
 9c8:	00240200 		r1, r4, r0
 9cc:	0b3e0b0b 		r25, r30, r1
 9d0:	00000e03 		r0, r0, r1
 9d4:	03001603 		r24, r0, r2
 9d8:	3b0b3a0e 	addikc	r24, r11, 14862
 9dc:	0013490b 		r0, r19, r9
 9e0:	00240400 		r1, r4, r0
 9e4:	0b3e0b0b 		r25, r30, r1
 9e8:	00000803 		r0, r0, r1
 9ec:	03001605 		r24, r0, r2
 9f0:	3b0b3a08 	addikc	r24, r11, 14856
 9f4:	0013490b 		r0, r19, r9
 9f8:	00340600 		r1, r20, r0
 9fc:	0b3a0e03 		r25, r26, r1
 a00:	13490b3b 		r26, r9, r1
 a04:	193c193f 		r9, r28, r3
 a08:	2e070000 	rsubic	r16, r7, 0
 a0c:	03193f00 		r24, r25, r7
 a10:	3b0b3a0e 	addikc	r24, r11, 14862
 a14:	1201110b 		r16, r1, r2
 a18:	96184006 		r16, r24, r8
 a1c:	00001942 		r0, r0, r3
 a20:	3f002e08 	rsubikc	r24, r0, 11784
 a24:	3a0e0319 	addikc	r16, r14, 793
 a28:	110b3b0b 		r8, r11, r7
 a2c:	40061201 		r0, r6, r2
 a30:	19429718 		r10, r2, r18
 a34:	01000000 	add	r8, r0, r0
 a38:	0e250111 		r17, r5, r0
 a3c:	0e030b13 		r16, r3, r1
 a40:	01110e1b 		r8, r17, r1
 a44:	17100612 		r24, r16, r0
 a48:	00174299 		r0, r23, r8
 a4c:	00240200 		r1, r4, r0
 a50:	0b3e0b0b 		r25, r30, r1
 a54:	00000803 		r0, r0, r1
 a58:	0b002403 		r24, r0, r4
 a5c:	030b3e0b 		r24, r11, r7
 a60:	0400000e 	neg	r0, r0
 a64:	13490026 		r26, r9, r0
 a68:	16050000 	rsubk	r16, r5, r0
 a6c:	3a0e0300 	addikc	r16, r14, 768
 a70:	490b3b0b 		r8, r11, r7
 a74:	06000013 	neg	r16, r0
 a78:	0e030016 		r16, r3, r0
 a7c:	053b0b3a 	neg	r9, r27
 a80:	00001349 		r0, r0, r2
 a84:	0b011707 		r24, r1, r2
 a88:	3b0b3a0b 	addikc	r24, r11, 14859
 a8c:	0013010b 		r0, r19, r0
 a90:	000d0800 	add	r0, r13, r1
 a94:	0b3a0e03 		r25, r26, r1
 a98:	13490b3b 		r26, r9, r1
 a9c:	01090000 	add	r8, r9, r0
 aa0:	01134901 		r8, r19, r9
 aa4:	0a000013 		r16, r0, r0
 aa8:	13490021 		r26, r9, r0
 aac:	00000b2f 		r0, r0, r1
 ab0:	0b01130b 		r24, r1, r2
 ab4:	3b0b3a0b 	addikc	r24, r11, 14859
 ab8:	0013010b 		r0, r19, r0
 abc:	000d0c00 		r0, r13, r1
 ac0:	0b3a0e03 		r25, r26, r1
 ac4:	13490b3b 		r26, r9, r1
 ac8:	00000b38 		r0, r0, r1
 acc:	0b000f0d 		r24, r0, r1
 ad0:	0e00000b 		r16, r0, r0
 ad4:	0e030113 		r16, r3, r0
 ad8:	0b3a0b0b 		r25, r26, r1
 adc:	13010b3b 		r24, r1, r1
 ae0:	0d0f0000 	rsubc	r8, r15, r0
 ae4:	3a080300 	addikc	r16, r8, 768
 ae8:	490b3b0b 		r8, r11, r7
 aec:	000b3813 		r0, r11, r7
 af0:	000f1000 	add	r0, r15, r2
 af4:	13490b0b 		r26, r9, r1
 af8:	13110000 	addk	r24, r17, r0
 afc:	0b0e0301 		r24, r14, r0
 b00:	3b0b3a05 	addikc	r24, r11, 14853
 b04:	0013010b 		r0, r19, r0
 b08:	000d1200 		r0, r13, r2
 b0c:	0b3a0e03 		r25, r26, r1
 b10:	13490b3b 		r26, r9, r1
 b14:	00000538 		r0, r0, r0
 b18:	27001513 	rsubi	r24, r0, 5395
 b1c:	14000019 		r0, r0, r0
 b20:	0e030113 		r16, r3, r0
 b24:	0b3a0b0b 		r25, r26, r1
 b28:	1301053b 		r24, r1, r0
 b2c:	0d150000 	rsubc	r8, r21, r0
 b30:	3a0e0300 	addikc	r16, r14, 768
 b34:	49053b0b 		r8, r5, r7
 b38:	000b3813 		r0, r11, r7
 b3c:	000d1600 		r0, r13, r2
 b40:	0b3a0803 		r25, r26, r1
 b44:	1349053b 		r26, r9, r0
 b48:	00000b38 		r0, r0, r1
 b4c:	27011517 	rsubi	r24, r1, 5399
 b50:	01134919 		r8, r19, r9
 b54:	18000013 		r0, r0, r0
 b58:	13490005 		r26, r9, r0
 b5c:	15190000 	rsubk	r8, r25, r0
 b60:	01192701 		r8, r25, r4
 b64:	1a000013 		r16, r0, r0
 b68:	0e030034 		r16, r3, r0
 b6c:	053b0b3a 	neg	r9, r27
 b70:	193f1349 		r9, r31, r2
 b74:	0000193c 		r0, r0, r3
 b78:	3f012e1b 	rsubikc	r24, r1, 11803
 b7c:	3a0e0319 	addikc	r16, r14, 793
 b80:	270b3b0b 	rsubi	r24, r11, 15115
 b84:	12011119 		r16, r1, r2
 b88:	96184006 		r16, r24, r8
 b8c:	13011942 		r24, r1, r3
 b90:	051c0000 	rsub	r8, r28, r0
 b94:	3a080300 	addikc	r16, r8, 768
 b98:	490b3b0b 		r8, r11, r7
 b9c:	00180213 		r0, r24, r0
 ba0:	00051d00 		r0, r5, r3
 ba4:	0b3a0e03 		r25, r26, r1
 ba8:	13490b3b 		r26, r9, r1
 bac:	00001802 		r0, r0, r3
 bb0:	0300341e 		r24, r0, r6
 bb4:	3b0b3a08 	addikc	r24, r11, 14856
 bb8:	0213490b 		r16, r19, r9
 bbc:	1f000018 		r24, r0, r0
 bc0:	00000026 		r0, r0, r0
 bc4:	03003420 		r24, r0, r6
 bc8:	3b0b3a0e 	addikc	r24, r11, 14862
 bcc:	0213490b 		r16, r19, r9
 bd0:	21000018 	addi	r8, r0, 24
 bd4:	193f012e 		r9, r31, r0
 bd8:	0b3a0e03 		r25, r26, r1
 bdc:	19270b3b 		r9, r7, r1
 be0:	06120111 	neg	r16, r18
 be4:	42971840 		r20, r23, r3
 be8:	00130119 		r0, r19, r0
 bec:	010b2200 		r8, r11, r4
 bf0:	06120111 	neg	r16, r18
 bf4:	00001301 		r0, r0, r2
 bf8:	11010b23 		r8, r1, r1
 bfc:	00061201 		r0, r6, r2
 c00:	012e2400 		r9, r14, r4
 c04:	0b3a0e03 		r25, r26, r1
 c08:	19270b3b 		r9, r7, r1
 c0c:	06120111 	neg	r16, r18
 c10:	42971840 		r20, r23, r3
 c14:	00130119 		r0, r19, r0
 c18:	11010000 	addk	r8, r1, r0
 c1c:	130e2501 		r24, r14, r4
 c20:	1b0e030b 		r24, r14, r0
 c24:	1201110e 		r16, r1, r2
 c28:	99171006 		r8, r23, r2
 c2c:	00001742 		r0, r0, r2
 c30:	0b011302 		r24, r1, r2
 c34:	3b0b3a0b 	addikc	r24, r11, 14859
 c38:	0013010b 		r0, r19, r0
 c3c:	000d0300 		r0, r13, r0
 c40:	0b3a0803 		r25, r26, r1
 c44:	13490b3b 		r26, r9, r1
 c48:	00000b38 		r0, r0, r1
 c4c:	0b002404 		r24, r0, r4
 c50:	030b3e0b 		r24, r11, r7
 c54:	0500000e 	neg	r8, r0
 c58:	0e030016 		r16, r3, r0
 c5c:	0b3b0b3a 		r25, r27, r1
 c60:	00001349 		r0, r0, r2
 c64:	49002606 		r8, r0, r4
 c68:	07000013 	neg	r24, r0
 c6c:	0e03000d 		r16, r3, r0
 c70:	0b3b0b3a 		r25, r27, r1
 c74:	0b381349 		r25, r24, r2
 c78:	01080000 	add	r8, r8, r0
 c7c:	01134901 		r8, r19, r9
 c80:	09000013 		r8, r0, r0
 c84:	13490021 		r26, r9, r0
 c88:	00000b2f 		r0, r0, r1
 c8c:	0b00240a 		r24, r0, r4
 c90:	030b3e0b 		r24, r11, r7
 c94:	0b000008 		r24, r0, r0
 c98:	193f012e 		r9, r31, r0
 c9c:	0b3a0e03 		r25, r26, r1
 ca0:	1927053b 		r9, r7, r0
 ca4:	06120111 	neg	r16, r18
 ca8:	42961840 		r20, r22, r3
 cac:	00130119 		r0, r19, r0
 cb0:	00050c00 		r0, r5, r1
 cb4:	0b3a0803 		r25, r26, r1
 cb8:	1349053b 		r26, r9, r0
 cbc:	00001802 		r0, r0, r3
 cc0:	0300050d 		r24, r0, r0
 cc4:	3b0b3a0e 	addikc	r24, r11, 14862
 cc8:	02134905 		r16, r19, r9
 ccc:	0e000018 		r16, r0, r0
 cd0:	08030034 		r0, r3, r0
 cd4:	053b0b3a 	neg	r9, r27
 cd8:	18021349 		r0, r2, r2
 cdc:	0f0f0000 	rsubc	r24, r15, r0
 ce0:	490b0b00 		r8, r11, r1
 ce4:	10000013 		r0, r0, r0
 ce8:	00000026 		r0, r0, r0
 cec:	3f012e11 	rsubikc	r24, r1, 11793
 cf0:	3a0e0319 	addikc	r16, r14, 793
 cf4:	270b3b0b 	rsubi	r24, r11, 15115
 cf8:	12011119 		r16, r1, r2
 cfc:	96184006 		r16, r24, r8
 d00:	13011942 		r24, r1, r3
 d04:	05120000 	rsub	r8, r18, r0
 d08:	3a080300 	addikc	r16, r8, 768
 d0c:	490b3b0b 		r8, r11, r7
 d10:	00180213 		r0, r24, r0
 d14:	00051300 		r0, r5, r2
 d18:	0b3a0e03 		r25, r26, r1
 d1c:	13490b3b 		r26, r9, r1
 d20:	00001802 		r0, r0, r3
 d24:	03003414 		r24, r0, r6
 d28:	3b0b3a08 	addikc	r24, r11, 14856
 d2c:	0213490b 		r16, r19, r9
 d30:	15000018 		r8, r0, r0
 d34:	193f012e 		r9, r31, r0
 d38:	0b3a0e03 		r25, r26, r1
 d3c:	19270b3b 		r9, r7, r1
 d40:	193c1349 		r9, r28, r2
 d44:	00001301 		r0, r0, r2
 d48:	49000516 		r8, r0, r0
 d4c:	17000013 		r24, r0, r0
 d50:	0111010b 		r8, r17, r0
 d54:	13010612 		r24, r1, r0
 d58:	34180000 	rsubik	r0, r24, 0
 d5c:	3a0e0300 	addikc	r16, r14, 768
 d60:	490b3b0b 		r8, r11, r7
 d64:	00180213 		r0, r24, r0
 d68:	010b1900 		r8, r11, r3
 d6c:	06120111 	neg	r16, r18
 d70:	0f1a0000 	rsubc	r24, r26, r0
 d74:	000b0b00 		r0, r11, r1
 d78:	012e1b00 		r9, r14, r3
 d7c:	0e03193f 		r16, r3, r3
 d80:	0b3b0b3a 		r25, r27, r1
 d84:	13491927 		r26, r9, r3
 d88:	0000193c 		r0, r0, r3
 d8c:	03012e1c 		r24, r1, r5
 d90:	3b0b3a0e 	addikc	r24, r11, 14862
 d94:	1119270b 		r8, r25, r4
 d98:	40061201 		r0, r6, r2
 d9c:	19429718 		r10, r2, r18
 da0:	00001301 		r0, r0, r2
 da4:	01110100 		r8, r17, r0
 da8:	0b130e25 		r24, r19, r1
 dac:	0e1b0e03 		r16, r27, r1
 db0:	06120111 	neg	r16, r18
 db4:	42991710 		r20, r25, r2
 db8:	02000017 		r16, r0, r0
 dbc:	0b0b0024 		r24, r11, r0
 dc0:	0e030b3e 		r16, r3, r1
 dc4:	16030000 	rsubk	r16, r3, r0
 dc8:	3a0e0300 	addikc	r16, r14, 768
 dcc:	490b3b0b 		r8, r11, r7
 dd0:	04000013 	neg	r0, r0
 dd4:	0b0b0024 		r24, r11, r0
 dd8:	08030b3e 		r0, r3, r1
 ddc:	26050000 	rsubi	r16, r5, 0
 de0:	00134900 		r0, r19, r9
 de4:	00160600 		r0, r22, r0
 de8:	0b3a0803 		r25, r26, r1
 dec:	13490b3b 		r26, r9, r1
 df0:	0f070000 	rsubc	r24, r7, r0
 df4:	490b0b00 		r8, r11, r1
 df8:	08000013 		r0, r0, r0
 dfc:	19270115 		r9, r7, r0
 e00:	00001301 		r0, r0, r2
 e04:	49000509 		r8, r0, r0
 e08:	0a000013 		r16, r0, r0
 e0c:	0b0b000f 		r24, r11, r0
 e10:	340b0000 	rsubik	r0, r11, 0
 e14:	3a0e0300 	addikc	r16, r14, 768
 e18:	490b3b0b 		r8, r11, r7
 e1c:	3c193f13 	rsubikc	r0, r25, 16147
 e20:	0c000019 		r0, r0, r0
 e24:	13490101 		r26, r9, r0
 e28:	00001301 		r0, r0, r2
 e2c:	0000210d 		r0, r0, r4
 e30:	00160e00 		r0, r22, r1
 e34:	0b3a0e03 		r25, r26, r1
 e38:	1349053b 		r26, r9, r0
 e3c:	170f0000 	rsubk	r24, r15, r0
 e40:	3a0b0b01 	addikc	r16, r11, 2817
 e44:	010b3b0b 		r8, r11, r7
 e48:	10000013 		r0, r0, r0
 e4c:	0e03000d 		r16, r3, r0
 e50:	0b3b0b3a 		r25, r27, r1
 e54:	00001349 		r0, r0, r2
 e58:	49002111 		r8, r0, r4
 e5c:	000b2f13 		r0, r11, r5
 e60:	01131200 		r8, r19, r2
 e64:	0b3a0b0b 		r25, r26, r1
 e68:	13010b3b 		r24, r1, r1
 e6c:	0d130000 	rsubc	r8, r19, r0
 e70:	3a0e0300 	addikc	r16, r14, 768
 e74:	490b3b0b 		r8, r11, r7
 e78:	000b3813 		r0, r11, r7
 e7c:	01131400 		r8, r19, r2
 e80:	0b0b0e03 		r24, r11, r1
 e84:	0b3b0b3a 		r25, r27, r1
 e88:	00001301 		r0, r0, r2
 e8c:	03000d15 		r24, r0, r1
 e90:	3b0b3a08 	addikc	r24, r11, 14856
 e94:	3813490b 	addikc	r0, r19, 18699
 e98:	1600000b 		r16, r0, r0
 e9c:	0e030113 		r16, r3, r0
 ea0:	0b3a050b 		r25, r26, r0
 ea4:	13010b3b 		r24, r1, r1
 ea8:	0d170000 	rsubc	r8, r23, r0
 eac:	3a0e0300 	addikc	r16, r14, 768
 eb0:	490b3b0b 		r8, r11, r7
 eb4:	00053813 		r0, r5, r7
 eb8:	00151800 	add	r0, r21, r3
 ebc:	00001927 		r0, r0, r3
 ec0:	03011319 		r24, r1, r2
 ec4:	3a0b0b0e 	addikc	r16, r11, 2830
 ec8:	01053b0b 		r8, r5, r7
 ecc:	1a000013 		r16, r0, r0
 ed0:	0e03000d 		r16, r3, r0
 ed4:	053b0b3a 	neg	r9, r27
 ed8:	0b381349 		r25, r24, r2
 edc:	0d1b0000 	rsubc	r8, r27, r0
 ee0:	3a080300 	addikc	r16, r8, 768
 ee4:	49053b0b 		r8, r5, r7
 ee8:	000b3813 		r0, r11, r7
 eec:	01151c00 		r8, r21, r3
 ef0:	13491927 		r26, r9, r3
 ef4:	00001301 		r0, r0, r2
 ef8:	0300341d 		r24, r0, r6
 efc:	3b0b3a0e 	addikc	r24, r11, 14862
 f00:	3f134905 	rsubikc	r24, r19, 18693
 f04:	00193c19 		r0, r25, r7
 f08:	01131e00 		r8, r19, r3
 f0c:	0b3a0b0b 		r25, r26, r1
 f10:	1301053b 		r24, r1, r0
 f14:	341f0000 	rsubik	r0, r31, 0
 f18:	3a0e0300 	addikc	r16, r14, 768
 f1c:	490b3b0b 		r8, r11, r7
 f20:	00180213 		r0, r24, r0
 f24:	00342000 	add	r1, r20, r4
 f28:	0b3a0e03 		r25, r26, r1
 f2c:	13490b3b 		r26, r9, r1
 f30:	1802193f 		r0, r2, r3
 f34:	2e210000 	rsubic	r17, r1, 0
 f38:	03193f01 		r24, r25, r7
 f3c:	3b0b3a0e 	addikc	r24, r11, 14862
 f40:	1119270b 		r8, r25, r4
 f44:	40061201 		r0, r6, r2
 f48:	19429718 		r10, r2, r18
 f4c:	00001301 		r0, r0, r2
 f50:	03000522 		r24, r0, r0
 f54:	3b0b3a0e 	addikc	r24, r11, 14862
 f58:	0213490b 		r16, r19, r9
 f5c:	23000018 	addi	r24, r0, 24
 f60:	193f012e 		r9, r31, r0
 f64:	0b3a0e03 		r25, r26, r1
 f68:	19270b3b 		r9, r7, r1
 f6c:	01111349 		r8, r17, r2
 f70:	18400612 		r2, r0, r0
 f74:	01194296 		r8, r25, r8
 f78:	00000013 		r0, r0, r0
 f7c:	10001101 		r0, r0, r2
 f80:	12011106 		r16, r1, r2
 f84:	1b080301 		r24, r8, r0
 f88:	13082508 		r24, r8, r4
 f8c:	00000005 		r0, r0, r0
 f90:	10001101 		r0, r0, r2
 f94:	12011106 		r16, r1, r2
 f98:	1b080301 		r24, r8, r0
 f9c:	13082508 		r24, r8, r4
 fa0:	00000005 		r0, r0, r0

Disassembly of section .debug_aranges:

00000000 <.debug_aranges>:
   0:	0000001c 		r0, r0, r0
   4:	00000002 		r0, r0, r0
   8:	00040000 	add	r0, r4, r0
   c:	
Disassembly of section .debug_macro:

00000000 <.debug_macro>:
       0:	00020004 		r0, r2, r0
       4:	07000000 	rsub	r24, r0, r0
       8:	00000146 		r0, r0, r0
       c:	03010003 		r24, r1, r0
      10:	08050925 		r0, r5, r1
      14:	000047ea 		r0, r0, r8
      18:	050a0a03 	neg	r8, r10
      1c:	0032b40d 		r1, r18, r22
      20:	0b0f0300 		r24, r15, r0
      24:	0b090805 		r24, r9, r1
      28:	0e030000 	rsubc	r16, r3, r0
      2c:	064e070c 	neg	r18, r14
      30:	07040000 	rsub	r24, r4, r0
      34:	00000670 		r0, r0, r0
      38:	0d100304 		r8, r16, r0
      3c:	4c860205 	ngetd	r4, r0
      40:	04030000 	rsub	r0, r3, r0
      44:	02f6050e 		r23, r22, r0
      48:	000038c1 		r0, r0, r7
      4c:	0f050304 		r24, r5, r0
      50:	0006c207 		r0, r6, r24
      54:	4f070400 	putd	r7, r0
      58:	04000007 	neg	r0, r0
      5c:	00078b07 		r0, r7, r17
      60:	0b030400 		r24, r3, r0
      64:	110b0506 		r8, r11, r0
      68:	03000035 		r24, r0, r0
      6c:	03040a0d 		r24, r4, r1
      70:	2707020e 	rsubi	r24, r7, 526
      74:	04000008 	neg	r0, r0
      78:	05050f03 	neg	r8, r5
      7c:	004fb70a 		r2, r15, r22
      80:	100c0300 		r0, r12, r0
      84:	4fa40605 	nputd	r4, r0
      88:	07030000 	rsub	r24, r3, r0
      8c:	099b0703 		r12, r27, r0
      90:	04040000 	rsub	r0, r4, r0
      94:	07040d03 	neg	r24, r4
      98:	000009e5 		r0, r0, r1
      9c:	0a370704 		r17, r23, r0
      a0:	43030000 	mul	r24, r3, r0
      a4:	0a4d0702 		r18, r13, r0
      a8:	04040000 	rsub	r0, r4, r0
      ac:	000a9007 		r0, r10, r18
      b0:	0c030400 		r0, r3, r0
      b4:	ee290511 		r17, r9, r0
      b8:	0300004f 		r24, r0, r0
      bc:	0704022d 	neg	r24, r4
      c0:	00000c33 		r0, r0, r1
      c4:	0f320704 		r25, r18, r0
      c8:	11030000 	addk	r8, r3, r0
      cc:	0f420702 		r26, r2, r0
      d0:	03040000 	add	r24, r4, r0
      d4:	041201b3 	neg	r0, r18
      d8:	08260304 		r1, r6, r0
      dc:	17490205 		r26, r9, r0
      e0:	04030000 	rsub	r0, r3, r0
      e4:	14090313 		r0, r9, r0
      e8:	19b60a05 		r13, r22, r1
      ec:	0d030000 	rsubc	r8, r3, r0
      f0:	0f770715 		r27, r23, r0
      f4:	03040000 	add	r24, r4, r0
      f8:	7407070e 		r0, r7, r0
      fc:	04000010 	neg	r0, r0
     100:	00109607 		r0, r16, r18
     104:	0d050400 		r8, r5, r0
     108:	000019ad 		r0, r0, r3
     10c:	02050304 		r16, r5, r0
     110:	12750704 		r19, r21, r0
     114:	05040000 	rsub	r8, r4, r0
     118:	0039412c 		r1, r25, r8
     11c:	40350500 		r1, r21, r0
     120:	05000009 	neg	r8, r0
     124:	000f2136 		r0, r15, r4
     128:	ca3d0500 		r17, r29, r0
     12c:	0500003c 	neg	r8, r0
     130:	39640188 	addikc	r11, r4, 392
     134:	cc050000 		r0, r5, r0
     138:	00507302 		r2, r16, r14
     13c:	02dc0500 		r22, r28, r0
     140:	000011fc 		r0, r0, r2
     144:	00040004 		r0, r4, r0
     148:	f7000500 	shi	r24, r0, 1280
     14c:	0500004e 	neg	r8, r0
     150:	00231100 		r1, r3, r2
     154:	62000500 	muli	r16, r0, 1280
     158:	05000035 	neg	r8, r0
     15c:	00158b00 		r0, r21, r17
     160:	18000500 		r0, r0, r0
     164:	05000007 	neg	r8, r0
     168:	00253500 		r1, r5, r6
     16c:	1d000500 		r8, r0, r0
     170:	05000044 	neg	r8, r0
     174:	00141f00 		r0, r20, r3
     178:	e8000500 	lwi	r0, r0, 1280
     17c:	05000058 	neg	r8, r0
     180:	00496b00 		r2, r9, r13
     184:	91000500 		r8, r0, r0
     188:	05000016 	neg	r8, r0
     18c:	0023c800 	add	r1, r3, r25
     190:	71000500 		r8, r0, r0
     194:	05000028 	neg	r8, r0
     198:	0056ae00 		r2, r22, r21
     19c:	0c000500 		r0, r0, r0
     1a0:	05000002 	neg	r8, r0
     1a4:	003ffe00 		r1, r31, r31
     1a8:	79000500 		r8, r0, r0
     1ac:	05000051 	neg	r8, r0
     1b0:	0014f900 		r0, r20, r31
     1b4:	1f000500 		r24, r0, r0
     1b8:	05000003 	neg	r8, r0
     1bc:	00176500 		r0, r23, r12
     1c0:	9d000500 		r8, r0, r0
     1c4:	05000015 	neg	r8, r0
     1c8:	0011e100 		r0, r17, r28
     1cc:	ea000500 	lwi	r16, r0, 1280
     1d0:	05000017 	neg	r8, r0
     1d4:	0046d800 	add	r2, r6, r27
     1d8:	37000500 	rsubik	r24, r0, 1280
     1dc:	05000031 	neg	r8, r0
     1e0:	003a0100 		r1, r26, r0
     1e4:	17000500 		r24, r0, r0
     1e8:	0500003e 	neg	r8, r0
     1ec:	0009d200 		r0, r9, r26
     1f0:	2f000500 	rsubic	r24, r0, 1280
     1f4:	05000004 	neg	r8, r0
     1f8:	0031c100 		r1, r17, r24
     1fc:	f7000500 	shi	r24, r0, 1280
     200:	05000036 	neg	r8, r0
     204:	000ff700 		r0, r15, r30
     208:	49000500 		r8, r0, r0
     20c:	05000004 	neg	r8, r0
     210:	003eee00 		r1, r30, r29
     214:	a1000500 	ori	r8, r0, 1280
     218:	05000032 	neg	r8, r0
     21c:	0032fd00 		r1, r18, r31
     220:	bf000500 		r24, r0, r0
     224:	05000044 	neg	r8, r0
     228:	00349b00 		r1, r20, r19
     22c:	cb000500 		r24, r0, r0
     230:	0500003f 	neg	r8, r0
     234:	0010fa00 		r0, r16, r31
     238:	e4000500 	lhui	r0, r0, 1280
     23c:	05000042 	neg	r8, r0
     240:	00048f00 		r0, r4, r17
     244:	83000500 		r24, r0, r0
     248:	05000006 	neg	r8, r0
     24c:	0056c100 		r2, r22, r24
     250:	0d000500 		r8, r0, r0
     254:	05000031 	neg	r8, r0
     258:	00374100 		r1, r23, r8
     25c:	81000500 		r8, r0, r0
     260:	05000007 	neg	r8, r0
     264:	00502e00 		r2, r16, r5
     268:	eb000500 	lwi	r24, r0, 1280
     26c:	05000023 	neg	r8, r0
     270:	00100c00 		r0, r16, r1
     274:	a4000500 	andi	r0, r0, 1280
     278:	05000053 	neg	r8, r0
     27c:	003d7800 	add	r1, r29, r15
     280:	b8000500 	bri	1280		// 780
     284:	0500000a 	neg	r8, r0
     288:	000e7700 		r0, r14, r14
     28c:	a2000500 	ori	r16, r0, 1280
     290:	0500003f 	neg	r8, r0
     294:	00442e00 		r2, r4, r5
     298:	ca000500 		r16, r0, r0
     29c:	05000027 	neg	r8, r0
     2a0:	000f9300 		r0, r15, r18
     2a4:	82000500 		r16, r0, r0
     2a8:	0500003f 	neg	r8, r0
     2ac:	0028bc00 		r1, r8, r23
     2b0:	39000500 	addikc	r8, r0, 1280
     2b4:	05000007 	neg	r8, r0
     2b8:	00262500 		r1, r6, r4
     2bc:	8d000500 		r8, r0, r0
     2c0:	05000052 	neg	r8, r0
     2c4:	00155800 	add	r0, r21, r11
     2c8:	b1000500 		r8, r0, r0
     2cc:	05000018 	neg	r8, r0
     2d0:	0045dd00 		r2, r5, r27
     2d4:	f1000500 	sbi	r8, r0, 1280
     2d8:	05000045 	neg	r8, r0
     2dc:	00243200 		r1, r4, r6
     2e0:	07000500 	neg	r24, r0
     2e4:	0500001d 	neg	r8, r0
     2e8:	001b9500 		r0, r27, r18
     2ec:	4f000500 	cputd	r0, r0
     2f0:	05000035 	neg	r8, r0
     2f4:	003eda00 		r1, r30, r27
     2f8:	d1000500 		r8, r0, r0
     2fc:	05000058 	neg	r8, r0
     300:	0055a600 		r2, r21, r20
     304:	af000500 	andni	r24, r0, 1280
     308:	0500003a 	neg	r8, r0
     30c:	0043cc00 		r2, r3, r25
     310:	a5000500 	andi	r8, r0, 1280
     314:	0500001e 	neg	r8, r0
     318:	003f1400 		r1, r31, r2
     31c:	57000500 		r24, r0, r0
     320:	05000053 	neg	r8, r0
     324:	00012a00 		r0, r1, r5
     328:	21000500 	addi	r8, r0, 1280
     32c:	05000055 	neg	r8, r0
     330:	00018100 		r0, r1, r16
     334:	5e000500 		r16, r0, r0
     338:	05000001 	neg	r8, r0
     33c:	00585400 		r2, r24, r10
     340:	df000500 		r24, r0, r0
     344:	0500000f 	neg	r8, r0
     348:	004a1400 		r2, r10, r2
     34c:	51000500 		r8, r0, r0
     350:	0500001f 	neg	r8, r0
     354:	0024f200 		r1, r4, r30
     358:	71000500 		r8, r0, r0
     35c:	0500004c 	neg	r8, r0
     360:	00269800 	add	r1, r6, r19
     364:	d6000500 		r16, r0, r0
     368:	05000029 	neg	r8, r0
     36c:	00085700 		r0, r8, r10
     370:	f0000500 	sbi	r0, r0, 1280
     374:	05000016 	neg	r8, r0
     378:	0025b200 		r1, r5, r22
     37c:	96000500 		r16, r0, r0
     380:	05000022 	neg	r8, r0
     384:	00237700 		r1, r3, r14
     388:	9b000500 		r24, r0, r0
     38c:	0500003b 	neg	r8, r0
     390:	001bd000 	add	r0, r27, r26
     394:	0c000500 		r0, r0, r0
     398:	05000056 	neg	r8, r0
     39c:	004ed700 		r2, r14, r26
     3a0:	be000500 	beqid	r0, 1280		// 8a0
     3a4:	05000009 	neg	r8, r0
     3a8:	0026d200 		r1, r6, r26
     3ac:	1d000500 		r8, r0, r0
     3b0:	05000047 	neg	r8, r0
     3b4:	00414300 		r2, r1, r8
     3b8:	74000500 		r0, r0, r0
     3bc:	05000006 	neg	r8, r0
     3c0:	00148c00 		r0, r20, r17
     3c4:	5a000500 		r16, r0, r0
     3c8:	05000048 	neg	r8, r0
     3cc:	00245a00 		r1, r4, r11
     3d0:	61000500 	muli	r8, r0, 1280
     3d4:	0500001d 	neg	r8, r0
     3d8:	003daa00 		r1, r29, r21
     3dc:	54000500 		r0, r0, r0
     3e0:	0500003d 	neg	r8, r0
     3e4:	004f7900 		r2, r15, r15
     3e8:	15000500 		r8, r0, r0
     3ec:	05000040 	neg	r8, r0
     3f0:	00167300 		r0, r22, r14
     3f4:	35000500 	rsubik	r8, r0, 1280
     3f8:	0500000f 	neg	r8, r0
     3fc:	000a5800 	add	r0, r10, r11
     400:	91000500 		r8, r0, r0
     404:	0500000c 	neg	r8, r0
     408:	00115700 		r0, r17, r10
     40c:	d5000500 		r8, r0, r0
     410:	0500003d 	neg	r8, r0
     414:	000c6100 		r0, r12, r12
     418:	dd000500 		r8, r0, r0
     41c:	05000014 	neg	r8, r0
     420:	00164900 		r0, r22, r9
     424:	1d000500 		r8, r0, r0
     428:	05000025 	neg	r8, r0
     42c:	00352000 	add	r1, r21, r4
     430:	e2000500 	lbui	r16, r0, 1280
     434:	05000033 	neg	r8, r0
     438:	002b9000 	add	r1, r11, r18
     43c:	90000500 		r0, r0, r0
     440:	05000028 	neg	r8, r0
     444:	00348d00 		r1, r20, r17
     448:	f6000500 	shi	r16, r0, 1280
     44c:	05000030 	neg	r8, r0
     450:	0012ab00 		r0, r18, r21
     454:	80000500 		r0, r0, r0
     458:	05000011 	neg	r8, r0
     45c:	0015d000 	add	r0, r21, r26
     460:	fd000500 		r8, r0, r0
     464:	05000012 	neg	r8, r0
     468:	002a7800 	add	r1, r10, r15
     46c:	e6000500 	lhui	r16, r0, 1280
     470:	05000018 	neg	r8, r0
     474:	001dae00 		r0, r29, r21
     478:	06000500 	neg	r16, r0
     47c:	0500001c 	neg	r8, r0
     480:	00047a00 		r0, r4, r15
     484:	db000500 		r24, r0, r0
     488:	05000024 	neg	r8, r0
     48c:	00140700 		r0, r20, r0
     490:	7a000500 		r16, r0, r0
     494:	05000058 	neg	r8, r0
     498:	00466900 		r2, r6, r13
     49c:	12000500 		r16, r0, r0
     4a0:	0500003c 	neg	r8, r0
     4a4:	00165900 		r0, r22, r11
     4a8:	4e000500 	cputd	r0, r0
     4ac:	05000028 	neg	r8, r0
     4b0:	00034300 		r0, r3, r8
     4b4:	a1000500 	ori	r8, r0, 1280
     4b8:	0500004b 	neg	r8, r0
     4bc:	0053de00 		r2, r19, r27
     4c0:	fc000500 		r0, r0, r0
     4c4:	05000052 	neg	r8, r0
     4c8:	00247c00 		r1, r4, r15
     4cc:	5d000500 		r8, r0, r0
     4d0:	05000033 	neg	r8, r0
     4d4:	001b5100 		r0, r27, r10
     4d8:	c0000500 		r0, r0, r0
     4dc:	05000049 	neg	r8, r0
     4e0:	00452200 		r2, r5, r4
     4e4:	3a000500 	addikc	r16, r0, 1280
     4e8:	05000006 	neg	r8, r0
     4ec:	0052ec00 		r2, r18, r29
     4f0:	c7000500 		r24, r0, r0
     4f4:	05000004 	neg	r8, r0
     4f8:	0038ed00 		r1, r24, r29
     4fc:	06000500 	neg	r16, r0
     500:	05000017 	neg	r8, r0
     504:	00333400 		r1, r19, r6
     508:	17000500 		r24, r0, r0
     50c:	05000000 	rsub	r8, r0, r0
     510:	001c3100 		r0, r28, r6
     514:	ae000500 	andni	r16, r0, 1280
     518:	05000047 	neg	r8, r0
     51c:	0027f700 		r1, r7, r30
     520:	a9000500 	xori	r8, r0, 1280
     524:	05000029 	neg	r8, r0
     528:	003d2f00 		r1, r29, r5
     52c:	c8000500 		r0, r0, r0
     530:	0500001e 	neg	r8, r0
     534:	000e1900 		r0, r14, r3
     538:	ec000500 		r0, r0, r0
     53c:	05000039 	neg	r8, r0
     540:	00098700 		r0, r9, r16
     544:	d9000500 		r8, r0, r0
     548:	05000025 	neg	r8, r0
     54c:	00041400 		r0, r4, r2
     550:	e0000500 	lbui	r0, r0, 1280
     554:	0500001e 	neg	r8, r0
     558:	000a8100 		r0, r10, r16
     55c:	b6000500 	rtsd	r0, 1280
     560:	05000001 	neg	r8, r0
     564:	003e6200 		r1, r30, r12
     568:	4b000500 		r24, r0, r0
     56c:	05000036 	neg	r8, r0
     570:	00046400 		r0, r4, r12
     574:	79000500 		r8, r0, r0
     578:	0500004b 	neg	r8, r0
     57c:	00127800 	add	r0, r18, r15
     580:	6e000500 	eget	r16, rfsl0
     584:	05000053 	neg	r8, r0
     588:	00218a00 		r1, r1, r17
     58c:	3c000500 	rsubikc	r0, r0, 1280
     590:	05000038 	neg	r8, r0
     594:	000f7800 	add	r0, r15, r15
     598:	31000500 	addik	r8, r0, 1280
     59c:	05000016 	neg	r8, r0
     5a0:	00470400 		r2, r7, r0
     5a4:	f7000500 	shi	r24, r0, 1280
     5a8:	05000015 	neg	r8, r0
     5ac:	00004f00 		r0, r0, r9
     5b0:	24000500 	rsubi	r0, r0, 1280
     5b4:	05000046 	neg	r8, r0
     5b8:	00460f00 		r2, r6, r1
     5bc:	7f000500 		r24, r0, r0
     5c0:	05000022 	neg	r8, r0
     5c4:	00137f00 		r0, r19, r15
     5c8:	28000500 	addic	r0, r0, 1280
     5cc:	05000049 	neg	r8, r0
     5d0:	003f5d00 		r1, r31, r11
     5d4:	3b000500 	addikc	r24, r0, 1280
     5d8:	05000010 	neg	r8, r0
     5dc:	00390800 	add	r1, r25, r1
     5e0:	20000500 	addi	r0, r0, 1280
     5e4:	05000028 	neg	r8, r0
     5e8:	00143500 		r0, r20, r6
     5ec:	6a000500 		r16, r0, r0
     5f0:	05000000 	rsub	r8, r0, r0
     5f4:	001e5600 		r0, r30, r10
     5f8:	29000500 	addic	r8, r0, 1280
     5fc:	05000029 	neg	r8, r0
     600:	002b4100 		r1, r11, r8
     604:	19000500 		r8, r0, r0
     608:	05000019 	neg	r8, r0
     60c:	004d6a00 		r2, r13, r13
     610:	8f000500 		r24, r0, r0
     614:	05000023 	neg	r8, r0
     618:	00181f00 		r0, r24, r3
     61c:	46000500 	bsll	r16, r0, r0
     620:	05000031 	neg	r8, r0
     624:	004eaa00 		r2, r14, r21
     628:	ab000500 	xori	r24, r0, 1280
     62c:	05000036 	neg	r8, r0
     630:	0055f600 		r2, r21, r30
     634:	a5000500 	andi	r8, r0, 1280
     638:	05000001 	neg	r8, r0
     63c:	000f6700 		r0, r15, r12
     640:	3b000500 	addikc	r24, r0, 1280
     644:	05000000 	rsub	r8, r0, r0
     648:	00413000 	add	r2, r1, r6
     64c:	00040000 	add	r0, r4, r0
     650:	2b040500 	addic	r24, r4, 1280
     654:	0500002b 	neg	r8, r0
     658:	0028a406 		r1, r8, r20
     65c:	9e070500 		r16, r7, r0
     660:	05000012 	neg	r8, r0
     664:	0033cf08 		r1, r19, r25
     668:	ff090500 		r24, r9, r0
     66c:	0000003d 		r0, r0, r0
     670:	05000004 	neg	r8, r0
     674:	00436c12 		r2, r3, r13
     678:	11150500 		r8, r21, r0
     67c:	05000057 	neg	r8, r0
     680:	0020b31b 		r1, r0, r22
     684:	66280500 	bslli	r17, r8, 0
     688:	0500001b 	neg	r8, r0
     68c:	00473232 		r2, r7, r6
     690:	5f360500 		r25, r22, r0
     694:	0500002b 	neg	r8, r0
     698:	00171c39 		r0, r23, r3
     69c:	d33c0500 		r25, r28, r0
     6a0:	05000030 	neg	r8, r0
     6a4:	00072a3f 		r0, r7, r5
     6a8:	c3420500 		r26, r2, r0
     6ac:	05000034 	neg	r8, r0
     6b0:	003ad645 		r1, r26, r26
     6b4:	0e480500 		r18, r8, r0
     6b8:	05000044 	neg	r8, r0
     6bc:	004ec34b 		r2, r14, r24
     6c0:	00040000 	add	r0, r4, r0
     6c4:	af160500 	andni	r24, r22, 1280
     6c8:	05000017 	neg	r8, r0
     6cc:	000dbb21 		r0, r13, r23
     6d0:	a8280500 	xori	r1, r8, 1280
     6d4:	06000045 	neg	r16, r0
     6d8:	10ca0180 		r6, r10, r0
     6dc:	81050000 	or	r8, r5, r0
     6e0:	00275001 		r1, r7, r10
     6e4:	01850600 		r12, r5, r0
     6e8:	0000257d 		r0, r0, r4
     6ec:	7d018605 		r8, r1, r16
     6f0:	06000052 	neg	r16, r0
     6f4:	58440187 		r2, r4, r0
     6f8:	88050000 	xor	r0, r5, r0
     6fc:	00111c01 		r0, r17, r3
     700:	019b0600 		r12, r27, r0
     704:	000022d9 		r0, r0, r4
     708:	51019c05 		r8, r1, r19
     70c:	05000032 	neg	r8, r0
     710:	392601f2 	addikc	r9, r6, 498
     714:	f8050000 	swi	r0, r5, 0
     718:	00315b01 		r1, r17, r11
     71c:	02800500 		r20, r0, r0
     720:	00003f2d 		r0, r0, r7
     724:	b7028505 		r24, r2, r16
     728:	05000039 	neg	r8, r0
     72c:	4bfb0290 		r31, r27, r0
     730:	94050000 		r0, r5, r0
     734:	003cff02 		r1, r28, r31
     738:	029a0500 		r20, r26, r0
     73c:	0000039a 		r0, r0, r0
     740:	2a02aa05 	addic	r16, r2, -22011
     744:	05000000 	rsub	r8, r0, r0
     748:	4cf902ba 	tnegetd	r7, r0
     74c:	04000000 	rsub	r0, r0, r0
     750:	81050000 	or	r8, r5, r0
     754:	004f9601 		r2, r15, r18
     758:	01dc0500 		r14, r28, r0
     75c:	00000975 		r0, r0, r1
     760:	8101e206 		r8, r1, r28
     764:	0500000c 	neg	r8, r0
     768:	3a6201e6 	addikc	r19, r2, 486
     76c:	f5050000 	shi	r8, r5, 0
     770:	00379b01 		r1, r23, r19
     774:	01f90500 		r15, r25, r0
     778:	0000385a 		r0, r0, r7
     77c:	a4028005 	andi	r0, r2, -32763
     780:	05000016 	neg	r8, r0
     784:	37bc0286 	rsubik	r29, r28, 646
     788:	04000000 	rsub	r0, r0, r0
     78c:	17050000 	rsubk	r24, r5, r0
     790:	0000320a 		r0, r0, r6
     794:	39462c05 	addikc	r10, r6, 11269
     798:	2d050000 	rsubic	r8, r5, 0
     79c:	00001cfb 		r0, r0, r3
     7a0:	0a772e05 		r19, r23, r5
     7a4:	32050000 	addik	r16, r5, 0
     7a8:	0000540d 		r0, r0, r10
     7ac:	225f3305 	addi	r18, r31, 13061
     7b0:	34050000 	rsubik	r0, r5, 0
     7b4:	00004401 		r0, r0, r8
     7b8:	0e323505 		r17, r18, r6
     7bc:	36050000 	rsubik	r16, r5, 0
     7c0:	00001752 		r0, r0, r2
     7c4:	29f93705 	addic	r15, r25, 14085
     7c8:	38050000 	addikc	r0, r5, 0
     7cc:	00003e56 		r0, r0, r7
     7d0:	4f493905 	cgetd	r26, r7
     7d4:	40050000 	mul	r0, r5, r0
     7d8:	0000358c 		r0, r0, r6
     7dc:	04a94105 	neg	r5, r9
     7e0:	42050000 	mul	r16, r5, r0
     7e4:	00005800 	add	r0, r0, r11
     7e8:	178b4305 		r28, r11, r8
     7ec:	45050000 	bsrl	r8, r5, r0
     7f0:	00001a91 		r0, r0, r3
     7f4:	08c94605 		r6, r9, r8
     7f8:	47050000 	bsrl	r24, r5, r0
     7fc:	000042d2 		r0, r0, r8
     800:	01454905 		r10, r5, r9
     804:	4c050000 	getd	r0, r0
     808:	00001194 		r0, r0, r2
     80c:	497e6505 		r11, r30, r12
     810:	7f050000 		r24, r5, r0
     814:	00001e75 		r0, r0, r3
     818:	aa018305 	xori	r16, r1, -31995
     81c:	0500000f 	neg	r8, r0
     820:	455e0184 	bsrl	r10, r30, r0
     824:	04000000 	rsub	r0, r0, r0
     828:	27050000 	rsubi	r24, r5, 0
     82c:	00002427 		r0, r0, r4
     830:	3c062805 	rsubikc	r0, r6, 10245
     834:	2a050000 	addic	r16, r5, 0
     838:	00002422 		r0, r0, r4
     83c:	38018905 	addikc	r0, r1, -30459
     840:	0500003a 	neg	r8, r0
     844:	1bac018a 		r29, r12, r0
     848:	8b050000 	xor	r24, r5, r0
     84c:	00363001 		r1, r22, r6
     850:	018c0500 		r12, r12, r0
     854:	00003f44 		r0, r0, r7
     858:	6a018d05 		r16, r1, r17
     85c:	05000022 	neg	r8, r0
     860:	2266018e 	addi	r19, r6, 398
     864:	8f050000 	andn	r24, r5, r0
     868:	00422d01 		r2, r2, r5
     86c:	01900500 		r12, r16, r0
     870:	00003a34 		r0, r0, r7
     874:	c2019105 		r16, r1, r18
     878:	06000036 	neg	r16, r0
     87c:	4b9001a1 		r28, r16, r0
     880:	bb050000 		r24, r5, r0
     884:	000fd301 		r0, r15, r26
     888:	01bc0500 		r13, r28, r0
     88c:	00000769 		r0, r0, r0
     890:	5701bd05 		r24, r1, r23
     894:	05000051 	neg	r8, r0
     898:	0e6801be 		r19, r8, r0
     89c:	bf050000 		r24, r5, r0
     8a0:	0025ee01 		r1, r5, r29
     8a4:	01c00500 		r14, r0, r0
     8a8:	000009b5 		r0, r0, r1
     8ac:	2a01c105 	addic	r16, r1, -16123
     8b0:	0500003c 	neg	r8, r0
     8b4:	421301c2 		r16, r19, r0
     8b8:	c3050000 	lbu	r24, r5, r0
     8bc:	00420f01 		r2, r2, r1
     8c0:	01c40500 		r14, r4, r0
     8c4:	000053cc 		r0, r0, r10
     8c8:	0301c505 		r24, r1, r24
     8cc:	0500003f 	neg	r8, r0
     8d0:	53c801c6 		r30, r8, r0
     8d4:	c7050000 	lhu	r24, r5, r0
     8d8:	0010e801 		r0, r16, r29
     8dc:	01c80500 		r14, r8, r0
     8e0:	0000157a 		r0, r0, r2
     8e4:	5301c905 		r24, r1, r25
     8e8:	05000051 	neg	r8, r0
     8ec:	451901ca 	bsrl	r8, r25, r0
     8f0:	d2050000 	sb	r16, r5, r0
     8f4:	00091201 		r0, r9, r2
     8f8:	01ee0600 		r15, r14, r0
     8fc:	00002b77 		r0, r0, r5
     900:	dc028b05 		r0, r2, r17
     904:	0500002b 	neg	r8, r0
     908:	4ce3028c 	tngetd	r7, r0
     90c:	8d050000 	andn	r8, r5, r0
     910:	0043a602 		r2, r3, r20
     914:	028e0500 		r20, r14, r0
     918:	00005166 		r0, r0, r10
     91c:	0f028f05 		r24, r2, r17
     920:	0500000e 	neg	r8, r0
     924:	30850290 	addik	r4, r5, 656
     928:	91050000 		r8, r5, r0
     92c:	00202002 		r1, r0, r4
     930:	02920500 		r20, r18, r0
     934:	0000201c 		r0, r0, r4
     938:	fe029305 		r16, r2, r18
     93c:	05000056 	neg	r8, r0
     940:	40780294 		r3, r24, r0
     944:	95050000 		r8, r5, r0
     948:	0042c602 		r2, r2, r24
     94c:	02960500 		r20, r22, r0
     950:	00000945 		r0, r0, r1
     954:	c1029705 		r8, r2, r18
     958:	05000042 	neg	r8, r0
     95c:	43a20298 		r29, r2, r0
     960:	99050000 		r8, r5, r0
     964:	0034da02 		r1, r20, r27
     968:	02a60600 		r21, r6, r0
     96c:	0000518a 		r0, r0, r10
     970:	0d02db06 		r8, r2, r27
     974:	06000008 	neg	r16, r0
     978:	f9770391 	swi	r11, r23, 913
     97c:	96050000 		r16, r5, r0
     980:	0021bb03 		r1, r1, r23
     984:	039c0600 		r28, r28, r0
     988:	00002f27 		r0, r0, r5
     98c:	9203a105 		r16, r3, r20
     990:	05000027 	neg	r8, r0
     994:	44fb03a6 	bsra	r7, r27, r0
     998:	04000000 	rsub	r0, r0, r0
     99c:	06050000 	rsub	r16, r5, r0
     9a0:	00003a19 		r0, r0, r7
     9a4:	327e0f05 	addik	r19, r30, 3845
     9a8:	21050000 	addi	r8, r5, 0
     9ac:	00002504 		r0, r0, r4
     9b0:	1ab62f05 		r21, r22, r5
     9b4:	45050000 	bsrl	r8, r5, r0
     9b8:	000030af 		r0, r0, r6
     9bc:	108e5f05 		r4, r14, r11
     9c0:	7e050000 		r16, r5, r0
     9c4:	000036d7 		r0, r0, r6
     9c8:	eb019805 	lwi	r24, r1, -26619
     9cc:	0500001b 	neg	r8, r0
     9d0:	21cc01ae 	addi	r14, r12, 430
     9d4:	c0050000 	lbu	r0, r5, r0
     9d8:	00321601 		r1, r18, r2
     9dc:	01d60600 		r14, r22, r0
     9e0:	00003d10 		r0, r0, r7
     9e4:	00000400 		r0, r0, r0
     9e8:	588e0205 		r4, r14, r0
     9ec:	0b050000 	addc	r24, r5, r0
     9f0:	00003a78 		r0, r0, r7
     9f4:	28f20c05 	addic	r7, r18, 3077
     9f8:	0d050000 	rsubc	r8, r5, r0
     9fc:	000038a0 		r0, r0, r7
     a00:	545f0e05 		r2, r31, r1
     a04:	0f050000 	rsubc	r24, r5, r0
     a08:	00001de9 		r0, r0, r3
     a0c:	086a1005 		r3, r10, r2
     a10:	11050000 	addk	r8, r5, r0
     a14:	00002a1b 		r0, r0, r5
     a18:	20851205 	addi	r4, r5, 4613
     a1c:	13050000 	addk	r24, r5, r0
     a20:	00001985 		r0, r0, r3
     a24:	3c631405 	rsubikc	r3, r3, 5125
     a28:	15050000 	rsubk	r8, r5, r0
     a2c:	00002fcc 		r0, r0, r5
     a30:	4c291605 	nputd	r9, r2
     a34:	04000000 	rsub	r0, r0, r0
     a38:	36050000 	rsubik	r16, r5, 0
     a3c:	000023db 		r0, r0, r4
     a40:	47d43806 	bsrl	r30, r20, r7
     a44:	42050000 	mul	r16, r5, r0
     a48:	0000553a 		r0, r0, r10
     a4c:	00000400 		r0, r0, r0
     a50:	9001a106 		r0, r1, r20
     a54:	0600004b 	neg	r16, r0
     a58:	2b7701ee 	addic	r27, r23, 494
     a5c:	db060000 	sw	r24, r6, r0
     a60:	00080d02 		r0, r8, r1
     a64:	02e00500 		r23, r0, r0
     a68:	000018dd 		r0, r0, r3
     a6c:	c002e706 		r0, r2, r28
     a70:	06000016 	neg	r16, r0
     a74:	f9770391 	swi	r11, r23, 913
     a78:	96050000 		r16, r5, r0
     a7c:	0021bb03 		r1, r1, r23
     a80:	039c0600 		r28, r28, r0
     a84:	00002f27 		r0, r0, r5
     a88:	9203a105 		r16, r3, r20
     a8c:	00000027 		r0, r0, r0
     a90:	05000004 	neg	r8, r0
     a94:	004b3111 		r2, r11, r6
     a98:	0d150500 		r8, r21, r0
     a9c:	05000045 	neg	r8, r0
     aa0:	00387c46 		r1, r24, r15
     aa4:	c6590500 		r18, r25, r0
     aa8:	0500004f 	neg	r8, r0
     aac:	00486a68 		r2, r8, r13
     ab0:	01a80500 		r13, r8, r0
     ab4:	0000576d 		r0, r0, r10
     ab8:	e302b605 	lbui	r24, r2, -18939
     abc:	05000044 	neg	r8, r0
     ac0:	31e802b7 	addik	r15, r8, 695
     ac4:	b8050000 		r0, r5, r0
     ac8:	00386402 		r1, r24, r12
     acc:	02b90500 		r21, r25, r0
     ad0:	00004a32 		r0, r0, r9
     ad4:	a702ba05 	andi	r24, r2, -17915
     ad8:	05000044 	neg	r8, r0
     adc:	357402bb 	rsubik	r11, r20, 699
     ae0:	bc050000 	beqi	r5, 0		// ae0
     ae4:	0055c702 		r2, r21, r24
     ae8:	02c80500 		r22, r8, r0
     aec:	00000a3f 		r0, r0, r1
     af0:	8b02c905 		r24, r2, r25
     af4:	05000000 	rsub	r8, r0, r0
     af8:	38d702ca 	addikc	r6, r23, 714
     afc:	a7050000 	andi	r24, r5, 0
     b00:	000b1803 		r0, r11, r3
     b04:	03c10500 		r30, r1, r0
     b08:	0000021f 		r0, r0, r0
     b0c:	b003cd05 		r0, r3, r25
     b10:	05000043 	neg	r8, r0
     b14:	0d0a03d5 		r8, r10, r0
     b18:	de050000 		r16, r5, r0
     b1c:	0007a403 		r0, r7, r20
     b20:	03e20500 		r31, r2, r0
     b24:	00001f7e 		r0, r0, r3
     b28:	e003e705 	lbui	r0, r3, -6395
     b2c:	05000004 	neg	r8, r0
     b30:	4a7003f2 		r19, r16, r0
     b34:	f5050000 	shi	r8, r5, 0
     b38:	004d8e03 		r2, r13, r17
     b3c:	03fb0500 		r31, r27, r0
     b40:	00002ff0 		r0, r0, r5
     b44:	7103fe05 		r8, r3, r31
     b48:	0500002f 	neg	r8, r0
     b4c:	2be90481 	addic	r31, r9, 1153
     b50:	97050000 		r24, r5, r0
     b54:	0035bb04 		r1, r21, r23
     b58:	049a0500 	neg	r4, r26
     b5c:	00002126 		r0, r0, r4
     b60:	3b049d05 	addikc	r24, r4, -25339
     b64:	05000018 	neg	r8, r0
     b68:	40f3049e 		r7, r19, r0
     b6c:	9f050000 		r24, r5, r0
     b70:	00123404 		r0, r18, r6
     b74:	04a00500 	neg	r5, r0
     b78:	00003058 		r0, r0, r6
     b7c:	db04a105 		r24, r4, r20
     b80:	05000000 	rsub	r8, r0, r0
     b84:	532b04a2 		r25, r11, r0
     b88:	a3050000 	ori	r24, r5, 0
     b8c:	0011b104 		r0, r17, r22
     b90:	04a40500 	neg	r5, r4
     b94:	0000202b 		r0, r0, r4
     b98:	4104a505 		r8, r4, r20
     b9c:	05000042 	neg	r8, r0
     ba0:	20f804a6 	addi	r7, r24, 1190
     ba4:	a7050000 	andi	r24, r5, 0
     ba8:	00258b04 		r1, r5, r17
     bac:	04a80500 	neg	r5, r8
     bb0:	00001a44 		r0, r0, r3
     bb4:	5904a905 		r8, r4, r21
     bb8:	05000010 	neg	r8, r0
     bbc:	52af04aa 		r21, r15, r0
     bc0:	ab050000 	xori	r24, r5, 0
     bc4:	001d7704 		r0, r29, r14
     bc8:	04ac0500 	neg	r5, r12
     bcc:	0000561b 		r0, r0, r10
     bd0:	fb04ad05 	swi	r24, r4, -21243
     bd4:	05000026 	neg	r8, r0
     bd8:	0c0c04ae 		r0, r12, r0
     bdc:	af050000 	andni	r24, r5, 0
     be0:	00254004 		r1, r5, r8
     be4:	04b00500 	neg	r5, r16
     be8:	00002a3f 		r0, r0, r5
     bec:	7104b105 		r8, r4, r22
     bf0:	05000042 	neg	r8, r0
     bf4:	46a904b2 	bsll	r21, r9, r0
     bf8:	b3050000 		r24, r5, r0
     bfc:	000e9a04 		r0, r14, r19
     c00:	04b40500 	neg	r5, r20
     c04:	000019db 		r0, r0, r3
     c08:	fd05ea05 		r8, r5, r29
     c0c:	0500003a 	neg	r8, r0
     c10:	01ef05f2 		r15, r15, r0
     c14:	fa050000 	swi	r16, r5, 0
     c18:	0049a605 		r2, r9, r20
     c1c:	068a0500 	neg	r20, r10
     c20:	00001adb 		r0, r0, r3
     c24:	da068d05 		r16, r6, r17
     c28:	0500004b 	neg	r8, r0
     c2c:	00a20693 		r5, r2, r0
     c30:	04000000 	rsub	r0, r0, r0
     c34:	2f050000 	rsubic	r24, r5, 0
     c38:	000015e6 		r0, r0, r2
     c3c:	3e553005 	rsubikc	r18, r21, 12293
     c40:	31050000 	addik	r8, r5, 0
     c44:	00003231 		r0, r0, r6
     c48:	12c43405 		r22, r4, r6
     c4c:	37050000 	rsubik	r24, r5, 0
     c50:	00001370 		r0, r0, r2
     c54:	53883805 		r28, r8, r7
     c58:	3a050000 	addikc	r16, r5, 0
     c5c:	00002aef 		r0, r0, r5
     c60:	55783b05 		r11, r24, r7
     c64:	3c050000 	rsubikc	r0, r5, 0
     c68:	0000150b 		r0, r0, r2
     c6c:	4c113d05 	cputd	r17, r7
     c70:	40050000 	mul	r0, r5, r0
     c74:	0000091c 		r0, r0, r1
     c78:	06d94105 	neg	r22, r25
     c7c:	42050000 	mul	r16, r5, r0
     c80:	00004552 		r0, r0, r8
     c84:	0a9a4c05 		r20, r26, r9
     c88:	4f050000 	getd	r24, r0
     c8c:	00001aee 		r0, r0, r3
     c90:	42ae5505 		r21, r14, r10
     c94:	5c050000 		r0, r5, r0
     c98:	00003d45 		r0, r0, r7
     c9c:	47a15d05 	bsll	r29, r1, r11
     ca0:	69050000 		r8, r5, r0
     ca4:	00001f40 		r0, r0, r3
     ca8:	50506a05 		r2, r16, r13
     cac:	6e050000 	get	r16, rfsl0
     cb0:	00000309 		r0, r0, r0
     cb4:	46ec6f05 		r23, r12, r13
     cb8:	70050000 		r0, r5, r0
     cbc:	
Disassembly of section .debug_line:

00000000 <.debug_line>:
       0:	00000a45 		r0, r0, r1
       4:	02970004 		r20, r23, r0
       8:	01010000 	add	r8, r1, r0
       c:	0df2f601 		r15, r18, r30
      10:	01010100 		r8, r1, r0
      14:	00000001 		r0, r0, r0
      18:	01000001 		r8, r0, r0
      1c:	732f2e2e 		r25, r15, r5
      20:	2f006372 	rsubic	r24, r0, 25458
      24:	2f74706f 	rsubic	r27, r20, 28783
      28:	696c6958 		r11, r12, r13
      2c:	532f786e 		r25, r15, r15
      30:	322f4b44 	addik	r17, r15, 19268
      34:	2e373130 	rsubic	r17, r23, 12592
      38:	6e672f34 	ecaget	r19, rfsl4
      3c:	696d2f75 		r11, r13, r5
      40:	626f7263 	muli	r19, r15, 29283
      44:	657a616c 	bsrli	r11, r26, 12
      48:	6e696c2f 	necaget	r19, rfsl15
      4c:	62696c2f 	muli	r19, r9, 27695
      50:	6363672f 	muli	r27, r3, 26415
      54:	63696d2f 	muli	r27, r9, 27951
      58:	6c626f72 	necaget	r3, rfsl2
      5c:	2d657a61 	rsubic	r11, r5, 31329
      60:	696c6978 		r11, r12, r13
      64:	652d786e 	bsrli	r9, r13, 14
      68:	362f666c 	rsubik	r17, r15, 26220
      6c:	302e322e 	addik	r1, r14, 12846
      70:	636e692f 	muli	r27, r14, 26927
      74:	6564756c 	bslli	r11, r4, 12
      78:	706f2f00 		r3, r15, r5
      7c:	69582f74 		r10, r24, r5
      80:	786e696c 		r3, r14, r13
      84:	4b44532f 		r26, r4, r10
      88:	3130322f 	addik	r9, r16, 12847
      8c:	2f342e37 	rsubic	r25, r20, 11831
      90:	2f756e67 	rsubic	r27, r21, 28263
      94:	7263696d 		r19, r3, r13
      98:	616c626f 	muli	r11, r12, 25199
      9c:	6c2f657a 	necget	r1, rfsl10
      a0:	6d2f6e69 	necaget	r9, rfsl9
      a4:	6f726369 	ncget	r27, rfsl9
      a8:	7a616c62 		r19, r1, r13
      ac:	69782d65 		r11, r24, r5
      b0:	786e696c 		r3, r14, r13
      b4:	666c652d 	bslli	r19, r12, 13
      b8:	636e692f 	muli	r27, r14, 26927
      bc:	6564756c 	bslli	r11, r4, 12
      c0:	706f2f00 		r3, r15, r5
      c4:	69582f74 		r10, r24, r5
      c8:	786e696c 		r3, r14, r13
      cc:	4b44532f 		r26, r4, r10
      d0:	3130322f 	addik	r9, r16, 12847
      d4:	2f342e37 	rsubic	r25, r20, 11831
      d8:	2f756e67 	rsubic	r27, r21, 28263
      dc:	7263696d 		r19, r3, r13
      e0:	616c626f 	muli	r11, r12, 25199
      e4:	6c2f657a 	necget	r1, rfsl10
      e8:	6d2f6e69 	necaget	r9, rfsl9
      ec:	6f726369 	ncget	r27, rfsl9
      f0:	7a616c62 		r19, r1, r13
      f4:	69782d65 		r11, r24, r5
      f8:	786e696c 		r3, r14, r13
      fc:	666c652d 	bslli	r19, r12, 13
     100:	636e692f 	muli	r27, r14, 26927
     104:	6564756c 	bslli	r11, r4, 12
     108:	63616d2f 	muli	r27, r1, 27951
     10c:	656e6968 	bsrli	r11, r14, 8
     110:	706f2f00 		r3, r15, r5
     114:	69582f74 		r10, r24, r5
     118:	786e696c 		r3, r14, r13
     11c:	4b44532f 		r26, r4, r10
     120:	3130322f 	addik	r9, r16, 12847
     124:	2f342e37 	rsubic	r25, r20, 11831
     128:	2f756e67 	rsubic	r27, r21, 28263
     12c:	7263696d 		r19, r3, r13
     130:	616c626f 	muli	r11, r12, 25199
     134:	6c2f657a 	necget	r1, rfsl10
     138:	6d2f6e69 	necaget	r9, rfsl9
     13c:	6f726369 	ncget	r27, rfsl9
     140:	7a616c62 		r19, r1, r13
     144:	69782d65 		r11, r24, r5
     148:	786e696c 		r3, r14, r13
     14c:	666c652d 	bslli	r19, r12, 13
     150:	636e692f 	muli	r27, r14, 26927
     154:	6564756c 	bslli	r11, r4, 12
     158:	7379732f 		r27, r25, r14
     15c:	65610000 	bsrli	r11, r1, 0
     160:	00632e73 		r3, r3, r5
     164:	73000001 		r24, r0, r0
     168:	65646474 	bslli	r11, r4, 20
     16c:	00682e66 		r3, r8, r5
     170:	6d000002 	get	r8, rfsl2
     174:	69686361 		r11, r8, r12
     178:	5f2f656e 		r25, r15, r12
     17c:	61666564 	muli	r11, r6, 25956
     180:	5f746c75 		r27, r20, r13
     184:	65707974 	bsrli	r11, r16, 20
     188:	00682e73 		r3, r8, r5
     18c:	73000003 		r24, r0, r0
     190:	6c2f7379 	tncget	r1, rfsl9
     194:	2e6b636f 	rsubic	r19, r11, 25455
     198:	00030068 		r0, r3, r0
     19c:	73797300 		r27, r25, r14
     1a0:	79745f2f 		r11, r20, r11
     1a4:	2e736570 	rsubic	r19, r19, 25968
     1a8:	00030068 		r0, r3, r0
     1ac:	73797300 		r27, r25, r14
     1b0:	6565722f 	bsrai	r11, r5, 15
     1b4:	682e746e 		r1, r14, r14
     1b8:	00000300 		r0, r0, r0
     1bc:	2f737973 	rsubic	r27, r19, 31091
     1c0:	6474735f 	bsrai	r3, r20, 31
     1c4:	2e746e69 	rsubic	r19, r20, 28265
     1c8:	00030068 		r0, r3, r0
     1cc:	73656100 		r27, r5, r12
     1d0:	0100682e 		r8, r0, r13
     1d4:	74730000 		r3, r19, r0
     1d8:	676e6972 	bsrli	r27, r14, 18
     1dc:	0300682e 		r24, r0, r13
     1e0:	615f0000 	muli	r10, r31, 0
     1e4:	2e69736e 	rsubic	r19, r9, 29550
     1e8:	00030068 		r0, r3, r0
     1ec:	77656e00 		r27, r5, r13
     1f0:	2e62696c 	rsubic	r19, r2, 26988
     1f4:	00030068 		r0, r3, r0
     1f8:	656e5f00 	bsefi	r11, r14, 28, 0
     1fc:	62696c77 	muli	r19, r9, 27767
     200:	7265765f 		r19, r5, r14
     204:	6e6f6973 	ncaget	r19, rfsl3
     208:	0300682e 		r24, r0, r13
     20c:	79730000 		r11, r19, r0
     210:	6f632f73 	ecaget	r27, rfsl3
     214:	6769666e 	bsefi	r27, r9, 25, 14
     218:	0300682e 		r24, r0, r13
     21c:	616d0000 	muli	r11, r13, 0
     220:	6e696863 	ncaget	r19, rfsl3
     224:	65692f65 		r11, r9, r5
     228:	70666565 		r3, r6, r12
     22c:	0300682e 		r24, r0, r13
     230:	79730000 		r11, r19, r0
     234:	65662f73 		r11, r6, r5
     238:	72757461 		r19, r21, r14
     23c:	682e7365 		r1, r14, r14
     240:	00000300 		r0, r0, r0
     244:	6863616d 		r3, r3, r12
     248:	2f656e69 	rsubic	r27, r5, 28265
     24c:	7079745f 		r3, r25, r14
     250:	682e7365 		r1, r14, r14
     254:	00000300 		r0, r0, r0
     258:	2f737973 	rsubic	r27, r19, 31091
     25c:	66656463 	bslli	r19, r5, 3
     260:	00682e73 		r3, r8, r5
     264:	73000003 		r24, r0, r0
     268:	732f7379 		r25, r15, r14
     26c:	6e697274 	tncget	r19, rfsl4
     270:	00682e67 		r3, r8, r5
     274:	73000003 		r24, r0, r0
     278:	6e696474 	necget	r19, rfsl4
     27c:	00682e74 		r3, r8, r5
     280:	73000002 		r24, r0, r0
     284:	6e696474 	necget	r19, rfsl4
     288:	00682e74 		r3, r8, r5
     28c:	73000003 		r24, r0, r0
     290:	5f2f7379 		r25, r15, r14
     294:	73746e69 		r27, r20, r13
     298:	682e7075 		r1, r14, r14
     29c:	00000300 		r0, r0, r0
     2a0:	02050000 	add	r16, r5, r0
     2a4:	00007148 		r0, r0, r14
     2a8:	020500a2 		r16, r5, r0
     2ac:	0000715c 		r0, r0, r14
     2b0:	0205001c 		r16, r5, r0
     2b4:	00007164 		r0, r0, r14
     2b8:	03040200 		r24, r4, r0
     2bc:	02050019 		r16, r5, r0
     2c0:	0000719c 		r0, r0, r14
     2c4:	02050018 		r16, r5, r0
     2c8:	000071d4 		r0, r0, r14
     2cc:	02050018 		r16, r5, r0
     2d0:	0000720c 		r0, r0, r14
     2d4:	02050018 		r16, r5, r0
     2d8:	00007244 		r0, r0, r14
     2dc:	02050012 		r16, r5, r0
     2e0:	00007250 		r0, r0, r14
     2e4:	01040200 		r8, r4, r0
     2e8:	05000106 	neg	r8, r0
     2ec:	00726002 		r3, r18, r12
     2f0:	04020000 	rsub	r0, r2, r0
     2f4:	00200600 		r1, r0, r0
     2f8:	726c0205 		r19, r12, r0
     2fc:	001a0000 	add	r0, r26, r0
     300:	72840205 		r20, r4, r0
     304:	00180000 	add	r0, r24, r0
     308:	72980205 		r20, r24, r0
     30c:	00180000 	add	r0, r24, r0
     310:	72b00205 		r21, r16, r0
     314:	00180000 	add	r0, r24, r0
     318:	72c80205 		r22, r8, r0
     31c:	00180000 	add	r0, r24, r0
     320:	72e00205 		r23, r0, r0
     324:	001a0000 	add	r0, r26, r0
     328:	72ec0205 		r23, r12, r0
     32c:	001e0000 	add	r0, r30, r0
     330:	72f40205 		r23, r20, r0
     334:	00180000 	add	r0, r24, r0
     338:	72fc0205 		r23, r28, r0
     33c:	00180000 	add	r0, r24, r0
     340:	73040205 		r24, r4, r0
     344:	00180000 	add	r0, r24, r0
     348:	730c0205 		r24, r12, r0
     34c:	00180000 	add	r0, r24, r0
     350:	73140205 		r24, r20, r0
     354:	001f0000 	add	r0, r31, r0
     358:	73240205 		r25, r4, r0
     35c:	00180000 	add	r0, r24, r0
     360:	73340205 		r25, r20, r0
     364:	00180000 	add	r0, r24, r0
     368:	73440205 		r26, r4, r0
     36c:	00180000 	add	r0, r24, r0
     370:	73540205 		r26, r20, r0
     374:	001a0000 	add	r0, r26, r0
     378:	737c0205 		r27, r28, r0
     37c:	02000000 	add	r16, r0, r0
     380:	00250204 		r1, r5, r0
     384:	738c0205 		r28, r12, r0
     388:	00180000 	add	r0, r24, r0
     38c:	73a40205 		r29, r4, r0
     390:	00180000 	add	r0, r24, r0
     394:	73d00205 		r30, r16, r0
     398:	00180000 	add	r0, r24, r0
     39c:	74040205 		r0, r4, r0
     3a0:	00180000 	add	r0, r24, r0
     3a4:	74380205 		r1, r24, r0
     3a8:	00180000 	add	r0, r24, r0
     3ac:	746c0205 		r3, r12, r0
     3b0:	4a030000 	idiv	r16, r3, r0
     3b4:	02050001 		r16, r5, r0
     3b8:	00007478 		r0, r0, r14
     3bc:	01040200 		r8, r4, r0
     3c0:	05000106 	neg	r8, r0
     3c4:	00748802 		r3, r20, r17
     3c8:	04020000 	rsub	r0, r2, r0
     3cc:	004f0600 		r2, r15, r0
     3d0:	74a00205 		r5, r0, r0
     3d4:	001a0000 	add	r0, r26, r0
     3d8:	74b80205 		r5, r24, r0
     3dc:	00180000 	add	r0, r24, r0
     3e0:	74cc0205 		r6, r12, r0
     3e4:	00180000 	add	r0, r24, r0
     3e8:	74e80205 		r7, r8, r0
     3ec:	001a0000 	add	r0, r26, r0
     3f0:	75040205 		r8, r4, r0
     3f4:	00180000 	add	r0, r24, r0
     3f8:	75180205 		r8, r24, r0
     3fc:	00180000 	add	r0, r24, r0
     400:	75380205 		r9, r24, r0
     404:	00180000 	add	r0, r24, r0
     408:	75540205 		r10, r20, r0
     40c:	00190000 	add	r0, r25, r0
     410:	756c0205 		r11, r12, r0
     414:	00180000 	add	r0, r24, r0
     418:	758c0205 		r12, r12, r0
     41c:	00180000 	add	r0, r24, r0
     420:	75a80205 		r13, r8, r0
     424:	001d0000 	add	r0, r29, r0
     428:	75c40205 		r14, r4, r0
     42c:	001a0000 	add	r0, r26, r0
     430:	75cc0205 		r14, r12, r0
     434:	00190000 	add	r0, r25, r0
     438:	75d40205 		r14, r20, r0
     43c:	02000000 	add	r16, r0, r0
     440:	00190304 		r0, r25, r0
     444:	76580205 		r18, r24, r0
     448:	00150000 	add	r0, r21, r0
     44c:	76640205 		r19, r4, r0
     450:	02000000 	add	r16, r0, r0
     454:	01060104 		r8, r6, r0
     458:	74020500 		r0, r2, r0
     45c:	00000076 		r0, r0, r0
     460:	06020402 	neg	r16, r2
     464:	02050015 		r16, r5, r0
     468:	00007680 		r0, r0, r14
     46c:	01040200 		r8, r4, r0
     470:	05000106 	neg	r8, r0
     474:	00769002 		r3, r22, r18
     478:	04020000 	rsub	r0, r2, r0
     47c:	001e0600 		r0, r30, r0
     480:	76a80205 		r21, r8, r0
     484:	001c0000 	add	r0, r28, r0
     488:	76b80205 		r21, r24, r0
     48c:	001a0000 	add	r0, r26, r0
     490:	76c00205 		r22, r0, r0
     494:	00190000 	add	r0, r25, r0
     498:	76c80205 		r22, r8, r0
     49c:	02000000 	add	r16, r0, r0
     4a0:	00190304 		r0, r25, r0
     4a4:	77100205 		r24, r16, r0
     4a8:	00150000 	add	r0, r21, r0
     4ac:	771c0205 		r24, r28, r0
     4b0:	02000000 	add	r16, r0, r0
     4b4:	01060104 		r8, r6, r0
     4b8:	2c020500 	rsubic	r0, r2, 1280
     4bc:	00000077 		r0, r0, r0
     4c0:	06020402 	neg	r16, r2
     4c4:	02050015 		r16, r5, r0
     4c8:	00007738 		r0, r0, r14
     4cc:	01040200 		r8, r4, r0
     4d0:	05000106 	neg	r8, r0
     4d4:	00774802 		r3, r23, r9
     4d8:	04020000 	rsub	r0, r2, r0
     4dc:	001e0600 		r0, r30, r0
     4e0:	77600205 		r27, r0, r0
     4e4:	001d0000 	add	r0, r29, r0
     4e8:	77700205 		r27, r16, r0
     4ec:	001b0000 	add	r0, r27, r0
     4f0:	777c0205 		r27, r28, r0
     4f4:	00180000 	add	r0, r24, r0
     4f8:	778c0205 		r28, r12, r0
     4fc:	00180000 	add	r0, r24, r0
     500:	779c0205 		r28, r28, r0
     504:	00180000 	add	r0, r24, r0
     508:	77ac0205 		r29, r12, r0
     50c:	00180000 	add	r0, r24, r0
     510:	77b80205 		r29, r24, r0
     514:	001a0000 	add	r0, r26, r0
     518:	77c40205 		r30, r4, r0
     51c:	00180000 	add	r0, r24, r0
     520:	77d40205 		r30, r20, r0
     524:	00180000 	add	r0, r24, r0
     528:	77e00205 		r31, r0, r0
     52c:	00190000 	add	r0, r25, r0
     530:	77ec0205 		r31, r12, r0
     534:	00180000 	add	r0, r24, r0
     538:	77fc0205 		r31, r28, r0
     53c:	00180000 	add	r0, r24, r0
     540:	78080205 		r0, r8, r0
     544:	001a0000 	add	r0, r26, r0
     548:	78140205 		r0, r20, r0
     54c:	00180000 	add	r0, r24, r0
     550:	78240205 		r1, r4, r0
     554:	00180000 	add	r0, r24, r0
     558:	78340205 		r1, r20, r0
     55c:	00180000 	add	r0, r24, r0
     560:	78440205 		r2, r4, r0
     564:	00180000 	add	r0, r24, r0
     568:	78500205 		r2, r16, r0
     56c:	00180000 	add	r0, r24, r0
     570:	78680205 		r3, r8, r0
     574:	001a0000 	add	r0, r26, r0
     578:	787c0205 		r3, r28, r0
     57c:	00180000 	add	r0, r24, r0
     580:	79080205 		r8, r8, r0
     584:	00180000 	add	r0, r24, r0
     588:	791c0205 		r8, r28, r0
     58c:	001b0000 	add	r0, r27, r0
     590:	79300205 		r9, r16, r0
     594:	001a0000 	add	r0, r26, r0
     598:	79380205 		r9, r24, r0
     59c:	02000000 	add	r16, r0, r0
     5a0:	00190304 		r0, r25, r0
     5a4:	79540205 		r10, r20, r0
     5a8:	00180000 	add	r0, r24, r0
     5ac:	79d80205 		r14, r24, r0
     5b0:	00180000 	add	r0, r24, r0
     5b4:	7a140205 		r16, r20, r0
     5b8:	00180000 	add	r0, r24, r0
     5bc:	7a280205 		r17, r8, r0
     5c0:	00180000 	add	r0, r24, r0
     5c4:	7a700205 		r19, r16, r0
     5c8:	00180000 	add	r0, r24, r0
     5cc:	7ab00205 		r21, r16, r0
     5d0:	00180000 	add	r0, r24, r0
     5d4:	7ac40205 		r22, r4, r0
     5d8:	00180000 	add	r0, r24, r0
     5dc:	7b140205 		r24, r20, r0
     5e0:	00180000 	add	r0, r24, r0
     5e4:	7b540205 		r26, r20, r0
     5e8:	00180000 	add	r0, r24, r0
     5ec:	7b680205 		r27, r8, r0
     5f0:	00180000 	add	r0, r24, r0
     5f4:	7bb80205 		r29, r24, r0
     5f8:	00180000 	add	r0, r24, r0
     5fc:	7be00205 		r31, r0, r0
     600:	00180000 	add	r0, r24, r0
     604:	7bf40205 		r31, r20, r0
     608:	00180000 	add	r0, r24, r0
     60c:	7c440205 		r2, r4, r0
     610:	71030000 		r8, r3, r0
     614:	02050001 		r16, r5, r0
     618:	00007c50 		r0, r0, r15
     61c:	01040200 		r8, r4, r0
     620:	05000106 	neg	r8, r0
     624:	007c6002 		r3, r28, r12
     628:	04020000 	rsub	r0, r2, r0
     62c:	00280600 		r1, r8, r0
     630:	7c7c0205 		r3, r28, r0
     634:	003d0000 	add	r1, r29, r0
     638:	7c980205 		r4, r24, r0
     63c:	001b0000 	add	r0, r27, r0
     640:	7ca00205 		r5, r0, r0
     644:	02000000 	add	r16, r0, r0
     648:	00190304 		r0, r25, r0
     64c:	7cbc0205 		r5, r28, r0
     650:	00180000 	add	r0, r24, r0
     654:	7cdc0205 		r6, r28, r0
     658:	00180000 	add	r0, r24, r0
     65c:	7cfc0205 		r7, r28, r0
     660:	00180000 	add	r0, r24, r0
     664:	7d1c0205 		r8, r28, r0
     668:	00190000 	add	r0, r25, r0
     66c:	7fc00205 		r30, r0, r0
     670:	00180000 	add	r0, r24, r0
     674:	82680205 		r19, r8, r0
     678:	00180000 	add	r0, r24, r0
     67c:	85100205 		r8, r16, r0
     680:	00180000 	add	r0, r24, r0
     684:	87b80205 		r29, r24, r0
     688:	000d0000 	add	r0, r13, r0
     68c:	87c40205 		r30, r4, r0
     690:	02000000 	add	r16, r0, r0
     694:	01060104 		r8, r6, r0
     698:	d4020500 		r0, r2, r0
     69c:	00000087 		r0, r0, r0
     6a0:	06000402 	neg	r16, r0
     6a4:	02050023 		r16, r5, r0
     6a8:	000087f8 		r0, r0, r16
     6ac:	0205001c 		r16, r5, r0
     6b0:	00008808 		r0, r0, r17
     6b4:	0205001a 		r16, r5, r0
     6b8:	00008810 		r0, r0, r17
     6bc:	02050019 		r16, r5, r0
     6c0:	00008818 		r0, r0, r17
     6c4:	03040200 		r24, r4, r0
     6c8:	02050019 		r16, r5, r0
     6cc:	00008860 		r0, r0, r17
     6d0:	02050015 		r16, r5, r0
     6d4:	0000886c 		r0, r0, r17
     6d8:	01040200 		r8, r4, r0
     6dc:	05000106 	neg	r8, r0
     6e0:	00887c02 		r4, r8, r15
     6e4:	04020000 	rsub	r0, r2, r0
     6e8:	00150602 		r0, r21, r0
     6ec:	88880205 		r4, r8, r0
     6f0:	02000000 	add	r16, r0, r0
     6f4:	01060104 		r8, r6, r0
     6f8:	98020500 		r0, r2, r0
     6fc:	00000088 		r0, r0, r0
     700:	06000402 	neg	r16, r0
     704:	0205001e 		r16, r5, r0
     708:	000088b0 		r0, r0, r17
     70c:	0205001a 		r16, r5, r0
     710:	000088c0 		r0, r0, r17
     714:	0205001b 		r16, r5, r0
     718:	000088cc 		r0, r0, r17
     71c:	02050018 		r16, r5, r0
     720:	000088dc 		r0, r0, r17
     724:	02050018 		r16, r5, r0
     728:	000088ec 		r0, r0, r17
     72c:	02050018 		r16, r5, r0
     730:	000088fc 		r0, r0, r17
     734:	02050018 		r16, r5, r0
     738:	00008908 		r0, r0, r17
     73c:	0205001a 		r16, r5, r0
     740:	00008914 		r0, r0, r17
     744:	02050018 		r16, r5, r0
     748:	00008924 		r0, r0, r17
     74c:	02050018 		r16, r5, r0
     750:	00008930 		r0, r0, r17
     754:	02050019 		r16, r5, r0
     758:	0000893c 		r0, r0, r17
     75c:	02050018 		r16, r5, r0
     760:	0000894c 		r0, r0, r17
     764:	02050018 		r16, r5, r0
     768:	00008958 		r0, r0, r17
     76c:	0205001a 		r16, r5, r0
     770:	00008964 		r0, r0, r17
     774:	02050018 		r16, r5, r0
     778:	00008974 		r0, r0, r17
     77c:	02050018 		r16, r5, r0
     780:	00008984 		r0, r0, r17
     784:	02050018 		r16, r5, r0
     788:	00008994 		r0, r0, r17
     78c:	02050018 		r16, r5, r0
     790:	000089a0 		r0, r0, r17
     794:	02050018 		r16, r5, r0
     798:	000089b8 		r0, r0, r17
     79c:	0205001c 		r16, r5, r0
     7a0:	000089d0 		r0, r0, r17
     7a4:	02050018 		r16, r5, r0
     7a8:	000089d4 		r0, r0, r17
     7ac:	0205001a 		r16, r5, r0
     7b0:	000089e8 		r0, r0, r17
     7b4:	0205001d 		r16, r5, r0
     7b8:	000089f0 		r0, r0, r17
     7bc:	02050019 		r16, r5, r0
     7c0:	000089fc 		r0, r0, r17
     7c4:	02050018 		r16, r5, r0
     7c8:	00008a08 		r0, r0, r17
     7cc:	02050018 		r16, r5, r0
     7d0:	00008a14 		r0, r0, r17
     7d4:	0205001b 		r16, r5, r0
     7d8:	00008a20 		r0, r0, r17
     7dc:	02050018 		r16, r5, r0
     7e0:	00008a38 		r0, r0, r17
     7e4:	0205000e 		r16, r5, r0
     7e8:	00008a44 		r0, r0, r17
     7ec:	02050019 		r16, r5, r0
     7f0:	00008a48 		r0, r0, r17
     7f4:	0205001b 		r16, r5, r0
     7f8:	00008a4c 		r0, r0, r17
     7fc:	0205001d 		r16, r5, r0
     800:	00008a60 		r0, r0, r17
     804:	02050018 		r16, r5, r0
     808:	00008a7c 		r0, r0, r17
     80c:	0205001b 		r16, r5, r0
     810:	00008a94 		r0, r0, r17
     814:	02050018 		r16, r5, r0
     818:	00008a98 		r0, r0, r17
     81c:	0205001a 		r16, r5, r0
     820:	00008aac 		r0, r0, r17
     824:	0205001d 		r16, r5, r0
     828:	00008ab4 		r0, r0, r17
     82c:	02050019 		r16, r5, r0
     830:	00008ac0 		r0, r0, r17
     834:	02050018 		r16, r5, r0
     838:	00008acc 		r0, r0, r17
     83c:	02050018 		r16, r5, r0
     840:	00008ae4 		r0, r0, r17
     844:	02050018 		r16, r5, r0
     848:	00008aec 		r0, r0, r17
     84c:	0205001b 		r16, r5, r0
     850:	00008af8 		r0, r0, r17
     854:	0205000e 		r16, r5, r0
     858:	00008b04 		r0, r0, r17
     85c:	02050019 		r16, r5, r0
     860:	00008b08 		r0, r0, r17
     864:	0205001c 		r16, r5, r0
     868:	00008b0c 		r0, r0, r17
     86c:	0205001b 		r16, r5, r0
     870:	00008b28 		r0, r0, r17
     874:	02050020 		r16, r5, r0
     878:	00008b40 		r0, r0, r17
     87c:	02050019 		r16, r5, r0
     880:	00008b54 		r0, r0, r17
     884:	02050018 		r16, r5, r0
     888:	00008b70 		r0, r0, r17
     88c:	0205001a 		r16, r5, r0
     890:	00008b88 		r0, r0, r17
     894:	02050019 		r16, r5, r0
     898:	00008b9c 		r0, r0, r17
     89c:	02050018 		r16, r5, r0
     8a0:	00008bb8 		r0, r0, r17
     8a4:	0205001e 		r16, r5, r0
     8a8:	00008bcc 		r0, r0, r17
     8ac:	0205001a 		r16, r5, r0
     8b0:	00008bd4 		r0, r0, r17
     8b4:	03040200 		r24, r4, r0
     8b8:	02050019 		r16, r5, r0
     8bc:	00008c0c 		r0, r0, r17
     8c0:	02050015 		r16, r5, r0
     8c4:	00008c18 		r0, r0, r17
     8c8:	01040200 		r8, r4, r0
     8cc:	05000106 	neg	r8, r0
     8d0:	008c2802 		r4, r12, r5
     8d4:	04020000 	rsub	r0, r2, r0
     8d8:	001b0600 		r0, r27, r0
     8dc:	8c400205 		r2, r0, r0
     8e0:	001a0000 	add	r0, r26, r0
     8e4:	8c5c0205 		r2, r28, r0
     8e8:	00190000 	add	r0, r25, r0
     8ec:	8c680205 		r3, r8, r0
     8f0:	00190000 	add	r0, r25, r0
     8f4:	8c700205 		r3, r16, r0
     8f8:	02000000 	add	r16, r0, r0
     8fc:	00190304 		r0, r25, r0
     900:	8c800205 		r4, r0, r0
     904:	00180000 	add	r0, r24, r0
     908:	8c940205 		r4, r20, r0
     90c:	00180000 	add	r0, r24, r0
     910:	8c9c0205 		r4, r28, r0
     914:	00180000 	add	r0, r24, r0
     918:	8ca80205 		r5, r8, r0
     91c:	00120000 	add	r0, r18, r0
     920:	8cb40205 		r5, r20, r0
     924:	02000000 	add	r16, r0, r0
     928:	01060104 		r8, r6, r0
     92c:	c4020500 		r0, r2, r0
     930:	0000008c 		r0, r0, r0
     934:	06000402 	neg	r16, r0
     938:	0205001f 		r16, r5, r0
     93c:	00008ce4 		r0, r0, r17
     940:	02050018 		r16, r5, r0
     944:	00008d00 		r0, r0, r17
     948:	0205001a 		r16, r5, r0
     94c:	00008d1c 		r0, r0, r17
     950:	0205001b 		r16, r5, r0
     954:	00008d24 		r0, r0, r17
     958:	03040200 		r24, r4, r0
     95c:	02050019 		r16, r5, r0
     960:	00008da8 		r0, r0, r17
     964:	02050018 		r16, r5, r0
     968:	00008dbc 		r0, r0, r17
     96c:	02050018 		r16, r5, r0
     970:	00008dd4 		r0, r0, r17
     974:	02050018 		r16, r5, r0
     978:	00008e5c 		r0, r0, r17
     97c:	02050018 		r16, r5, r0
     980:	00008e68 		r0, r0, r17
     984:	02050011 		r16, r5, r0
     988:	00008e74 		r0, r0, r17
     98c:	01040200 		r8, r4, r0
     990:	05000106 	neg	r8, r0
     994:	008e8402 		r4, r14, r16
     998:	04020000 	rsub	r0, r2, r0
     99c:	001f0600 		r0, r31, r0
     9a0:	8ea00205 		r21, r0, r0
     9a4:	001f0000 	add	r0, r31, r0
     9a8:	8ebc0205 		r21, r28, r0
     9ac:	001d0000 	add	r0, r29, r0
     9b0:	8ecc0205 		r22, r12, r0
     9b4:	00190000 	add	r0, r25, r0
     9b8:	8ed80205 		r22, r24, r0
     9bc:	001a0000 	add	r0, r26, r0
     9c0:	8f600205 		r27, r0, r0
     9c4:	00180000 	add	r0, r24, r0
     9c8:	8f780205 		r27, r24, r0
     9cc:	001a0000 	add	r0, r26, r0
     9d0:	8f840205 		r28, r4, r0
     9d4:	001a0000 	add	r0, r26, r0
     9d8:	8fa00205 		r29, r0, r0
     9dc:	00190000 	add	r0, r25, r0
     9e0:	8fb40205 		r29, r20, r0
     9e4:	00120000 	add	r0, r18, r0
     9e8:	8fc40205 		r30, r4, r0
     9ec:	001f0000 	add	r0, r31, r0
     9f0:	8ff40205 		r31, r20, r0
     9f4:	00180000 	add	r0, r24, r0
     9f8:	8ff80205 		r31, r24, r0
     9fc:	02000000 	add	r16, r0, r0
     a00:	000e0104 		r0, r14, r0
     a04:	90000205 		r0, r0, r0
     a08:	02000000 	add	r16, r0, r0
     a0c:	00220004 		r1, r2, r0
     a10:	90040205 		r0, r4, r0
     a14:	02000000 	add	r16, r0, r0
     a18:	001a0204 		r0, r26, r0
     a1c:	903c0205 		r1, r28, r0
     a20:	69030000 		r8, r3, r0
     a24:	02050001 		r16, r5, r0
     a28:	00009054 		r0, r0, r18
     a2c:	01040200 		r8, r4, r0
     a30:	05000106 	neg	r8, r0
     a34:	00906402 		r4, r16, r12
     a38:	04020000 	rsub	r0, r2, r0
     a3c:	00300600 		r1, r16, r0
     a40:	90800205 		r4, r0, r0
     a44:	01000000 	add	r8, r0, r0
     a48:	00070b01 		r0, r7, r1
     a4c:	3f000400 	rsubikc	r24, r0, 1024
     a50:	01000003 		r8, r0, r0
     a54:	f2f60101 	sbi	r23, r22, 257
     a58:	0101000d 		r8, r1, r0
     a5c:	00000101 		r0, r0, r0
     a60:	00000100 		r0, r0, r0
     a64:	2f2e2e01 	rsubic	r25, r14, 11777
     a68:	00637273 		r3, r3, r14
     a6c:	74706f2f 		r3, r16, r13
     a70:	6c69582f 	tnaget	r3, rfsl15
     a74:	2f786e69 	rsubic	r27, r24, 28265
     a78:	2f4b4453 	rsubic	r26, r11, 17491
     a7c:	37313032 	rsubik	r25, r17, 12338
     a80:	672f342e 	bslli	r25, r15, 14
     a84:	6d2f756e 	tnecget	r9, rfsl14
     a88:	6f726369 	ncget	r27, rfsl9
     a8c:	7a616c62 		r19, r1, r13
     a90:	696c2f65 		r11, r12, r5
     a94:	696c2f6e 		r11, r12, r5
     a98:	63672f62 	muli	r27, r7, 12130
     a9c:	696d2f63 		r11, r13, r5
     aa0:	626f7263 	muli	r19, r15, 29283
     aa4:	657a616c 	bsrli	r11, r26, 12
     aa8:	6c69782d 	tncaget	r3, rfsl13
     aac:	2d786e69 	rsubic	r11, r24, 28265
     ab0:	2f666c65 	rsubic	r27, r6, 27749
     ab4:	2e322e36 	rsubic	r17, r18, 11830
     ab8:	6e692f30 	ecaget	r19, rfsl0
     abc:	64756c63 	bslli	r3, r21, 3
     ac0:	6f2f0065 	get	r25, rfsl5
     ac4:	582f7470 		r1, r15, r14
     ac8:	6e696c69 	necaget	r19, rfsl9
     acc:	44532f78 		r2, r19, r5
     ad0:	30322f4b 	addik	r1, r18, 12107
     ad4:	342e3731 	rsubik	r1, r14, 14129
     ad8:	756e672f 		r11, r14, r12
     adc:	63696d2f 	muli	r27, r9, 27951
     ae0:	6c626f72 	necaget	r3, rfsl2
     ae4:	2f657a61 	rsubic	r27, r5, 31329
     ae8:	2f6e696c 	rsubic	r27, r14, 26988
     aec:	7263696d 		r19, r3, r13
     af0:	616c626f 	muli	r11, r12, 25199
     af4:	782d657a 		r1, r13, r12
     af8:	6e696c69 	necaget	r19, rfsl9
     afc:	6c652d78 	ecaget	r3, rfsl8
     b00:	6e692f66 	ecaget	r19, rfsl6
     b04:	64756c63 	bslli	r3, r21, 3
     b08:	6f2f0065 	get	r25, rfsl5
     b0c:	582f7470 		r1, r15, r14
     b10:	6e696c69 	necaget	r19, rfsl9
     b14:	44532f78 		r2, r19, r5
     b18:	30322f4b 	addik	r1, r18, 12107
     b1c:	342e3731 	rsubik	r1, r14, 14129
     b20:	756e672f 		r11, r14, r12
     b24:	63696d2f 	muli	r27, r9, 27951
     b28:	6c626f72 	necaget	r3, rfsl2
     b2c:	2f657a61 	rsubic	r27, r5, 31329
     b30:	2f6e696c 	rsubic	r27, r14, 26988
     b34:	7263696d 		r19, r3, r13
     b38:	616c626f 	muli	r11, r12, 25199
     b3c:	782d657a 		r1, r13, r12
     b40:	6e696c69 	necaget	r19, rfsl9
     b44:	6c652d78 	ecaget	r3, rfsl8
     b48:	6e692f66 	ecaget	r19, rfsl6
     b4c:	64756c63 	bslli	r3, r21, 3
     b50:	616d2f65 	muli	r11, r13, 12133
     b54:	6e696863 	ncaget	r19, rfsl3
     b58:	6f2f0065 	get	r25, rfsl5
     b5c:	582f7470 		r1, r15, r14
     b60:	6e696c69 	necaget	r19, rfsl9
     b64:	44532f78 		r2, r19, r5
     b68:	30322f4b 	addik	r1, r18, 12107
     b6c:	342e3731 	rsubik	r1, r14, 14129
     b70:	756e672f 		r11, r14, r12
     b74:	63696d2f 	muli	r27, r9, 27951
     b78:	6c626f72 	necaget	r3, rfsl2
     b7c:	2f657a61 	rsubic	r27, r5, 31329
     b80:	2f6e696c 	rsubic	r27, r14, 26988
     b84:	7263696d 		r19, r3, r13
     b88:	616c626f 	muli	r11, r12, 25199
     b8c:	782d657a 		r1, r13, r12
     b90:	6e696c69 	necaget	r19, rfsl9
     b94:	6c652d78 	ecaget	r3, rfsl8
     b98:	6e692f66 	ecaget	r19, rfsl6
     b9c:	64756c63 	bslli	r3, r21, 3
     ba0:	79732f65 		r11, r19, r5
     ba4:	62000073 	muli	r16, r0, 115
     ba8:	656b616c 	bsrli	r11, r11, 12
     bac:	632e7332 	muli	r25, r14, 29490
     bb0:	00000100 		r0, r0, r0
     bb4:	6863616d 		r3, r3, r12
     bb8:	2f656e69 	rsubic	r27, r5, 28265
     bbc:	6665645f 	bslli	r19, r5, 31
     bc0:	746c7561 		r3, r12, r14
     bc4:	7079745f 		r3, r25, r14
     bc8:	682e7365 		r1, r14, r14
     bcc:	00000300 		r0, r0, r0
     bd0:	2f737973 	rsubic	r27, r19, 31091
     bd4:	6474735f 	bsrai	r3, r20, 31
     bd8:	2e746e69 	rsubic	r19, r20, 28265
     bdc:	00030068 		r0, r3, r0
     be0:	64747300 	bsrai	r3, r20, 0
     be4:	2e666564 	rsubic	r19, r6, 25956
     be8:	00020068 		r0, r2, r0
     bec:	73797300 		r27, r25, r14
     bf0:	636f6c2f 	muli	r27, r15, 27695
     bf4:	00682e6b 		r3, r8, r5
     bf8:	73000003 		r24, r0, r0
     bfc:	5f2f7379 		r25, r15, r14
     c00:	65707974 	bsrli	r11, r16, 20
     c04:	00682e73 		r3, r8, r5
     c08:	73000003 		r24, r0, r0
     c0c:	722f7379 		r17, r15, r14
     c10:	746e6565 		r3, r14, r12
     c14:	0300682e 		r24, r0, r13
     c18:	6c620000 	get	r3, rfsl0
     c1c:	32656b61 	addik	r19, r5, 27489
     c20:	00682e73 		r3, r8, r5
     c24:	73000001 		r24, r0, r0
     c28:	6e696474 	necget	r19, rfsl4
     c2c:	00682e74 		r3, r8, r5
     c30:	73000002 		r24, r0, r0
     c34:	6e696474 	necget	r19, rfsl4
     c38:	00682e74 		r3, r8, r5
     c3c:	73000003 		r24, r0, r0
     c40:	662f7379 	bsrai	r17, r15, 25
     c44:	75746165 		r11, r20, r12
     c48:	2e736572 	rsubic	r19, r19, 25970
     c4c:	00030068 		r0, r3, r0
     c50:	656e5f00 	bsefi	r11, r14, 28, 0
     c54:	62696c77 	muli	r19, r9, 27767
     c58:	7265765f 		r19, r5, r14
     c5c:	6e6f6973 	ncaget	r19, rfsl3
     c60:	0300682e 		r24, r0, r13
     c64:	79730000 		r11, r19, r0
     c68:	695f2f73 		r10, r31, r5
     c6c:	7573746e 		r11, r19, r14
     c70:	00682e70 		r3, r8, r5
     c74:	73000003 		r24, r0, r0
     c78:	6e697274 	tncget	r19, rfsl4
     c7c:	00682e67 		r3, r8, r5
     c80:	5f000003 		r24, r0, r0
     c84:	69736e61 		r11, r19, r13
     c88:	0300682e 		r24, r0, r13
     c8c:	656e0000 	bsrli	r11, r14, 0
     c90:	62696c77 	muli	r19, r9, 27767
     c94:	0300682e 		r24, r0, r13
     c98:	79730000 		r11, r19, r0
     c9c:	6f632f73 	ecaget	r27, rfsl3
     ca0:	6769666e 	bsefi	r27, r9, 25, 14
     ca4:	0300682e 		r24, r0, r13
     ca8:	616d0000 	muli	r11, r13, 0
     cac:	6e696863 	ncaget	r19, rfsl3
     cb0:	65692f65 		r11, r9, r5
     cb4:	70666565 		r3, r6, r12
     cb8:	0300682e 		r24, r0, r13
     cbc:	616d0000 	muli	r11, r13, 0
     cc0:	6e696863 	ncaget	r19, rfsl3
     cc4:	745f2f65 		r2, r31, r5
     cc8:	73657079 		r27, r5, r14
     ccc:	0300682e 		r24, r0, r13
     cd0:	79730000 		r11, r19, r0
     cd4:	64632f73 		r3, r3, r5
     cd8:	2e736665 	rsubic	r19, r19, 26213
     cdc:	00030068 		r0, r3, r0
     ce0:	73797300 		r27, r25, r14
     ce4:	7274732f 		r19, r20, r14
     ce8:	2e676e69 	rsubic	r19, r7, 28265
     cec:	00030068 		r0, r3, r0
     cf0:	64747300 	bsrai	r3, r20, 0
     cf4:	682e6f69 		r1, r14, r13
     cf8:	00000300 		r0, r0, r0
     cfc:	61647473 	muli	r11, r4, 29811
     d00:	682e6772 		r1, r14, r12
     d04:	00000200 		r0, r0, r0
     d08:	2f737973 	rsubic	r27, r19, 31091
     d0c:	65707974 	bsrli	r11, r16, 20
     d10:	00682e73 		r3, r8, r5
     d14:	6d000003 	get	r8, rfsl3
     d18:	69686361 		r11, r8, r12
     d1c:	742f656e 		r1, r15, r12
     d20:	73657079 		r27, r5, r14
     d24:	0300682e 		r24, r0, r13
     d28:	79730000 		r11, r19, r0
     d2c:	65732f73 		r11, r19, r5
     d30:	7463656c 		r3, r3, r12
     d34:	0300682e 		r24, r0, r13
     d38:	79730000 		r11, r19, r0
     d3c:	735f2f73 		r26, r31, r5
     d40:	65736769 	bsefi	r11, r19, 29, 9
     d44:	00682e74 		r3, r8, r5
     d48:	73000003 		r24, r0, r0
     d4c:	5f2f7379 		r25, r15, r14
     d50:	656d6974 	bsrli	r11, r13, 20
     d54:	2e6c6176 	rsubic	r19, r12, 24950
     d58:	00030068 		r0, r3, r0
     d5c:	73797300 		r27, r25, r14
     d60:	6d69742f 	tnecget	r11, rfsl15
     d64:	65707365 	bsrai	r11, r16, 5
     d68:	00682e63 		r3, r8, r5
     d6c:	73000003 		r24, r0, r0
     d70:	5f2f7379 		r25, r15, r14
     d74:	656d6974 	bsrli	r11, r13, 20
     d78:	63657073 	muli	r27, r5, 28787
     d7c:	0300682e 		r24, r0, r13
     d80:	79730000 		r11, r19, r0
     d84:	74732f73 		r3, r19, r5
     d88:	2e6f6964 	rsubic	r19, r15, 26980
     d8c:	00030068 		r0, r3, r0
     d90:	05000000 	rsub	r8, r0, r0
     d94:	0066ac02 		r3, r6, r21
     d98:	05006e00 	neg	r8, r0
     d9c:	0066c002 		r3, r6, r24
     da0:	05001800 	rsub	r8, r0, r3
     da4:	00671402 		r3, r7, r2
     da8:	05001800 	rsub	r8, r0, r3
     dac:	00672802 		r3, r7, r5
     db0:	05002100 	neg	r8, r0
     db4:	00673802 		r3, r7, r7
     db8:	05001800 	rsub	r8, r0, r3
     dbc:	00674402 		r3, r7, r8
     dc0:	05001800 	rsub	r8, r0, r3
     dc4:	00675c02 		r3, r7, r11
     dc8:	05001a00 	neg	r8, r0
     dcc:	00676c02 		r3, r7, r13
     dd0:	05001800 	rsub	r8, r0, r3
     dd4:	00680402 		r3, r8, r0
     dd8:	05001800 	rsub	r8, r0, r3
     ddc:	00681802 		r3, r8, r3
     de0:	05001a00 	neg	r8, r0
     de4:	00682c02 		r3, r8, r5
     de8:	05001800 	rsub	r8, r0, r3
     dec:	00683802 		r3, r8, r7
     df0:	05001800 	rsub	r8, r0, r3
     df4:	00684402 		r3, r8, r8
     df8:	05001900 	neg	r8, r0
     dfc:	00685002 		r3, r8, r10
     e00:	05001800 	rsub	r8, r0, r3
     e04:	00686c02 		r3, r8, r13
     e08:	05001a00 	neg	r8, r0
     e0c:	00688002 		r3, r8, r16
     e10:	05001800 	rsub	r8, r0, r3
     e14:	00689802 		r3, r8, r19
     e18:	05001d00 	neg	r8, r0
     e1c:	0068b002 		r3, r8, r22
     e20:	05001a00 	neg	r8, r0
     e24:	0068c002 		r3, r8, r24
     e28:	05001800 	rsub	r8, r0, r3
     e2c:	0068c802 		r3, r8, r25
     e30:	04020000 	rsub	r0, r2, r0
     e34:	05001903 	neg	r8, r0
     e38:	0068fc02 		r3, r8, r31
     e3c:	05001500 	neg	r8, r0
     e40:	00690802 		r3, r9, r1
     e44:	04020000 	rsub	r0, r2, r0
     e48:	00010601 		r0, r1, r0
     e4c:	69180205 		r8, r24, r0
     e50:	02000000 	add	r16, r0, r0
     e54:	1b060004 		r24, r6, r0
     e58:	30020500 	addik	r0, r2, 1280
     e5c:	1b000069 		r24, r0, r0
     e60:	44020500 	bsll	r0, r2, r0
     e64:	18000069 		r0, r0, r0
     e68:	5c020500 		r0, r2, r0
     e6c:	19000069 		r8, r0, r0
     e70:	6c020500 	eget	r0, rfsl0
     e74:	1a000069 		r16, r0, r0
     e78:	84020500 		r0, r2, r0
     e7c:	19000069 		r8, r0, r0
     e80:	88020500 		r0, r2, r0
     e84:	18000069 		r0, r0, r0
     e88:	a0020500 	ori	r0, r2, 1280
     e8c:	1a000069 		r16, r0, r0
     e90:	bc020500 	beqi	r2, 1280		// 1390
     e94:	18000069 		r0, r0, r0
     e98:	c4020500 		r0, r2, r0
     e9c:	00000069 		r0, r0, r0
     ea0:	19030402 		r8, r3, r0
     ea4:	d8020500 		r0, r2, r0
     ea8:	23000069 	addi	r24, r0, 105
     eac:	f8020500 	swi	r0, r2, 1280
     eb0:	18000069 		r0, r0, r0
     eb4:	24020500 	rsubi	r0, r2, 1280
     eb8:	1800006a 		r0, r0, r0
     ebc:	58020500 		r0, r2, r0
     ec0:	1800006a 		r0, r0, r0
     ec4:	94020500 		r0, r2, r0
     ec8:	1900006a 		r8, r0, r0
     ecc:	bc020500 	beqi	r2, 1280		// 13cc
     ed0:	1800006a 		r0, r0, r0
     ed4:	f4020500 	shi	r0, r2, 1280
     ed8:	1800006a 		r0, r0, r0
     edc:	18020500 		r0, r2, r0
     ee0:	1900006b 		r8, r0, r0
     ee4:	3c020500 	rsubikc	r0, r2, 1280
     ee8:	1800006b 		r0, r0, r0
     eec:	6c020500 	eget	r0, rfsl0
     ef0:	1800006b 		r0, r0, r0
     ef4:	88020500 		r0, r2, r0
     ef8:	1800006b 		r0, r0, r0
     efc:	b8020500 		r0, r2, r0
     f00:	1800006b 		r0, r0, r0
     f04:	dc020500 		r0, r2, r0
     f08:	1800006b 		r0, r0, r0
     f0c:	0c020500 		r0, r2, r0
     f10:	1800006c 		r0, r0, r0
     f14:	28020500 	addic	r0, r2, 1280
     f18:	1800006c 		r0, r0, r0
     f1c:	58020500 		r0, r2, r0
     f20:	0300006c 		r24, r0, r0
     f24:	05000162 	neg	r8, r0
     f28:	006c6402 		r3, r12, r12
     f2c:	04020000 	rsub	r0, r2, r0
     f30:	00010601 		r0, r1, r0
     f34:	6c740205 	get	r3, rfsl5
     f38:	02000000 	add	r16, r0, r0
     f3c:	37060004 	rsubik	r24, r6, 4
     f40:	90020500 		r0, r2, r0
     f44:	1a00006c 		r16, r0, r0
     f48:	a8020500 	xori	r0, r2, 1280
     f4c:	1900006c 		r8, r0, r0
     f50:	b0020500 		r0, r2, r0
     f54:	1e00006c 		r16, r0, r0
     f58:	d0020500 		r0, r2, r0
     f5c:	1900006c 		r8, r0, r0
     f60:	e4020500 	lhui	r0, r2, 1280
     f64:	1800006c 		r0, r0, r0
     f68:	f8020500 	swi	r0, r2, 1280
     f6c:	1800006c 		r0, r0, r0
     f70:	0c020500 		r0, r2, r0
     f74:	1800006d 		r0, r0, r0
     f78:	20020500 	addi	r0, r2, 1280
     f7c:	1800006d 		r0, r0, r0
     f80:	34020500 	rsubik	r0, r2, 1280
     f84:	1900006d 		r8, r0, r0
     f88:	3c020500 	rsubikc	r0, r2, 1280
     f8c:	0000006d 		r0, r0, r0
     f90:	19030402 		r8, r3, r0
     f94:	54020500 		r0, r2, r0
     f98:	1500006d 		r8, r0, r0
     f9c:	60020500 	muli	r0, r2, 1280
     fa0:	0000006d 		r0, r0, r0
     fa4:	06010402 	neg	r16, r1
     fa8:	02050001 		r16, r5, r0
     fac:	00006d70 		r0, r0, r13
     fb0:	00040200 		r0, r4, r0
     fb4:	05001c06 	neg	r8, r0
     fb8:	006d7802 		r3, r13, r15
     fbc:	04020000 	rsub	r0, r2, r0
     fc0:	05001903 	neg	r8, r0
     fc4:	006dec02 		r3, r13, r29
     fc8:	05001500 	neg	r8, r0
     fcc:	006df802 		r3, r13, r31
     fd0:	04020000 	rsub	r0, r2, r0
     fd4:	00010601 		r0, r1, r0
     fd8:	6e080205 	get	r16, rfsl5
     fdc:	02000000 	add	r16, r0, r0
     fe0:	1b060004 		r24, r6, r0
     fe4:	24020500 	rsubi	r0, r2, 1280
     fe8:	1a00006e 		r16, r0, r0
     fec:	40020500 		r0, r2, r0
     ff0:	1800006e 		r0, r0, r0
     ff4:	48020500 		r0, r2, r0
     ff8:	1800006e 		r0, r0, r0
     ffc:	50020500 		r0, r2, r0
    1000:	1e00006e 		r16, r0, r0
    1004:	58020500 		r0, r2, r0
    1008:	1800006e 		r0, r0, r0
    100c:	64020500 	bslli	r0, r2, 0
    1010:	1800006e 		r0, r0, r0
    1014:	74020500 		r0, r2, r0
    1018:	1800006e 		r0, r0, r0
    101c:	84020500 		r0, r2, r0
    1020:	1900006e 		r8, r0, r0
    1024:	8c020500 		r0, r2, r0
    1028:	1800006e 		r0, r0, r0
    102c:	b4020500 		r0, r2, r0
    1030:	1800006e 		r0, r0, r0
    1034:	c4020500 		r0, r2, r0
    1038:	1800006e 		r0, r0, r0
    103c:	dc020500 		r0, r2, r0
    1040:	1800006e 		r0, r0, r0
    1044:	ec020500 		r0, r2, r0
    1048:	1800006e 		r0, r0, r0
    104c:	fc020500 		r0, r2, r0
    1050:	1900006e 		r8, r0, r0
    1054:	00020500 		r0, r2, r0
    1058:	1900006f 		r8, r0, r0
    105c:	10020500 		r0, r2, r0
    1060:	1800006f 		r0, r0, r0
    1064:	20020500 	addi	r0, r2, 1280
    1068:	1800006f 		r0, r0, r0
    106c:	2c020500 	rsubic	r0, r2, 1280
    1070:	1800006f 		r0, r0, r0
    1074:	38020500 	addikc	r0, r2, 1280
    1078:	1200006f 		r16, r0, r0
    107c:	48020500 		r0, r2, r0
    1080:	1f00006f 		r24, r0, r0
    1084:	74020500 		r0, r2, r0
    1088:	1800006f 		r0, r0, r0
    108c:	8c020500 		r0, r2, r0
    1090:	1800006f 		r0, r0, r0
    1094:	90020500 		r0, r2, r0
    1098:	1800006f 		r0, r0, r0
    109c:	a8020500 	xori	r0, r2, 1280
    10a0:	1a00006f 		r16, r0, r0
    10a4:	c0020500 		r0, r2, r0
    10a8:	2300006f 	addi	r24, r0, 111
    10ac:	dc020500 		r0, r2, r0
    10b0:	1800006f 		r0, r0, r0
    10b4:	e0020500 	lbui	r0, r2, 1280
    10b8:	1800006f 		r0, r0, r0
    10bc:	f8020500 	swi	r0, r2, 1280
    10c0:	1a00006f 		r16, r0, r0
    10c4:	14020500 		r0, r2, r0
    10c8:	22000070 	addi	r16, r0, 112
    10cc:	28020500 	addic	r0, r2, 1280
    10d0:	2b000070 	addic	r24, r0, 112
    10d4:	30020500 	addik	r0, r2, 1280
    10d8:	18000070 		r0, r0, r0
    10dc:	44020500 	bsll	r0, r2, r0
    10e0:	1b000070 		r24, r0, r0
    10e4:	58020500 		r0, r2, r0
    10e8:	18000070 		r0, r0, r0
    10ec:	68020500 		r0, r2, r0
    10f0:	19000070 		r8, r0, r0
    10f4:	78020500 		r0, r2, r0
    10f8:	1a000070 		r16, r0, r0
    10fc:	8c020500 		r0, r2, r0
    1100:	19000070 		r8, r0, r0
    1104:	9c020500 		r0, r2, r0
    1108:	1b000070 		r24, r0, r0
    110c:	a8020500 	xori	r0, r2, 1280
    1110:	03000070 		r24, r0, r0
    1114:	05000174 	neg	r8, r0
    1118:	0070ac02 		r3, r16, r21
    111c:	05002100 	neg	r8, r0
    1120:	0070b002 		r3, r16, r22
    1124:	05001d00 	neg	r8, r0
    1128:	0070c802 		r3, r16, r25
    112c:	05001d00 	neg	r8, r0
    1130:	0070cc02 		r3, r16, r25
    1134:	05001800 	rsub	r8, r0, r3
    1138:	0070e402 		r3, r16, r28
    113c:	05001a00 	neg	r8, r0
    1140:	00710002 		r3, r17, r0
    1144:	05001800 	rsub	r8, r0, r3
    1148:	00713002 		r3, r17, r6
    114c:	05001800 	rsub	r8, r0, r3
    1150:	00714802 		r3, r17, r9
    1154:	01010000 	add	r8, r1, r0
    1158:	0000040b 		r0, r0, r0
    115c:	02af0004 		r21, r15, r0
    1160:	01010000 	add	r8, r1, r0
    1164:	0df2f601 		r15, r18, r30
    1168:	01010100 		r8, r1, r0
    116c:	00000001 		r0, r0, r0
    1170:	01000001 		r8, r0, r0
    1174:	732f2e2e 		r25, r15, r5
    1178:	2f006372 	rsubic	r24, r0, 25458
    117c:	2f74706f 	rsubic	r27, r20, 28783
    1180:	696c6958 		r11, r12, r13
    1184:	532f786e 		r25, r15, r15
    1188:	322f4b44 	addik	r17, r15, 19268
    118c:	2e373130 	rsubic	r17, r23, 12592
    1190:	6e672f34 	ecaget	r19, rfsl4
    1194:	696d2f75 		r11, r13, r5
    1198:	626f7263 	muli	r19, r15, 29283
    119c:	657a616c 	bsrli	r11, r26, 12
    11a0:	6e696c2f 	necaget	r19, rfsl15
    11a4:	62696c2f 	muli	r19, r9, 27695
    11a8:	6363672f 	muli	r27, r3, 26415
    11ac:	63696d2f 	muli	r27, r9, 27951
    11b0:	6c626f72 	necaget	r3, rfsl2
    11b4:	2d657a61 	rsubic	r11, r5, 31329
    11b8:	696c6978 		r11, r12, r13
    11bc:	652d786e 	bsrli	r9, r13, 14
    11c0:	362f666c 	rsubik	r17, r15, 26220
    11c4:	302e322e 	addik	r1, r14, 12846
    11c8:	636e692f 	muli	r27, r14, 26927
    11cc:	6564756c 	bslli	r11, r4, 12
    11d0:	706f2f00 		r3, r15, r5
    11d4:	69582f74 		r10, r24, r5
    11d8:	786e696c 		r3, r14, r13
    11dc:	4b44532f 		r26, r4, r10
    11e0:	3130322f 	addik	r9, r16, 12847
    11e4:	2f342e37 	rsubic	r25, r20, 11831
    11e8:	2f756e67 	rsubic	r27, r21, 28263
    11ec:	7263696d 		r19, r3, r13
    11f0:	616c626f 	muli	r11, r12, 25199
    11f4:	6c2f657a 	necget	r1, rfsl10
    11f8:	6d2f6e69 	necaget	r9, rfsl9
    11fc:	6f726369 	ncget	r27, rfsl9
    1200:	7a616c62 		r19, r1, r13
    1204:	69782d65 		r11, r24, r5
    1208:	786e696c 		r3, r14, r13
    120c:	666c652d 	bslli	r19, r12, 13
    1210:	636e692f 	muli	r27, r14, 26927
    1214:	6564756c 	bslli	r11, r4, 12
    1218:	706f2f00 		r3, r15, r5
    121c:	69582f74 		r10, r24, r5
    1220:	786e696c 		r3, r14, r13
    1224:	4b44532f 		r26, r4, r10
    1228:	3130322f 	addik	r9, r16, 12847
    122c:	2f342e37 	rsubic	r25, r20, 11831
    1230:	2f756e67 	rsubic	r27, r21, 28263
    1234:	7263696d 		r19, r3, r13
    1238:	616c626f 	muli	r11, r12, 25199
    123c:	6c2f657a 	necget	r1, rfsl10
    1240:	6d2f6e69 	necaget	r9, rfsl9
    1244:	6f726369 	ncget	r27, rfsl9
    1248:	7a616c62 		r19, r1, r13
    124c:	69782d65 		r11, r24, r5
    1250:	786e696c 		r3, r14, r13
    1254:	666c652d 	bslli	r19, r12, 13
    1258:	636e692f 	muli	r27, r14, 26927
    125c:	6564756c 	bslli	r11, r4, 12
    1260:	63616d2f 	muli	r27, r1, 27951
    1264:	656e6968 	bsrli	r11, r14, 8
    1268:	706f2f00 		r3, r15, r5
    126c:	69582f74 		r10, r24, r5
    1270:	786e696c 		r3, r14, r13
    1274:	4b44532f 		r26, r4, r10
    1278:	3130322f 	addik	r9, r16, 12847
    127c:	2f342e37 	rsubic	r25, r20, 11831
    1280:	2f756e67 	rsubic	r27, r21, 28263
    1284:	7263696d 		r19, r3, r13
    1288:	616c626f 	muli	r11, r12, 25199
    128c:	6c2f657a 	necget	r1, rfsl10
    1290:	6d2f6e69 	necaget	r9, rfsl9
    1294:	6f726369 	ncget	r27, rfsl9
    1298:	7a616c62 		r19, r1, r13
    129c:	69782d65 		r11, r24, r5
    12a0:	786e696c 		r3, r14, r13
    12a4:	666c652d 	bslli	r19, r12, 13
    12a8:	636e692f 	muli	r27, r14, 26927
    12ac:	6564756c 	bslli	r11, r4, 12
    12b0:	7379732f 		r27, r25, r14
    12b4:	6d680000 	get	r11, rfsl0
    12b8:	632e6361 	muli	r25, r14, 25441
    12bc:	00000100 		r0, r0, r0
    12c0:	64647473 	bslli	r3, r4, 19
    12c4:	682e6665 		r1, r14, r12
    12c8:	00000200 		r0, r0, r0
    12cc:	6863616d 		r3, r3, r12
    12d0:	2f656e69 	rsubic	r27, r5, 28265
    12d4:	6665645f 	bslli	r19, r5, 31
    12d8:	746c7561 		r3, r12, r14
    12dc:	7079745f 		r3, r25, r14
    12e0:	682e7365 		r1, r14, r14
    12e4:	00000300 		r0, r0, r0
    12e8:	2f737973 	rsubic	r27, r19, 31091
    12ec:	6474735f 	bsrai	r3, r20, 31
    12f0:	2e746e69 	rsubic	r19, r20, 28265
    12f4:	00030068 		r0, r3, r0
    12f8:	73797300 		r27, r25, r14
    12fc:	636f6c2f 	muli	r27, r15, 27695
    1300:	00682e6b 		r3, r8, r5
    1304:	73000003 		r24, r0, r0
    1308:	5f2f7379 		r25, r15, r14
    130c:	65707974 	bsrli	r11, r16, 20
    1310:	00682e73 		r3, r8, r5
    1314:	73000003 		r24, r0, r0
    1318:	722f7379 		r17, r15, r14
    131c:	746e6565 		r3, r14, r12
    1320:	0300682e 		r24, r0, r13
    1324:	68730000 		r3, r19, r0
    1328:	32313561 	addik	r17, r17, 13665
    132c:	0100682e 		r8, r0, r13
    1330:	68730000 		r3, r19, r0
    1334:	682e3161 		r1, r14, r6
    1338:	00000100 		r0, r0, r0
    133c:	69647473 		r11, r4, r14
    1340:	682e746e 		r1, r14, r14
    1344:	00000200 		r0, r0, r0
    1348:	69647473 		r11, r4, r14
    134c:	682e746e 		r1, r14, r14
    1350:	00000300 		r0, r0, r0
    1354:	2f737973 	rsubic	r27, r19, 31091
    1358:	74616566 		r3, r1, r12
    135c:	73657275 		r27, r5, r14
    1360:	0300682e 		r24, r0, r13
    1364:	6e5f0000 	get	r18, rfsl0
    1368:	696c7765 		r11, r12, r14
    136c:	65765f62 	bsefi	r11, r22, 29, 2
    1370:	6f697372 	tncget	r27, rfsl2
    1374:	00682e6e 		r3, r8, r5
    1378:	73000003 		r24, r0, r0
    137c:	5f2f7379 		r25, r15, r14
    1380:	73746e69 		r27, r20, r13
    1384:	682e7075 		r1, r14, r14
    1388:	00000300 		r0, r0, r0
    138c:	69727473 		r11, r18, r14
    1390:	682e676e 		r1, r14, r12
    1394:	00000300 		r0, r0, r0
    1398:	736e615f 		r27, r14, r12
    139c:	00682e69 		r3, r8, r5
    13a0:	6e000003 	get	r16, rfsl3
    13a4:	696c7765 		r11, r12, r14
    13a8:	00682e62 		r3, r8, r5
    13ac:	73000003 		r24, r0, r0
    13b0:	632f7379 	muli	r25, r15, 29561
    13b4:	69666e6f 		r11, r6, r13
    13b8:	00682e67 		r3, r8, r5
    13bc:	6d000003 	get	r8, rfsl3
    13c0:	69686361 		r11, r8, r12
    13c4:	692f656e 		r9, r15, r12
    13c8:	66656565 	bslli	r19, r5, 5
    13cc:	00682e70 		r3, r8, r5
    13d0:	6d000003 	get	r8, rfsl3
    13d4:	69686361 		r11, r8, r12
    13d8:	5f2f656e 		r25, r15, r12
    13dc:	65707974 	bsrli	r11, r16, 20
    13e0:	00682e73 		r3, r8, r5
    13e4:	73000003 		r24, r0, r0
    13e8:	632f7379 	muli	r25, r15, 29561
    13ec:	73666564 		r27, r6, r12
    13f0:	0300682e 		r24, r0, r13
    13f4:	79730000 		r11, r19, r0
    13f8:	74732f73 		r3, r19, r5
    13fc:	676e6972 	bsrli	r27, r14, 18
    1400:	0300682e 		r24, r0, r13
    1404:	6d680000 	get	r11, rfsl0
    1408:	682e6361 		r1, r14, r12
    140c:	00000100 		r0, r0, r0
    1410:	02050000 	add	r16, r5, r0
    1414:	0000919c 		r0, r0, r18
    1418:	02050022 		r16, r5, r0
    141c:	000091bc 		r0, r0, r18
    1420:	0205001e 		r16, r5, r0
    1424:	000091d8 		r0, r0, r18
    1428:	02050018 		r16, r5, r0
    142c:	000091f4 		r0, r0, r18
    1430:	02050018 		r16, r5, r0
    1434:	0000921c 		r0, r0, r18
    1438:	02050018 		r16, r5, r0
    143c:	00009244 		r0, r0, r18
    1440:	0205001a 		r16, r5, r0
    1444:	0000924c 		r0, r0, r18
    1448:	03040200 		r24, r4, r0
    144c:	02050018 		r16, r5, r0
    1450:	00009274 		r0, r0, r18
    1454:	02050018 		r16, r5, r0
    1458:	0000929c 		r0, r0, r18
    145c:	02050015 		r16, r5, r0
    1460:	000092a8 		r0, r0, r18
    1464:	01040200 		r8, r4, r0
    1468:	05000106 	neg	r8, r0
    146c:	0092b802 		r4, r18, r23
    1470:	04020000 	rsub	r0, r2, r0
    1474:	001d0600 		r0, r29, r0
    1478:	92c80205 		r22, r8, r0
    147c:	00180000 	add	r0, r24, r0
    1480:	92e40205 		r23, r4, r0
    1484:	00180000 	add	r0, r24, r0
    1488:	93000205 		r24, r0, r0
    148c:	00180000 	add	r0, r24, r0
    1490:	93140205 		r24, r20, r0
    1494:	001a0000 	add	r0, r26, r0
    1498:	93240205 		r25, r4, r0
    149c:	00180000 	add	r0, r24, r0
    14a0:	93400205 		r26, r0, r0
    14a4:	00180000 	add	r0, r24, r0
    14a8:	93580205 		r26, r24, r0
    14ac:	00180000 	add	r0, r24, r0
    14b0:	936c0205 		r27, r12, r0
    14b4:	00180000 	add	r0, r24, r0
    14b8:	93880205 		r28, r8, r0
    14bc:	00190000 	add	r0, r25, r0
    14c0:	93a80205 		r29, r8, r0
    14c4:	001f0000 	add	r0, r31, r0
    14c8:	93c40205 		r30, r4, r0
    14cc:	00180000 	add	r0, r24, r0
    14d0:	93e00205 		r31, r0, r0
    14d4:	00180000 	add	r0, r24, r0
    14d8:	93fc0205 		r31, r28, r0
    14dc:	00180000 	add	r0, r24, r0
    14e0:	94180205 		r0, r24, r0
    14e4:	001a0000 	add	r0, r26, r0
    14e8:	94200205 		r1, r0, r0
    14ec:	02000000 	add	r16, r0, r0
    14f0:	00180304 		r0, r24, r0
    14f4:	94480205 		r2, r8, r0
    14f8:	00180000 	add	r0, r24, r0
    14fc:	94700205 	msrset	r3, 517
    1500:	00150000 	add	r0, r21, r0
    1504:	947c0205 		r3, r28, r0
    1508:	02000000 	add	r16, r0, r0
    150c:	01060104 		r8, r6, r0
    1510:	8c020500 		r0, r2, r0
    1514:	00000094 		r0, r0, r0
    1518:	06000402 	neg	r16, r0
    151c:	0205001d 		r16, r5, r0
    1520:	0000949c 		r0, r0, r18
    1524:	02050018 		r16, r5, r0
    1528:	000094b8 		r0, r0, r18
    152c:	02050018 		r16, r5, r0
    1530:	000094d4 		r0, r0, r18
    1534:	02050018 		r16, r5, r0
    1538:	000094e8 		r0, r0, r18
    153c:	0205001a 		r16, r5, r0
    1540:	000094f8 		r0, r0, r18
    1544:	02050018 		r16, r5, r0
    1548:	00009514 		r0, r0, r18
    154c:	02050018 		r16, r5, r0
    1550:	0000952c 		r0, r0, r18
    1554:	0205001a 		r16, r5, r0
    1558:	00009540 		r0, r0, r18
    155c:	02050018 		r16, r5, r0
    1560:	0000955c 		r0, r0, r18
    1564:	f7010100 	shi	r24, r1, 256
    1568:	04000009 	neg	r0, r0
    156c:	0004c500 		r0, r4, r24
    1570:	01010100 		r8, r1, r0
    1574:	000df2f6 		r0, r13, r30
    1578:	01010101 		r8, r1, r0
    157c:	01000000 	add	r8, r0, r0
    1580:	2e010000 	rsubic	r16, r1, 0
    1584:	72732f2e 		r19, r19, r5
    1588:	682f0063 		r1, r15, r0
    158c:	2f656d6f 	rsubic	r27, r5, 28015
    1590:	616d6f74 	muli	r11, r13, 28532
    1594:	65442f6c 		r10, r4, r5
    1598:	6f746b73 	ncaget	r27, rfsl3
    159c:	61632f70 	muli	r11, r3, 12144
    15a0:	5f697463 		r27, r9, r14
    15a4:	2f62616c 	rsubic	r27, r2, 24940
    15a8:	544f5942 		r2, r15, r11
    15ac:	646f635f 	bsrai	r3, r15, 31
    15b0:	65502f65 		r10, r16, r5
    15b4:	726f6672 		r19, r15, r12
    15b8:	636e616d 	muli	r27, r14, 24941
    15bc:	6f632f65 	ecaget	r27, rfsl5
    15c0:	622d6564 	muli	r17, r13, 25956
    15c4:	646c6975 	bsrli	r3, r12, 21
    15c8:	756f792d 		r11, r15, r15
    15cc:	776f2d72 		r27, r15, r5
    15d0:	45542d6e 	bsll	r10, r20, r5
    15d4:	70612f45 		r3, r1, r5
    15d8:	6d2f3170 	tcget	r9, rfsl0
    15dc:	59422f62 		r10, r2, r5
    15e0:	625f544f 	muli	r18, r31, 21583
    15e4:	6d2f7073 	tncget	r9, rfsl3
    15e8:	6f726369 	ncget	r27, rfsl9
    15ec:	7a616c62 		r19, r1, r13
    15f0:	2f305f65 	rsubic	r25, r16, 24421
    15f4:	6c636e69 	necaget	r3, rfsl9
    15f8:	00656475 		r3, r5, r12
    15fc:	74706f2f 		r3, r16, r13
    1600:	6c69582f 	tnaget	r3, rfsl15
    1604:	2f786e69 	rsubic	r27, r24, 28265
    1608:	2f4b4453 	rsubic	r26, r11, 17491
    160c:	37313032 	rsubik	r25, r17, 12338
    1610:	672f342e 	bslli	r25, r15, 14
    1614:	6d2f756e 	tnecget	r9, rfsl14
    1618:	6f726369 	ncget	r27, rfsl9
    161c:	7a616c62 		r19, r1, r13
    1620:	696c2f65 		r11, r12, r5
    1624:	696c2f6e 		r11, r12, r5
    1628:	63672f62 	muli	r27, r7, 12130
    162c:	696d2f63 		r11, r13, r5
    1630:	626f7263 	muli	r19, r15, 29283
    1634:	657a616c 	bsrli	r11, r26, 12
    1638:	6c69782d 	tncaget	r3, rfsl13
    163c:	2d786e69 	rsubic	r11, r24, 28265
    1640:	2f666c65 	rsubic	r27, r6, 27749
    1644:	2e322e36 	rsubic	r17, r18, 11830
    1648:	6e692f30 	ecaget	r19, rfsl0
    164c:	64756c63 	bslli	r3, r21, 3
    1650:	6f2f0065 	get	r25, rfsl5
    1654:	582f7470 		r1, r15, r14
    1658:	6e696c69 	necaget	r19, rfsl9
    165c:	44532f78 		r2, r19, r5
    1660:	30322f4b 	addik	r1, r18, 12107
    1664:	342e3731 	rsubik	r1, r14, 14129
    1668:	756e672f 		r11, r14, r12
    166c:	63696d2f 	muli	r27, r9, 27951
    1670:	6c626f72 	necaget	r3, rfsl2
    1674:	2f657a61 	rsubic	r27, r5, 31329
    1678:	2f6e696c 	rsubic	r27, r14, 26988
    167c:	7263696d 		r19, r3, r13
    1680:	616c626f 	muli	r11, r12, 25199
    1684:	782d657a 		r1, r13, r12
    1688:	6e696c69 	necaget	r19, rfsl9
    168c:	6c652d78 	ecaget	r3, rfsl8
    1690:	6e692f66 	ecaget	r19, rfsl6
    1694:	64756c63 	bslli	r3, r21, 3
    1698:	6f2f0065 	get	r25, rfsl5
    169c:	582f7470 		r1, r15, r14
    16a0:	6e696c69 	necaget	r19, rfsl9
    16a4:	44532f78 		r2, r19, r5
    16a8:	30322f4b 	addik	r1, r18, 12107
    16ac:	342e3731 	rsubik	r1, r14, 14129
    16b0:	756e672f 		r11, r14, r12
    16b4:	63696d2f 	muli	r27, r9, 27951
    16b8:	6c626f72 	necaget	r3, rfsl2
    16bc:	2f657a61 	rsubic	r27, r5, 31329
    16c0:	2f6e696c 	rsubic	r27, r14, 26988
    16c4:	7263696d 		r19, r3, r13
    16c8:	616c626f 	muli	r11, r12, 25199
    16cc:	782d657a 		r1, r13, r12
    16d0:	6e696c69 	necaget	r19, rfsl9
    16d4:	6c652d78 	ecaget	r3, rfsl8
    16d8:	6e692f66 	ecaget	r19, rfsl6
    16dc:	64756c63 	bslli	r3, r21, 3
    16e0:	616d2f65 	muli	r11, r13, 12133
    16e4:	6e696863 	ncaget	r19, rfsl3
    16e8:	6f2f0065 	get	r25, rfsl5
    16ec:	582f7470 		r1, r15, r14
    16f0:	6e696c69 	necaget	r19, rfsl9
    16f4:	44532f78 		r2, r19, r5
    16f8:	30322f4b 	addik	r1, r18, 12107
    16fc:	342e3731 	rsubik	r1, r14, 14129
    1700:	756e672f 		r11, r14, r12
    1704:	63696d2f 	muli	r27, r9, 27951
    1708:	6c626f72 	necaget	r3, rfsl2
    170c:	2f657a61 	rsubic	r27, r5, 31329
    1710:	2f6e696c 	rsubic	r27, r14, 26988
    1714:	7263696d 		r19, r3, r13
    1718:	616c626f 	muli	r11, r12, 25199
    171c:	782d657a 		r1, r13, r12
    1720:	6e696c69 	necaget	r19, rfsl9
    1724:	6c652d78 	ecaget	r3, rfsl8
    1728:	6e692f66 	ecaget	r19, rfsl6
    172c:	64756c63 	bslli	r3, r21, 3
    1730:	79732f65 		r11, r19, r5
    1734:	6d000073 	get	r8, rfsl3
    1738:	2e6e6961 	rsubic	r19, r14, 26977
    173c:	00010063 		r0, r1, r0
    1740:	63616d00 	muli	r27, r1, 27904
    1744:	656e6968 	bsrli	r11, r14, 8
    1748:	65645f2f 	bsefi	r11, r4, 28, 15
    174c:	6c756166 	ncget	r3, rfsl6
    1750:	79745f74 		r11, r20, r11
    1754:	2e736570 	rsubic	r19, r19, 25968
    1758:	00040068 		r0, r4, r0
    175c:	73797300 		r27, r25, r14
    1760:	636f6c2f 	muli	r27, r15, 27695
    1764:	00682e6b 		r3, r8, r5
    1768:	73000004 		r24, r0, r0
    176c:	5f2f7379 		r25, r15, r14
    1770:	65707974 	bsrli	r11, r16, 20
    1774:	00682e73 		r3, r8, r5
    1778:	73000004 		r24, r0, r0
    177c:	65646474 	bslli	r11, r4, 20
    1780:	00682e66 		r3, r8, r5
    1784:	73000003 		r24, r0, r0
    1788:	722f7379 		r17, r15, r14
    178c:	746e6565 		r3, r14, r12
    1790:	0400682e 	neg	r0, r0
    1794:	79730000 		r11, r19, r0
    1798:	735f2f73 		r26, r31, r5
    179c:	6e696474 	necget	r19, rfsl4
    17a0:	00682e74 		r3, r8, r5
    17a4:	78000004 		r0, r0, r0
    17a8:	745f6c69 		r2, r31, r13
    17ac:	73657079 		r27, r5, r14
    17b0:	0200682e 		r16, r0, r13
    17b4:	69780000 		r11, r24, r0
    17b8:	73615f6c 		r27, r1, r11
    17bc:	74726573 		r3, r18, r12
    17c0:	0200682e 		r16, r0, r13
    17c4:	74630000 		r3, r3, r0
    17c8:	2e657079 	rsubic	r19, r5, 28793
    17cc:	00040068 		r0, r4, r0
    17d0:	6e697800 	tncaget	r19, rfsl0
    17d4:	6c5f6374 	ncget	r2, rfsl4
    17d8:	0200682e 		r16, r0, r13
    17dc:	69780000 		r11, r24, r0
    17e0:	2e63746e 	rsubic	r19, r3, 29806
    17e4:	00020068 		r0, r2, r0
    17e8:	6e6f6300 	ncget	r19, rfsl0
    17ec:	6e617473 	tnecget	r19, rfsl3
    17f0:	682e7374 		r1, r14, r14
    17f4:	00000100 		r0, r0, r0
    17f8:	2e736561 	rsubic	r19, r19, 25953
    17fc:	00010068 		r0, r1, r0
    1800:	6d747800 	tncaget	r11, rfsl0
    1804:	72746372 		r19, r20, r12
    1808:	682e6c5f 		r1, r14, r13
    180c:	00000200 		r0, r0, r0
    1810:	726d7478 		r19, r13, r14
    1814:	2e727463 	rsubic	r19, r18, 29795
    1818:	00020068 		r0, r2, r0
    181c:	64747300 	bsrai	r3, r20, 0
    1820:	682e6f69 		r1, r14, r13
    1824:	00000400 		r0, r0, r0
    1828:	736e615f 		r27, r14, r12
    182c:	00682e69 		r3, r8, r5
    1830:	6e000004 	get	r16, rfsl4
    1834:	696c7765 		r11, r12, r14
    1838:	00682e62 		r3, r8, r5
    183c:	5f000004 		r24, r0, r0
    1840:	6c77656e 	necget	r3, rfsl14
    1844:	765f6269 		r18, r31, r12
    1848:	69737265 		r11, r19, r14
    184c:	682e6e6f 		r1, r14, r13
    1850:	00000400 		r0, r0, r0
    1854:	2f737973 	rsubic	r27, r19, 31091
    1858:	666e6f63 	bsefi	r19, r14, 29, 3
    185c:	682e6769 		r1, r14, r12
    1860:	00000400 		r0, r0, r0
    1864:	6863616d 		r3, r3, r12
    1868:	2f656e69 	rsubic	r27, r5, 28265
    186c:	65656569 	bslli	r11, r5, 9
    1870:	682e7066 		r1, r14, r14
    1874:	00000400 		r0, r0, r0
    1878:	2f737973 	rsubic	r27, r19, 31091
    187c:	74616566 		r3, r1, r12
    1880:	73657275 		r27, r5, r14
    1884:	0400682e 	neg	r0, r0
    1888:	79730000 		r11, r19, r0
    188c:	64632f73 		r3, r3, r5
    1890:	2e736665 	rsubic	r19, r19, 26213
    1894:	00040068 		r0, r4, r0
    1898:	64747300 	bsrai	r3, r20, 0
    189c:	2e677261 	rsubic	r19, r7, 29281
    18a0:	00030068 		r0, r3, r0
    18a4:	63616d00 	muli	r27, r1, 27904
    18a8:	656e6968 	bsrli	r11, r14, 8
    18ac:	79745f2f 		r11, r20, r11
    18b0:	2e736570 	rsubic	r19, r19, 25968
    18b4:	00040068 		r0, r4, r0
    18b8:	73797300 		r27, r25, r14
    18bc:	7079742f 		r3, r25, r14
    18c0:	682e7365 		r1, r14, r14
    18c4:	00000400 		r0, r0, r0
    18c8:	6863616d 		r3, r3, r12
    18cc:	2f656e69 	rsubic	r27, r5, 28265
    18d0:	65707974 	bsrli	r11, r16, 20
    18d4:	00682e73 		r3, r8, r5
    18d8:	73000004 		r24, r0, r0
    18dc:	732f7379 		r25, r15, r14
    18e0:	63656c65 	muli	r27, r5, 27749
    18e4:	00682e74 		r3, r8, r5
    18e8:	73000004 		r24, r0, r0
    18ec:	5f2f7379 		r25, r15, r14
    18f0:	73676973 		r27, r7, r13
    18f4:	682e7465 		r1, r14, r14
    18f8:	00000400 		r0, r0, r0
    18fc:	2f737973 	rsubic	r27, r19, 31091
    1900:	6d69745f 	tnecget	r11, rfsl15
    1904:	6c617665 	tnecget	r3, rfsl5
    1908:	0400682e 	neg	r0, r0
    190c:	79730000 		r11, r19, r0
    1910:	69742f73 		r11, r20, r5
    1914:	7073656d 		r3, r19, r12
    1918:	682e6365 		r1, r14, r12
    191c:	00000400 		r0, r0, r0
    1920:	2f737973 	rsubic	r27, r19, 31091
    1924:	6d69745f 	tnecget	r11, rfsl15
    1928:	65707365 	bsrai	r11, r16, 5
    192c:	00682e63 		r3, r8, r5
    1930:	73000004 		r24, r0, r0
    1934:	732f7379 		r25, r15, r14
    1938:	6f696474 	necget	r27, rfsl4
    193c:	0400682e 	neg	r0, r0
    1940:	6c700000 	get	r3, rfsl0
    1944:	6f667461 	tnecget	r27, rfsl1
    1948:	682e6d72 		r1, r14, r13
    194c:	00000100 		r0, r0, r0
    1950:	74616c70 		r3, r1, r13
    1954:	6d726f66 	necaget	r11, rfsl6
    1958:	6e6f635f 	ncget	r19, rfsl15
    195c:	2e676966 	rsubic	r19, r7, 26982
    1960:	00010068 		r0, r1, r0
    1964:	61707800 	muli	r11, r16, 30720
    1968:	656d6172 	bsrli	r11, r13, 18
    196c:	73726574 		r27, r18, r12
    1970:	0200682e 		r16, r0, r13
    1974:	69780000 		r11, r24, r0
    1978:	78655f6c 		r3, r5, r11
    197c:	74706563 		r3, r16, r12
    1980:	2e6e6f69 	rsubic	r19, r14, 28521
    1984:	00020068 		r0, r2, r0
    1988:	64747300 	bsrai	r3, r20, 0
    198c:	2e746e69 	rsubic	r19, r20, 28265
    1990:	00030068 		r0, r3, r0
    1994:	64747300 	bsrai	r3, r20, 0
    1998:	2e746e69 	rsubic	r19, r20, 28265
    199c:	00040068 		r0, r4, r0
    19a0:	73797300 		r27, r25, r14
    19a4:	6e695f2f 	tneaget	r19, rfsl15
    19a8:	70757374 		r3, r21, r14
    19ac:	0400682e 	neg	r0, r0
    19b0:	73780000 		r27, r24, r0
    19b4:	75746174 		r11, r20, r12
    19b8:	00682e73 		r3, r8, r5
    19bc:	75000002 		r8, r0, r0
    19c0:	2e6c6974 	rsubic	r19, r12, 26996
    19c4:	00010068 		r0, r1, r0
    19c8:	6c697800 	tncaget	r3, rfsl0
    19cc:	2e6f695f 	rsubic	r19, r15, 26975
    19d0:	00020068 		r0, r2, r0
    19d4:	6c697800 	tncaget	r3, rfsl0
    19d8:	6972705f 		r11, r18, r14
    19dc:	2e66746e 	rsubic	r19, r6, 29806
    19e0:	00020068 		r0, r2, r0
    19e4:	72747300 		r19, r20, r14
    19e8:	2e676e69 	rsubic	r19, r7, 28265
    19ec:	00040068 		r0, r4, r0
    19f0:	73797300 		r27, r25, r14
    19f4:	7274732f 		r19, r20, r14
    19f8:	2e676e69 	rsubic	r19, r7, 28265
    19fc:	00040068 		r0, r4, r0
    1a00:	5f626d00 		r27, r2, r13
    1a04:	65746e69 	bsefi	r11, r20, 25, 9
    1a08:	63616672 	muli	r27, r1, 26226
    1a0c:	00682e65 		r3, r8, r5
    1a10:	73000002 		r24, r0, r0
    1a14:	7065656c 		r3, r5, r12
    1a18:	0200682e 		r16, r0, r13
    1a1c:	6c620000 	get	r3, rfsl0
    1a20:	32656b61 	addik	r19, r5, 27489
    1a24:	00682e73 		r3, r8, r5
    1a28:	68000001 		r0, r0, r0
    1a2c:	2e63616d 	rsubic	r19, r3, 24941
    1a30:	00010068 		r0, r1, r0
    1a34:	05000000 	rsub	r8, r0, r0
    1a38:	004a9002 		r2, r10, r18
    1a3c:	05004500 	neg	r8, r0
    1a40:	004a9c02 		r2, r10, r19
    1a44:	05001800 	rsub	r8, r0, r3
    1a48:	004aa802 		r2, r10, r21
    1a4c:	05001800 	rsub	r8, r0, r3
    1a50:	004ac002 		r2, r10, r24
    1a54:	05001b00 	neg	r8, r0
    1a58:	004ad002 		r2, r10, r26
    1a5c:	05001800 	rsub	r8, r0, r3
    1a60:	004ae402 		r2, r10, r28
    1a64:	05001800 	rsub	r8, r0, r3
    1a68:	004b0002 		r2, r11, r0
    1a6c:	05001a00 	neg	r8, r0
    1a70:	004b1002 		r2, r11, r2
    1a74:	05001800 	rsub	r8, r0, r3
    1a78:	004b4002 		r2, r11, r8
    1a7c:	05001800 	rsub	r8, r0, r3
    1a80:	004b5c02 		r2, r11, r11
    1a84:	05001a00 	neg	r8, r0
    1a88:	004b6c02 		r2, r11, r13
    1a8c:	05001800 	rsub	r8, r0, r3
    1a90:	004b7002 		r2, r11, r14
    1a94:	05001900 	neg	r8, r0
    1a98:	004b8802 		r2, r11, r17
    1a9c:	05001800 	rsub	r8, r0, r3
    1aa0:	004ba002 		r2, r11, r20
    1aa4:	05001900 	neg	r8, r0
    1aa8:	004bbc02 		r2, r11, r23
    1aac:	05001900 	neg	r8, r0
    1ab0:	004bc402 		r2, r11, r24
    1ab4:	05001a00 	neg	r8, r0
    1ab8:	004be002 		r2, r11, r28
    1abc:	05001900 	neg	r8, r0
    1ac0:	004be802 		r2, r11, r29
    1ac4:	05001900 	neg	r8, r0
    1ac8:	004c0002 		r2, r12, r0
    1acc:	05001800 	rsub	r8, r0, r3
    1ad0:	004c1c02 		r2, r12, r3
    1ad4:	05001a00 	neg	r8, r0
    1ad8:	004c2c02 		r2, r12, r5
    1adc:	05001800 	rsub	r8, r0, r3
    1ae0:	004cec02 		r2, r12, r29
    1ae4:	05001800 	rsub	r8, r0, r3
    1ae8:	004dac02 		r2, r13, r21
    1aec:	05001a00 	neg	r8, r0
    1af0:	004e8c02 		r2, r14, r17
    1af4:	05001900 	neg	r8, r0
    1af8:	004eac02 		r2, r14, r21
    1afc:	05001800 	rsub	r8, r0, r3
    1b00:	004f8402 		r2, r15, r16
    1b04:	05001900 	neg	r8, r0
    1b08:	004f9c02 		r2, r15, r19
    1b0c:	05001900 	neg	r8, r0
    1b10:	004fb002 		r2, r15, r22
    1b14:	05001800 	rsub	r8, r0, r3
    1b18:	004fb402 		r2, r15, r22
    1b1c:	05001a00 	neg	r8, r0
    1b20:	004fd002 		r2, r15, r26
    1b24:	05001800 	rsub	r8, r0, r3
    1b28:	00509402 		r2, r16, r18
    1b2c:	05001900 	neg	r8, r0
    1b30:	0050b002 		r2, r16, r22
    1b34:	05001900 	neg	r8, r0
    1b38:	0050e402 		r2, r16, r28
    1b3c:	05001800 	rsub	r8, r0, r3
    1b40:	00512402 		r2, r17, r4
    1b44:	05001800 	rsub	r8, r0, r3
    1b48:	00514802 		r2, r17, r9
    1b4c:	05001800 	rsub	r8, r0, r3
    1b50:	00516002 		r2, r17, r12
    1b54:	05001a00 	neg	r8, r0
    1b58:	00517002 		r2, r17, r14
    1b5c:	05001c00 	neg	r8, r0
    1b60:	00517802 		r2, r17, r15
    1b64:	05001900 	neg	r8, r0
    1b68:	00519002 		r2, r17, r18
    1b6c:	05001800 	rsub	r8, r0, r3
    1b70:	00519802 		r2, r17, r19
    1b74:	05001800 	rsub	r8, r0, r3
    1b78:	0051ac02 		r2, r17, r21
    1b7c:	05001a00 	neg	r8, r0
    1b80:	0051c402 		r2, r17, r24
    1b84:	05001900 	neg	r8, r0
    1b88:	0051dc02 		r2, r17, r27
    1b8c:	05001800 	rsub	r8, r0, r3
    1b90:	0051f002 		r2, r17, r30
    1b94:	05001b00 	neg	r8, r0
    1b98:	00520402 		r2, r18, r0
    1b9c:	05001800 	rsub	r8, r0, r3
    1ba0:	00520c02 		r2, r18, r1
    1ba4:	05001800 	rsub	r8, r0, r3
    1ba8:	00522002 		r2, r18, r4
    1bac:	05001a00 	neg	r8, r0
    1bb0:	00523802 		r2, r18, r7
    1bb4:	05001800 	rsub	r8, r0, r3
    1bb8:	00532402 		r2, r19, r4
    1bbc:	05001800 	rsub	r8, r0, r3
    1bc0:	00533802 		r2, r19, r7
    1bc4:	05001900 	neg	r8, r0
    1bc8:	00535402 		r2, r19, r10
    1bcc:	05001a00 	neg	r8, r0
    1bd0:	00536402 		r2, r19, r12
    1bd4:	05001800 	rsub	r8, r0, r3
    1bd8:	00537402 		r2, r19, r14
    1bdc:	05001900 	neg	r8, r0
    1be0:	00538802 		r2, r19, r17
    1be4:	05001800 	rsub	r8, r0, r3
    1be8:	00538c02 		r2, r19, r17
    1bec:	05001900 	neg	r8, r0
    1bf0:	0053a002 		r2, r19, r20
    1bf4:	05001900 	neg	r8, r0
    1bf8:	0053ac02 		r2, r19, r21
    1bfc:	05001900 	neg	r8, r0
    1c00:	0053c002 		r2, r19, r24
    1c04:	05001800 	rsub	r8, r0, r3
    1c08:	0053d802 		r2, r19, r27
    1c0c:	05001a00 	neg	r8, r0
    1c10:	0053e802 		r2, r19, r29
    1c14:	05001d00 	neg	r8, r0
    1c18:	0053fc02 		r2, r19, r31
    1c1c:	05001800 	rsub	r8, r0, r3
    1c20:	00540802 		r2, r20, r1
    1c24:	05001800 	rsub	r8, r0, r3
    1c28:	00542402 		r2, r20, r4
    1c2c:	05001a00 	neg	r8, r0
    1c30:	00543402 		r2, r20, r6
    1c34:	05001c00 	neg	r8, r0
    1c38:	00543c02 		r2, r20, r7
    1c3c:	05001900 	neg	r8, r0
    1c40:	00545402 		r2, r20, r10
    1c44:	05001800 	rsub	r8, r0, r3
    1c48:	00545c02 		r2, r20, r11
    1c4c:	05001800 	rsub	r8, r0, r3
    1c50:	00547002 		r2, r20, r14
    1c54:	05001a00 	neg	r8, r0
    1c58:	00548802 		r2, r20, r17
    1c5c:	05001900 	neg	r8, r0
    1c60:	0054a002 		r2, r20, r20
    1c64:	05001800 	rsub	r8, r0, r3
    1c68:	0054b402 		r2, r20, r22
    1c6c:	05001a00 	neg	r8, r0
    1c70:	0054cc02 		r2, r20, r25
    1c74:	05001800 	rsub	r8, r0, r3
    1c78:	0054e802 		r2, r20, r29
    1c7c:	05001800 	rsub	r8, r0, r3
    1c80:	00550402 		r2, r21, r0
    1c84:	05001a00 	neg	r8, r0
    1c88:	00551c02 		r2, r21, r3
    1c8c:	05001800 	rsub	r8, r0, r3
    1c90:	00554002 		r2, r21, r8
    1c94:	05001800 	rsub	r8, r0, r3
    1c98:	00555402 		r2, r21, r10
    1c9c:	05001900 	neg	r8, r0
    1ca0:	00557002 		r2, r21, r14
    1ca4:	05001a00 	neg	r8, r0
    1ca8:	00558002 		r2, r21, r16
    1cac:	05001800 	rsub	r8, r0, r3
    1cb0:	00561c02 		r2, r22, r3
    1cb4:	05001900 	neg	r8, r0
    1cb8:	00562402 		r2, r22, r4
    1cbc:	05001900 	neg	r8, r0
    1cc0:	00563c02 		r2, r22, r7
    1cc4:	05001a00 	neg	r8, r0
    1cc8:	00564002 		r2, r22, r8
    1ccc:	05001800 	rsub	r8, r0, r3
    1cd0:	00565402 		r2, r22, r10
    1cd4:	05001a00 	neg	r8, r0
    1cd8:	00566c02 		r2, r22, r13
    1cdc:	05001800 	rsub	r8, r0, r3
    1ce0:	00567402 		r2, r22, r14
    1ce4:	05001a00 	neg	r8, r0
    1ce8:	00568c02 		r2, r22, r17
    1cec:	05001900 	neg	r8, r0
    1cf0:	00581402 		r2, r24, r2
    1cf4:	05001900 	neg	r8, r0
    1cf8:	00583002 		r2, r24, r6
    1cfc:	05001900 	neg	r8, r0
    1d00:	00584002 		r2, r24, r8
    1d04:	05001900 	neg	r8, r0
    1d08:	0059d002 		r2, r25, r26
    1d0c:	05000d00 	neg	r8, r0
    1d10:	0059d402 		r2, r25, r26
    1d14:	05002200 	neg	r8, r0
    1d18:	0059ec02 		r2, r25, r29
    1d1c:	05001900 	neg	r8, r0
    1d20:	0059fc02 		r2, r25, r31
    1d24:	05001800 	rsub	r8, r0, r3
    1d28:	005a0402 		r2, r26, r0
    1d2c:	05001a00 	neg	r8, r0
    1d30:	005a1c02 		r2, r26, r3
    1d34:	05001900 	neg	r8, r0
    1d38:	005ba402 		r2, r27, r20
    1d3c:	05001900 	neg	r8, r0
    1d40:	005bc002 		r2, r27, r24
    1d44:	05001900 	neg	r8, r0
    1d48:	005d5002 		r2, r29, r10
    1d4c:	05000f00 	neg	r8, r0
    1d50:	005d5402 		r2, r29, r10
    1d54:	05002000 	rsub	r8, r0, r4
    1d58:	005d6c02 		r2, r29, r13
    1d5c:	05001a00 	neg	r8, r0
    1d60:	005d7c02 		r2, r29, r15
    1d64:	05001a00 	neg	r8, r0
    1d68:	005e4402 		r2, r30, r8
    1d6c:	05001800 	rsub	r8, r0, r3
    1d70:	005e6402 		r2, r30, r12
    1d74:	05001800 	rsub	r8, r0, r3
    1d78:	005e7c02 		r2, r30, r15
    1d7c:	05001900 	neg	r8, r0
    1d80:	005e9c02 		r2, r30, r19
    1d84:	05001800 	rsub	r8, r0, r3
    1d88:	005eb802 		r2, r30, r23
    1d8c:	05001800 	rsub	r8, r0, r3
    1d90:	00604802 		r3, r0, r9
    1d94:	05001900 	neg	r8, r0
    1d98:	00606802 		r3, r0, r13
    1d9c:	05001800 	rsub	r8, r0, r3
    1da0:	00608402 		r3, r0, r16
    1da4:	05001800 	rsub	r8, r0, r3
    1da8:	0060ac02 		r3, r0, r21
    1dac:	05001800 	rsub	r8, r0, r3
    1db0:	00623c02 		r3, r2, r7
    1db4:	05001900 	neg	r8, r0
    1db8:	00625802 		r3, r2, r11
    1dbc:	05001800 	rsub	r8, r0, r3
    1dc0:	00627402 		r3, r2, r14
    1dc4:	05001900 	neg	r8, r0
    1dc8:	00628402 		r3, r2, r16
    1dcc:	05001800 	rsub	r8, r0, r3
    1dd0:	00628c02 		r3, r2, r17
    1dd4:	05001800 	rsub	r8, r0, r3
    1dd8:	00629802 		r3, r2, r19
    1ddc:	05001800 	rsub	r8, r0, r3
    1de0:	0062a002 		r3, r2, r20
    1de4:	05001800 	rsub	r8, r0, r3
    1de8:	0062bc02 		r3, r2, r23
    1dec:	05001900 	neg	r8, r0
    1df0:	0062cc02 		r3, r2, r25
    1df4:	05001800 	rsub	r8, r0, r3
    1df8:	0062e402 		r3, r2, r28
    1dfc:	05001800 	rsub	r8, r0, r3
    1e00:	00630002 		r3, r3, r0
    1e04:	05001900 	neg	r8, r0
    1e08:	00631402 		r3, r3, r2
    1e0c:	05001b00 	neg	r8, r0
    1e10:	00633002 		r3, r3, r6
    1e14:	05001800 	rsub	r8, r0, r3
    1e18:	00641802 		r3, r4, r3
    1e1c:	05001900 	neg	r8, r0
    1e20:	0064c802 		r3, r4, r25
    1e24:	05001800 	rsub	r8, r0, r3
    1e28:	0064e002 		r3, r4, r28
    1e2c:	05001a00 	neg	r8, r0
    1e30:	0064f002 		r3, r4, r30
    1e34:	05001900 	neg	r8, r0
    1e38:	0064f402 		r3, r4, r30
    1e3c:	05001800 	rsub	r8, r0, r3
    1e40:	0064fc02 		r3, r4, r31
    1e44:	05001800 	rsub	r8, r0, r3
    1e48:	00651002 		r3, r5, r2
    1e4c:	05001800 	rsub	r8, r0, r3
    1e50:	00651c02 		r3, r5, r3
    1e54:	05001b00 	neg	r8, r0
    1e58:	00653802 		r3, r5, r7
    1e5c:	05001900 	neg	r8, r0
    1e60:	00654002 		r3, r5, r8
    1e64:	05001900 	neg	r8, r0
    1e68:	00654802 		r3, r5, r9
    1e6c:	05001b00 	neg	r8, r0
    1e70:	00656402 		r3, r5, r12
    1e74:	05001900 	neg	r8, r0
    1e78:	00656c02 		r3, r5, r13
    1e7c:	05001900 	neg	r8, r0
    1e80:	00657402 		r3, r5, r14
    1e84:	05001a00 	neg	r8, r0
    1e88:	00658002 		r3, r5, r16
    1e8c:	05001a00 	neg	r8, r0
    1e90:	0065a002 		r3, r5, r20
    1e94:	05001d00 	neg	r8, r0
    1e98:	0065ac02 		r3, r5, r21
    1e9c:	05001900 	neg	r8, r0
    1ea0:	0065b402 		r3, r5, r22
    1ea4:	05001800 	rsub	r8, r0, r3
    1ea8:	0065c402 		r3, r5, r24
    1eac:	05001b00 	neg	r8, r0
    1eb0:	0065fc02 		r3, r5, r31
    1eb4:	05001a00 	neg	r8, r0
    1eb8:	00660402 		r3, r6, r0
    1ebc:	05001800 	rsub	r8, r0, r3
    1ec0:	00661002 		r3, r6, r2
    1ec4:	05001800 	rsub	r8, r0, r3
    1ec8:	00661402 		r3, r6, r2
    1ecc:	05001900 	neg	r8, r0
    1ed0:	00661c02 		r3, r6, r3
    1ed4:	05001800 	rsub	r8, r0, r3
    1ed8:	00662002 		r3, r6, r4
    1edc:	05001900 	neg	r8, r0
    1ee0:	00662802 		r3, r6, r5
    1ee4:	05001800 	rsub	r8, r0, r3
    1ee8:	00663002 		r3, r6, r6
    1eec:	05001800 	rsub	r8, r0, r3
    1ef0:	00663c02 		r3, r6, r7
    1ef4:	05001800 	rsub	r8, r0, r3
    1ef8:	00664402 		r3, r6, r8
    1efc:	05001800 	rsub	r8, r0, r3
    1f00:	00664c02 		r3, r6, r9
    1f04:	05001800 	rsub	r8, r0, r3
    1f08:	00665002 		r3, r6, r10
    1f0c:	05001900 	neg	r8, r0
    1f10:	00665802 		r3, r6, r11
    1f14:	05001800 	rsub	r8, r0, r3
    1f18:	00666002 		r3, r6, r12
    1f1c:	05001800 	rsub	r8, r0, r3
    1f20:	00666402 		r3, r6, r12
    1f24:	05001900 	neg	r8, r0
    1f28:	00666c02 		r3, r6, r13
    1f2c:	05001800 	rsub	r8, r0, r3
    1f30:	00667002 		r3, r6, r14
    1f34:	05001900 	neg	r8, r0
    1f38:	00667402 		r3, r6, r14
    1f3c:	05001900 	neg	r8, r0
    1f40:	00668402 		r3, r6, r16
    1f44:	05001800 	rsub	r8, r0, r3
    1f48:	00669002 		r3, r6, r18
    1f4c:	015e0300 		r10, r30, r0
    1f50:	94020500 		r0, r2, r0
    1f54:	3f000066 	rsubikc	r24, r0, 102
    1f58:	ac020500 	andni	r0, r2, 1280
    1f5c:	00000066 		r0, r0, r0
    1f60:	036f0101 		r27, r15, r0
    1f64:	00040000 	add	r0, r4, r0
    1f68:	000002d7 		r0, r0, r0
    1f6c:	f6010101 	shi	r16, r1, 257
    1f70:	01000df2 		r8, r0, r1
    1f74:	00010101 		r0, r1, r0
    1f78:	00010000 	add	r0, r1, r0
    1f7c:	2e2e0100 	rsubic	r17, r14, 256
    1f80:	6372732f 	muli	r27, r18, 29487
    1f84:	6f682f00 	ecaget	r27, rfsl0
    1f88:	742f656d 		r1, r15, r12
    1f8c:	6c616d6f 	necaget	r3, rfsl15
    1f90:	7365442f 		r27, r5, r8
    1f94:	706f746b 		r3, r15, r14
    1f98:	6361632f 	muli	r27, r1, 25391
    1f9c:	6c5f6974 	ncaget	r2, rfsl4
    1fa0:	422f6261 		r17, r15, r12
    1fa4:	5f544f59 		r26, r20, r9
    1fa8:	65646f63 	bsefi	r11, r4, 29, 3
    1fac:	7265502f 		r19, r5, r10
    1fb0:	6d726f66 	necaget	r11, rfsl6
    1fb4:	65636e61 	bsefi	r11, r3, 25, 1
    1fb8:	646f632f 	bsrai	r3, r15, 15
    1fbc:	75622d65 		r11, r2, r5
    1fc0:	2d646c69 	rsubic	r11, r4, 27753
    1fc4:	72756f79 		r19, r21, r13
    1fc8:	6e776f2d 	necaget	r19, rfsl13
    1fcc:	4545542d 	bsll	r10, r5, r10
    1fd0:	7070612f 		r3, r16, r12
    1fd4:	626d2f31 	muli	r19, r13, 12081
    1fd8:	4f59422f 	negetd	r26, r8
    1fdc:	73625f54 		r27, r2, r11
    1fe0:	696d2f70 		r11, r13, r5
    1fe4:	626f7263 	muli	r19, r15, 29283
    1fe8:	657a616c 	bsrli	r11, r26, 12
    1fec:	692f305f 		r9, r15, r6
    1ff0:	756c636e 		r11, r12, r12
    1ff4:	2f006564 	rsubic	r24, r0, 25956
    1ff8:	2f74706f 	rsubic	r27, r20, 28783
    1ffc:	696c6958 		r11, r12, r13
    2000:	532f786e 		r25, r15, r15
    2004:	322f4b44 	addik	r17, r15, 19268
    2008:	2e373130 	rsubic	r17, r23, 12592
    200c:	6e672f34 	ecaget	r19, rfsl4
    2010:	696d2f75 		r11, r13, r5
    2014:	626f7263 	muli	r19, r15, 29283
    2018:	657a616c 	bsrli	r11, r26, 12
    201c:	6e696c2f 	necaget	r19, rfsl15
    2020:	62696c2f 	muli	r19, r9, 27695
    2024:	6363672f 	muli	r27, r3, 26415
    2028:	63696d2f 	muli	r27, r9, 27951
    202c:	6c626f72 	necaget	r3, rfsl2
    2030:	2d657a61 	rsubic	r11, r5, 31329
    2034:	696c6978 		r11, r12, r13
    2038:	652d786e 	bsrli	r9, r13, 14
    203c:	362f666c 	rsubik	r17, r15, 26220
    2040:	302e322e 	addik	r1, r14, 12846
    2044:	636e692f 	muli	r27, r14, 26927
    2048:	6564756c 	bslli	r11, r4, 12
    204c:	706f2f00 		r3, r15, r5
    2050:	69582f74 		r10, r24, r5
    2054:	786e696c 		r3, r14, r13
    2058:	4b44532f 		r26, r4, r10
    205c:	3130322f 	addik	r9, r16, 12847
    2060:	2f342e37 	rsubic	r25, r20, 11831
    2064:	2f756e67 	rsubic	r27, r21, 28263
    2068:	7263696d 		r19, r3, r13
    206c:	616c626f 	muli	r11, r12, 25199
    2070:	6c2f657a 	necget	r1, rfsl10
    2074:	6d2f6e69 	necaget	r9, rfsl9
    2078:	6f726369 	ncget	r27, rfsl9
    207c:	7a616c62 		r19, r1, r13
    2080:	69782d65 		r11, r24, r5
    2084:	786e696c 		r3, r14, r13
    2088:	666c652d 	bslli	r19, r12, 13
    208c:	636e692f 	muli	r27, r14, 26927
    2090:	6564756c 	bslli	r11, r4, 12
    2094:	706f2f00 		r3, r15, r5
    2098:	69582f74 		r10, r24, r5
    209c:	786e696c 		r3, r14, r13
    20a0:	4b44532f 		r26, r4, r10
    20a4:	3130322f 	addik	r9, r16, 12847
    20a8:	2f342e37 	rsubic	r25, r20, 11831
    20ac:	2f756e67 	rsubic	r27, r21, 28263
    20b0:	7263696d 		r19, r3, r13
    20b4:	616c626f 	muli	r11, r12, 25199
    20b8:	6c2f657a 	necget	r1, rfsl10
    20bc:	6d2f6e69 	necaget	r9, rfsl9
    20c0:	6f726369 	ncget	r27, rfsl9
    20c4:	7a616c62 		r19, r1, r13
    20c8:	69782d65 		r11, r24, r5
    20cc:	786e696c 		r3, r14, r13
    20d0:	666c652d 	bslli	r19, r12, 13
    20d4:	636e692f 	muli	r27, r14, 26927
    20d8:	6564756c 	bslli	r11, r4, 12
    20dc:	63616d2f 	muli	r27, r1, 27951
    20e0:	656e6968 	bsrli	r11, r14, 8
    20e4:	706f2f00 		r3, r15, r5
    20e8:	69582f74 		r10, r24, r5
    20ec:	786e696c 		r3, r14, r13
    20f0:	4b44532f 		r26, r4, r10
    20f4:	3130322f 	addik	r9, r16, 12847
    20f8:	2f342e37 	rsubic	r25, r20, 11831
    20fc:	2f756e67 	rsubic	r27, r21, 28263
    2100:	7263696d 		r19, r3, r13
    2104:	616c626f 	muli	r11, r12, 25199
    2108:	6c2f657a 	necget	r1, rfsl10
    210c:	6d2f6e69 	necaget	r9, rfsl9
    2110:	6f726369 	ncget	r27, rfsl9
    2114:	7a616c62 		r19, r1, r13
    2118:	69782d65 		r11, r24, r5
    211c:	786e696c 		r3, r14, r13
    2120:	666c652d 	bslli	r19, r12, 13
    2124:	636e692f 	muli	r27, r14, 26927
    2128:	6564756c 	bslli	r11, r4, 12
    212c:	7379732f 		r27, r25, r14
    2130:	6c700000 	get	r3, rfsl0
    2134:	6f667461 	tnecget	r27, rfsl1
    2138:	632e6d72 	muli	r25, r14, 28018
    213c:	00000100 		r0, r0, r0
    2140:	6863616d 		r3, r3, r12
    2144:	2f656e69 	rsubic	r27, r5, 28265
    2148:	6665645f 	bslli	r19, r5, 31
    214c:	746c7561 		r3, r12, r14
    2150:	7079745f 		r3, r25, r14
    2154:	682e7365 		r1, r14, r14
    2158:	00000400 		r0, r0, r0
    215c:	2f737973 	rsubic	r27, r19, 31091
    2160:	6474735f 	bsrai	r3, r20, 31
    2164:	2e746e69 	rsubic	r19, r20, 28265
    2168:	00040068 		r0, r4, r0
    216c:	6c697800 	tncaget	r3, rfsl0
    2170:	7079745f 		r3, r25, r14
    2174:	682e7365 		r1, r14, r14
    2178:	00000200 		r0, r0, r0
    217c:	5f6c6978 		r27, r12, r13
    2180:	65737361 	bsrai	r11, r19, 1
    2184:	682e7472 		r1, r14, r14
    2188:	00000200 		r0, r0, r0
    218c:	72617078 		r19, r1, r14
    2190:	74656d61 		r3, r5, r13
    2194:	2e737265 	rsubic	r19, r19, 29285
    2198:	00020068 		r0, r2, r0
    219c:	6c697800 	tncaget	r3, rfsl0
    21a0:	6361635f 	muli	r27, r1, 25439
    21a4:	682e6568 		r1, r14, r12
    21a8:	00000200 		r0, r0, r0
    21ac:	695f626d 		r10, r31, r12
    21b0:	7265746e 		r19, r5, r14
    21b4:	65636166 	bsrli	r11, r3, 6
    21b8:	0200682e 		r16, r0, r13
    21bc:	74730000 		r3, r19, r0
    21c0:	746e6964 		r3, r14, r13
    21c4:	0300682e 		r24, r0, r13
    21c8:	74730000 		r3, r19, r0
    21cc:	746e6964 		r3, r14, r13
    21d0:	0400682e 	neg	r0, r0
    21d4:	79730000 		r11, r19, r0
    21d8:	65662f73 		r11, r6, r5
    21dc:	72757461 		r19, r21, r14
    21e0:	682e7365 		r1, r14, r14
    21e4:	00000400 		r0, r0, r0
    21e8:	77656e5f 		r27, r5, r13
    21ec:	5f62696c 		r27, r2, r13
    21f0:	73726576 		r27, r18, r12
    21f4:	2e6e6f69 	rsubic	r19, r14, 28521
    21f8:	00040068 		r0, r4, r0
    21fc:	73797300 		r27, r25, r14
    2200:	6e695f2f 	tneaget	r19, rfsl15
    2204:	70757374 		r3, r21, r14
    2208:	0400682e 	neg	r0, r0
    220c:	74730000 		r3, r19, r0
    2210:	66656464 	bslli	r19, r5, 4
    2214:	0300682e 		r24, r0, r13
    2218:	69780000 		r11, r24, r0
    221c:	78655f6c 		r3, r5, r11
    2220:	74706563 		r3, r16, r12
    2224:	2e6e6f69 	rsubic	r19, r14, 28521
    2228:	00020068 		r0, r2, r0
    222c:	616c7000 	muli	r11, r12, 28672
    2230:	726f6674 		r19, r15, r12
    2234:	6f635f6d 	tneaget	r27, rfsl13
    2238:	6769666e 	bsefi	r27, r9, 25, 14
    223c:	0100682e 		r8, r0, r13
    2240:	
Disassembly of section .debug_str:

00000000 <.debug_str>:
       0:	4e475f5f 	ncaputd	r7, r11
       4:	494c4355 		r10, r12, r8
       8:	5f5f454b 		r26, r31, r8
       c:	4345535f 		r26, r5, r10
      10:	4e4f4954 	cagetd	r18, r9
      14:	5f003120 		r24, r0, r6
      18:	4345445f 		r26, r5, r8
      1c:	4c414d49 	caputd	r1, r9
      20:	4749445f 	bsll	r26, r9, r8
      24:	31205f5f 	addik	r9, r0, 24415
      28:	5f5f0037 		r26, r31, r0
      2c:	44495653 		r2, r9, r10
      30:	5349565f 		r26, r9, r10
      34:	454c4249 	bsra	r10, r12, r8
      38:	5f003120 		r24, r0, r6
      3c:	54494c5f 		r2, r9, r9
      40:	5f454c54 		r26, r5, r9
      44:	49444e45 		r10, r4, r9
      48:	5f5f4e41 		r26, r31, r9
      4c:	5f003120 		r24, r0, r6
      50:	4345445f 		r26, r5, r8
      54:	5f383231 		r25, r24, r6
      58:	49535045 		r10, r19, r10
      5c:	5f4e4f4c 		r26, r14, r9
      60:	4531205f 	bsrl	r9, r17, r4
      64:	4433332d 	bsra	r1, r19, r6
      68:	5f5f004c 		r26, r31, r0
      6c:	5f434347 		r26, r3, r8
      70:	4d4f5441 	aputd	r15, r10
      74:	575f4349 		r26, r31, r8
      78:	52414843 		r18, r1, r9
      7c:	4c5f545f 	aputd	r31, r10
      80:	5f4b434f 		r26, r11, r8
      84:	45455246 	bsra	r10, r5, r10
      88:	5f003220 		r24, r0, r6
      8c:	4e454552 	caputd	r5, r8
      90:	53415f54 		r26, r1, r11
      94:	4d495443 	aputd	r9, r10
      98:	49535f45 		r10, r19, r11
      9c:	3220455a 	addik	r17, r0, 17754
      a0:	475f0036 	bsrl	r26, r31, r0
      a4:	41424f4c 		r10, r2, r9
      a8:	54415f4c 		r2, r1, r11
      ac:	54495845 		r2, r9, r11
      b0:	475f2820 	bsrl	r26, r31, r5
      b4:	41424f4c 		r10, r2, r9
      b8:	45525f4c 		r10, r18, r11
      bc:	2d544e45 	rsubic	r10, r20, 20037
      c0:	74615f3e 		r3, r1, r11
      c4:	74697865 		r3, r9, r15
      c8:	69730029 		r11, r19, r0
      cc:	7974657a 		r11, r20, r12
      d0:	5f006570 		r24, r0, r12
      d4:	6c61765f 	tnecget	r3, rfsl15
      d8:	5f006575 		r24, r0, r12
      dc:	4e454552 	caputd	r5, r8
      e0:	41525f54 		r10, r18, r11
      e4:	3834444e 	addikc	r1, r20, 17486
      e8:	4444415f 	bsrl	r2, r4, r8
      ec:	72747028 		r19, r20, r14
      f0:	28282029 	addic	r1, r8, 8233
      f4:	29727470 	addic	r11, r18, 29808
      f8:	725f3e2d 		r18, r31, r7
      fc:	3e2d3834 	rsubikc	r17, r13, 14388
     100:	6464615f 	bsrli	r3, r4, 31
     104:	4e490029 	egetd	r18, r0
     108:	5f363154 		r25, r22, r6
     10c:	204e494d 	addi	r2, r14, 18765
     110:	5f5f2d28 		r26, r31, r5
     114:	31544e49 	addik	r10, r20, 20041
     118:	414d5f36 		r10, r13, r11
     11c:	205f5f58 	addi	r2, r31, 24408
     120:	2931202d 	addic	r9, r17, 8237
     124:	735f5f00 		r26, r31, r11
     128:	5f5f0066 		r26, r31, r0
     12c:	44525450 	bsll	r2, r18, r10
     130:	5f464649 		r26, r6, r8
     134:	5f58414d 		r26, r24, r8
     138:	7830205f 		r1, r16, r4
     13c:	66666637 	bsefi	r19, r6, 24, 23
     140:	66666666 	bsefi	r19, r6, 25, 6
     144:	4f4c5f00 	ncputd	r12, r11
     148:	445f474e 		r2, r31, r8
     14c:	4c42554f 	caputd	r2, r10
     150:	6f6c2045 	cget	r27, rfsl5
     154:	6420676e 	bsefi	r1, r0, 29, 14
     158:	6c62756f 	tnecget	r3, rfsl15
     15c:	5f5f0065 		r26, r31, r0
     160:	4d544e49 	naputd	r20, r9
     164:	435f5841 		r26, r31, r11
     168:	20296328 	addi	r1, r9, 25384
     16c:	23232063 	addi	r25, r3, 8291
     170:	004c4c20 		r2, r12, r9
     174:	62735f5f 	muli	r19, r19, 24415
     178:	5f006675 		r24, r0, r12
     17c:	64616572 	bslli	r3, r1, 18
     180:	495f5f00 		r10, r31, r11
     184:	414d544e 		r10, r13, r10
     188:	414d5f58 		r10, r13, r11
     18c:	205f5f58 	addi	r2, r31, 24408
     190:	66377830 	bsrli	r17, r23, 16
     194:	66666666 	bsefi	r19, r6, 25, 6
     198:	66666666 	bsefi	r19, r6, 25, 6
     19c:	66666666 	bsefi	r19, r6, 25, 6
     1a0:	4c4c6666 	neaputd	r12, r12
     1a4:	6d5f5f00 	tneaget	r10, rfsl0
     1a8:	6f726369 	ncget	r27, rfsl9
     1ac:	7a616c62 		r19, r1, r13
     1b0:	205f5f65 	addi	r2, r31, 24421
     1b4:	5f5f0031 		r26, r31, r0
     1b8:	33434544 	addik	r26, r3, 17732
     1bc:	55535f32 		r10, r19, r11
     1c0:	524f4e42 		r18, r15, r9
     1c4:	5f4c414d 		r26, r12, r8
     1c8:	5f4e494d 		r26, r14, r9
     1cc:	2e30205f 	rsubic	r17, r16, 8287
     1d0:	30303030 	addik	r1, r16, 12336
     1d4:	2d453130 	rsubic	r10, r5, 12592
     1d8:	46443539 	bsll	r18, r4, r6
     1dc:	6e6f5f00 	tneaget	r19, rfsl0
     1e0:	6978655f 		r11, r24, r12
     1e4:	72615f74 		r19, r1, r11
     1e8:	705f7367 		r2, r31, r14
     1ec:	5f007274 		r24, r0, r14
     1f0:	78616d4b 		r3, r1, r13
     1f4:	69732820 		r11, r19, r5
     1f8:	666f657a 	bslli	r19, r15, 26
     1fc:	69732820 		r11, r19, r5
     200:	745f657a 		r2, r31, r12
     204:	3c3c2029 	rsubikc	r1, r28, 8233
     208:	00293320 		r1, r9, r6
     20c:	54415f5f 		r2, r1, r11
     210:	43494d4f 		r26, r9, r9
     214:	4e4f435f 	ncagetd	r18, r8
     218:	454d5553 	bsll	r10, r13, r10
     21c:	5f003120 		r24, r0, r6
     220:	4e454552 	caputd	r5, r8
     224:	4e495f54 	ncaputd	r9, r11
     228:	505f5449 		r2, r31, r10
     22c:	5a5f5254 		r18, r31, r10
     230:	454f5245 	bsra	r10, r15, r10
     234:	61762844 	muli	r11, r22, 10308
     238:	7b202972 		r25, r0, r5
     23c:	61762820 	muli	r11, r22, 10272
     240:	3e2d2972 	rsubikc	r17, r13, 10610
     244:	6474735f 	bsrai	r3, r20, 31
     248:	3d206e69 	rsubikc	r9, r0, 28265
     24c:	5f5f2820 		r26, r31, r5
     250:	454c4946 	bsrl	r10, r12, r9
     254:	26292a20 	rsubi	r17, r9, 10784
     258:	66735f5f 	bsefi	r19, r19, 29, 31
     25c:	6b61665f 		r27, r1, r12
     260:	74735f65 		r3, r19, r11
     264:	3b6e6964 	addikc	r27, r14, 26980
     268:	61762820 	muli	r11, r22, 10272
     26c:	3e2d2972 	rsubikc	r17, r13, 10610
     270:	6474735f 	bsrai	r3, r20, 31
     274:	2074756f 	addi	r3, r20, 30063
     278:	5f28203d 		r25, r8, r4
     27c:	4c49465f 	naputd	r9, r8
     280:	292a2045 	addic	r9, r10, 8261
     284:	735f5f26 		r26, r31, r11
     288:	61665f66 	muli	r11, r6, 24422
     28c:	735f656b 		r26, r31, r12
     290:	756f6474 		r11, r15, r12
     294:	28203b74 	addic	r1, r0, 15220
     298:	29726176 	addic	r11, r18, 24950
     29c:	735f3e2d 		r26, r31, r7
     2a0:	72656474 		r19, r5, r12
     2a4:	203d2072 	addi	r1, r29, 8306
     2a8:	465f5f28 		r18, r31, r11
     2ac:	20454c49 	addi	r2, r5, 19529
     2b0:	5f26292a 		r25, r6, r5
     2b4:	5f66735f 		r27, r6, r14
     2b8:	656b6166 	bsrli	r11, r11, 6
     2bc:	6474735f 	bsrai	r3, r20, 31
     2c0:	3b727265 	addikc	r27, r18, 29285
     2c4:	61762820 	muli	r11, r22, 10272
     2c8:	3e2d2972 	rsubikc	r17, r13, 10610
     2cc:	7275635f 		r19, r21, r12
     2d0:	746e6572 		r3, r14, r12
     2d4:	636f6c5f 	muli	r27, r15, 27743
     2d8:	20656c61 	addi	r3, r5, 27745
     2dc:	4322203d 		r25, r2, r4
     2e0:	7d203b22 		r9, r0, r7
     2e4:	435f5f00 		r26, r31, r11
     2e8:	41434e4f 		r10, r3, r9
     2ec:	2c782854 	rsubic	r3, r24, 10324
     2f0:	5f202979 		r25, r0, r5
     2f4:	4e4f435f 	ncagetd	r18, r8
     2f8:	31544143 	addik	r10, r20, 16707
     2fc:	792c7828 		r9, r12, r15
     300:	775f0029 		r26, r31, r0
     304:	65746972 	bsrli	r11, r20, 18
     308:	475f5f00 		r26, r31, r11
     30c:	4c43554e 	caputd	r3, r10
     310:	5f454b49 		r26, r5, r9
     314:	59545f5f 		r10, r20, r11
     318:	464f4550 	bsll	r18, r15, r8
     31c:	5f003120 		r24, r0, r6
     320:	5a49535f 		r18, r9, r10
     324:	5f464f45 		r26, r6, r9
     328:	474e4f4c 		r26, r14, r9
     32c:	4e4f4c5f 	aputd	r15, r9
     330:	205f5f47 	addi	r2, r31, 24391
     334:	615f0038 	muli	r10, r31, 56
     338:	69746373 		r11, r20, r12
     33c:	625f656d 	muli	r18, r31, 25965
     340:	5f006675 		r24, r0, r12
     344:	4c42445f 	aputd	r2, r8
     348:	58414d5f 		r2, r1, r9
     34c:	5f30315f 		r25, r16, r6
     350:	5f505845 		r26, r16, r11
     354:	3033205f 	addik	r1, r19, 8287
     358:	635f0038 	muli	r26, r31, 56
     35c:	656c7476 	bslli	r11, r12, 22
     360:	5f5f006e 		r26, r31, r0
     364:	49534352 		r10, r19, r8
     368:	4f535f44 	ncaputd	r19, r11
     36c:	45435255 	bsra	r10, r3, r10
     370:	20297328 	addi	r1, r9, 29480
     374:	75727473 		r11, r18, r14
     378:	5f207463 		r25, r0, r14
     37c:	6361685f 	muli	r27, r1, 26719
     380:	4953006b 		r10, r19, r0
     384:	4d5f455a 	caputd	r31, r8
     388:	28205841 	addic	r1, r0, 22593
     38c:	49535f5f 		r10, r19, r11
     390:	4d5f455a 	caputd	r31, r8
     394:	5f5f5841 		r26, r31, r11
     398:	5f5f0029 		r26, r31, r0
     39c:	49534f50 		r10, r19, r9
     3a0:	49565f58 		r10, r22, r11
     3a4:	4c424953 	cagetd	r2, r9
     3a8:	30322045 	addik	r1, r18, 8261
     3ac:	39303830 	addikc	r9, r16, 14384
     3b0:	735f5f00 		r26, r31, r11
     3b4:	6e6f7274 	tncget	r19, rfsl4
     3b8:	65725f67 	bsefi	r11, r18, 29, 7
     3bc:	65726566 	bslli	r11, r18, 6
     3c0:	2865636e 	addic	r3, r5, 25454
     3c4:	2c6d7973 	rsubic	r3, r13, 31091
     3c8:	61696c61 	muli	r11, r9, 27745
     3cc:	6d797373 	tncget	r11, rfsl3
     3d0:	78652029 		r3, r5, r4
     3d4:	6e726574 	necget	r19, rfsl4
     3d8:	745f5f20 		r2, r31, r11
     3dc:	6f657079 	tncget	r27, rfsl9
     3e0:	73282066 		r25, r8, r4
     3e4:	20296d79 	addi	r1, r9, 28025
     3e8:	61696c61 	muli	r11, r9, 27745
     3ec:	6d797373 	tncget	r11, rfsl3
     3f0:	615f5f20 	muli	r10, r31, 24352
     3f4:	69727474 		r11, r18, r14
     3f8:	65747562 	bslli	r11, r20, 2
     3fc:	28205f5f 	addic	r1, r0, 24415
     400:	615f5f28 	muli	r10, r31, 24360
     404:	7361696c 		r27, r1, r13
     408:	28205f5f 	addic	r1, r0, 24415
     40c:	6d797323 	tncget	r11, rfsl3
     410:	00292929 		r1, r9, r5
     414:	45445f5f 		r10, r4, r11
     418:	5f323343 		r25, r18, r6
     41c:	5f4e494d 		r26, r14, r9
     420:	4531205f 	bsrl	r9, r17, r4
     424:	4435392d 	bsrl	r1, r21, r7
     428:	695f0046 		r10, r31, r0
     42c:	5f00636e 		r24, r0, r12
     430:	44524f5f 		r2, r18, r9
     434:	505f5245 		r2, r31, r10
     438:	455f5044 	bsrl	r10, r31, r10
     43c:	4149444e 		r10, r9, r8
     440:	205f5f4e 	addi	r2, r31, 24398
     444:	32313433 	addik	r17, r17, 13363
     448:	535f5f00 		r26, r31, r11
     44c:	5f455a49 		r26, r5, r11
     450:	45505954 	bsrl	r10, r16, r11
     454:	75205f5f 		r9, r0, r11
     458:	6769736e 	bsrai	r27, r9, 14
     45c:	2064656e 	addi	r3, r4, 25966
     460:	00746e69 		r3, r20, r13
     464:	45445f5f 		r10, r4, r11
     468:	5f343643 		r25, r20, r6
     46c:	5f58414d 		r26, r24, r8
     470:	5f505845 		r26, r16, r11
     474:	3833205f 	addikc	r1, r19, 8287
     478:	5f5f0035 		r26, r31, r0
     47c:	5f544c46 		r26, r20, r9
     480:	5f534148 		r26, r19, r8
     484:	4f4e4544 	caputd	r14, r8
     488:	5f5f4d52 		r26, r31, r9
     48c:	5f003120 		r24, r0, r6
     490:	544e495f 		r2, r14, r9
     494:	59545f38 		r10, r20, r11
     498:	5f5f4550 		r26, r31, r8
     49c:	67697320 	bsrai	r27, r9, 0
     4a0:	2064656e 	addi	r3, r4, 25966
     4a4:	72616863 		r19, r1, r13
     4a8:	58455f00 		r2, r5, r11
     4ac:	284e5546 	addic	r2, r14, 21830
     4b0:	656d616e 	bsrli	r11, r13, 14
     4b4:	6f72702c 	tncget	r27, rfsl12
     4b8:	20296f74 	addi	r1, r9, 28532
     4bc:	656d616e 	bsrli	r11, r13, 14
     4c0:	6f727020 	tncget	r27, rfsl0
     4c4:	5f006f74 		r24, r0, r13
     4c8:	42444c5f 		r18, r4, r9
     4cc:	494d5f4c 		r10, r13, r11
     4d0:	58455f4e 		r2, r5, r11
     4d4:	205f5f50 	addi	r2, r31, 24400
     4d8:	30312d28 	addik	r1, r17, 11560
     4dc:	00293132 		r1, r9, r6
     4e0:	4545525f 	bsra	r10, r5, r10
     4e4:	495f544e 		r10, r31, r10
     4e8:	5f54494e 		r26, r20, r9
     4ec:	444e4152 	bsrl	r2, r14, r8
     4f0:	76283834 		r17, r8, r7
     4f4:	20297261 	addi	r1, r9, 29281
     4f8:	7b206f64 		r25, r0, r13
     4fc:	72747320 		r19, r20, r14
     500:	20746375 	addi	r3, r20, 25461
     504:	6565725f 	bsrai	r11, r5, 31
     508:	2a20746e 	addic	r17, r0, 29806
     50c:	3d20725f 	rsubikc	r9, r0, 29279
     510:	61762820 	muli	r11, r22, 10272
     514:	203b2972 	addi	r1, r27, 10610
     518:	3e2d725f 	rsubikc	r17, r13, 29279
     51c:	3834725f 	addikc	r1, r20, 29279
     520:	735f3e2d 		r26, r31, r7
     524:	5b646565 		r27, r4, r12
     528:	3d205d30 	rsubikc	r9, r0, 23856
     52c:	41525f20 		r10, r18, r11
     530:	3834444e 	addikc	r1, r20, 17486
     534:	4545535f 	bsra	r10, r5, r10
     538:	3b305f44 	addikc	r25, r16, 24388
     53c:	2d725f20 	rsubic	r11, r18, 24352
     540:	34725f3e 	rsubik	r3, r18, 24382
     544:	5f3e2d38 		r25, r30, r5
     548:	64656573 	bslli	r3, r5, 19
     54c:	205d315b 	addi	r2, r29, 12635
     550:	525f203d 		r18, r31, r4
     554:	34444e41 	rsubik	r2, r4, 20033
     558:	45535f38 		r10, r19, r11
     55c:	315f4445 	addik	r10, r31, 17477
     560:	725f203b 		r18, r31, r4
     564:	725f3e2d 		r18, r31, r7
     568:	3e2d3834 	rsubikc	r17, r13, 14388
     56c:	6565735f 	bsrai	r11, r5, 31
     570:	5d325b64 		r9, r18, r11
     574:	5f203d20 		r25, r0, r7
     578:	444e4152 	bsrl	r2, r14, r8
     57c:	535f3834 		r26, r31, r7
     580:	5f444545 		r26, r4, r8
     584:	5f203b32 		r25, r0, r7
     588:	5f3e2d72 		r25, r30, r5
     58c:	2d383472 	rsubic	r9, r24, 13426
     590:	756d5f3e 		r11, r13, r11
     594:	305b746c 	addik	r2, r27, 29804
     598:	203d205d 	addi	r1, r29, 8285
     59c:	4e41525f 	nagetd	r18, r10
     5a0:	5f383444 		r25, r24, r6
     5a4:	544c554d 		r2, r12, r10
     5a8:	203b305f 	addi	r1, r27, 12383
     5ac:	3e2d725f 	rsubikc	r17, r13, 29279
     5b0:	3834725f 	addikc	r1, r20, 29279
     5b4:	6d5f3e2d 	tecaget	r10, rfsl13
     5b8:	5b746c75 		r27, r20, r13
     5bc:	3d205d31 	rsubikc	r9, r0, 23857
     5c0:	41525f20 		r10, r18, r11
     5c4:	3834444e 	addikc	r1, r20, 17486
     5c8:	4c554d5f 	caputd	r21, r9
     5cc:	3b315f54 	addikc	r25, r17, 24404
     5d0:	2d725f20 	rsubic	r11, r18, 24352
     5d4:	34725f3e 	rsubik	r3, r18, 24382
     5d8:	5f3e2d38 		r25, r30, r5
     5dc:	746c756d 		r3, r12, r14
     5e0:	205d325b 	addi	r2, r29, 12891
     5e4:	525f203d 		r18, r31, r4
     5e8:	34444e41 	rsubik	r2, r4, 20033
     5ec:	554d5f38 		r10, r13, r11
     5f0:	325f544c 	addik	r18, r31, 21580
     5f4:	725f203b 		r18, r31, r4
     5f8:	725f3e2d 		r18, r31, r7
     5fc:	3e2d3834 	rsubikc	r17, r13, 14388
     600:	6464615f 	bsrli	r3, r4, 31
     604:	5f203d20 		r25, r0, r7
     608:	444e4152 	bsrl	r2, r14, r8
     60c:	415f3834 		r10, r31, r7
     610:	203b4444 	addi	r1, r27, 17476
     614:	3e2d725f 	rsubikc	r17, r13, 29279
     618:	3834725f 	addikc	r1, r20, 29279
     61c:	725f3e2d 		r18, r31, r7
     620:	5f646e61 		r27, r4, r13
     624:	7478656e 		r3, r24, r12
     628:	31203d20 	addik	r9, r0, 15648
     62c:	207d203b 	addi	r3, r29, 8251
     630:	6c696877 	ncaget	r3, rfsl7
     634:	30282065 	addik	r1, r8, 8293
     638:	5f5f0029 		r26, r31, r0
     63c:	4c42444c 	aputd	r2, r8
     640:	4e414d5f 	caputd	r1, r9
     644:	49445f54 		r10, r4, r11
     648:	205f5f47 	addi	r2, r31, 24391
     64c:	5f003335 		r24, r0, r6
     650:	006d745f 		r3, r13, r14
     654:	7363775f 		r27, r3, r14
     658:	6d6f7472 	tnecget	r11, rfsl2
     65c:	735f7362 		r26, r31, r14
     660:	65746174 	bsrli	r11, r20, 20
     664:	626e5f00 	muli	r19, r14, 24320
     668:	5f006675 		r24, r0, r12
     66c:	5f6d745f 		r27, r13, r14
     670:	00636573 		r3, r3, r12
     674:	49555f5f 		r10, r21, r11
     678:	5f38544e 		r25, r24, r10
     67c:	29632843 	addic	r11, r3, 10307
     680:	5f006320 		r24, r0, r12
     684:	544e495f 		r2, r14, r9
     688:	545f3631 		r2, r31, r6
     68c:	5f455059 		r26, r5, r10
     690:	6873205f 		r3, r19, r4
     694:	2074726f 	addi	r3, r20, 29295
     698:	00746e69 		r3, r20, r13
     69c:	6c615f5f 	tneaget	r3, rfsl15
     6a0:	656e6769 	bsefi	r11, r14, 29, 9
     6a4:	29782864 	addic	r11, r24, 10340
     6a8:	615f5f20 	muli	r10, r31, 24352
     6ac:	69727474 		r11, r18, r14
     6b0:	65747562 	bslli	r11, r20, 2
     6b4:	28285f5f 	addic	r1, r8, 24415
     6b8:	6c615f5f 	tneaget	r3, rfsl15
     6bc:	656e6769 	bsefi	r11, r14, 29, 9
     6c0:	285f5f64 	addic	r2, r31, 24420
     6c4:	29292978 	addic	r9, r9, 10616
     6c8:	366c5f00 	rsubik	r19, r12, 24320
     6cc:	625f6134 	muli	r18, r31, 24884
     6d0:	75006675 		r8, r0, r12
     6d4:	706d7438 		r3, r13, r14
     6d8:	755f5f00 		r10, r31, r11
     6dc:	756f626e 		r11, r15, r12
     6e0:	6465646e 	bslli	r3, r5, 14
     6e4:	5f5f0020 		r26, r31, r0
     6e8:	38544e49 	addikc	r2, r20, 20041
     6ec:	68682220 		r3, r8, r4
     6f0:	4e490022 	egetd	r18, r0
     6f4:	454c5f54 		r10, r12, r11
     6f8:	31545341 	addik	r10, r20, 21313
     6fc:	414d5f36 		r10, r13, r11
     700:	5f282058 		r25, r8, r4
     704:	544e495f 		r2, r14, r9
     708:	41454c5f 		r10, r5, r9
     70c:	36315453 	rsubik	r17, r17, 21587
     710:	58414d5f 		r2, r1, r9
     714:	00295f5f 		r1, r9, r11
     718:	54535f5f 		r2, r19, r11
     71c:	485f4344 		r2, r31, r8
     720:	4554534f 	bsra	r10, r20, r10
     724:	205f5f44 	addi	r2, r31, 24388
     728:	4c5f0031 	egetd	r2, r0
     72c:	5f4c4244 		r26, r12, r8
     730:	445f5145 	bsrl	r2, r31, r10
     734:	31204c42 	addik	r9, r0, 19522
     738:	495f5f00 		r10, r31, r11
     73c:	465f544e 	bsll	r18, r31, r10
     740:	36545341 	rsubik	r18, r20, 21313
     744:	59545f34 		r10, r20, r11
     748:	5f5f4550 		r26, r31, r8
     74c:	6e6f6c20 	necaget	r19, rfsl0
     750:	6f6c2067 	cget	r27, rfsl7
     754:	6920676e 		r9, r0, r12
     758:	5f00746e 		r24, r0, r14
     75c:	72616e66 		r19, r1, r13
     760:	5f007367 		r24, r0, r14
     764:	6b636f6c 		r27, r3, r13
     768:	535f5f00 		r26, r31, r11
     76c:	5f455a49 		r26, r5, r11
     770:	205f5f54 	addi	r2, r31, 24404
     774:	766e4900 		r19, r14, r9
     778:	42627553 		r19, r2, r14
     77c:	73657479 		r27, r5, r14
     780:	555f5f00 		r10, r31, r11
     784:	31544e49 	addik	r10, r20, 20041
     788:	59545f36 		r10, r20, r11
     78c:	5f5f4550 		r26, r31, r8
     790:	6f687320 	tncget	r27, rfsl0
     794:	75207472 		r9, r0, r14
     798:	6769736e 	bsrai	r27, r9, 14
     79c:	2064656e 	addi	r3, r4, 25966
     7a0:	00746e69 		r3, r20, r13
     7a4:	4545525f 	bsra	r10, r5, r10
     7a8:	435f544e 		r26, r31, r10
     7ac:	4b434548 		r26, r3, r8
     7b0:	284d545f 	addic	r2, r13, 21599
     7b4:	29726176 	addic	r11, r18, 24950
     7b8:	45525f20 		r10, r18, r11
     7bc:	5f544e45 		r26, r20, r9
     7c0:	43454843 		r26, r5, r9
     7c4:	6176284b 	muli	r11, r22, 10315
     7c8:	5f202c72 		r25, r0, r5
     7cc:	61636f6c 	muli	r11, r3, 28524
     7d0:	6d69746c 	tnecget	r11, rfsl12
     7d4:	75625f65 		r11, r2, r11
     7d8:	73202c66 		r25, r0, r5
     7dc:	63757274 	muli	r27, r21, 29300
     7e0:	5f5f2074 		r26, r31, r4
     7e4:	2a206d74 	addic	r17, r0, 28020
     7e8:	6973202c 		r11, r19, r4
     7ec:	666f657a 	bslli	r19, r15, 26
     7f0:	28282a20 	addic	r1, r8, 10784
     7f4:	29726176 	addic	r11, r18, 24950
     7f8:	6c5f3e2d 	tecaget	r2, rfsl13
     7fc:	6c61636f 	ncget	r3, rfsl15
     800:	656d6974 	bsrli	r11, r13, 20
     804:	6675625f 	bsrai	r19, r21, 31
     808:	29202c29 	addic	r9, r0, 11305
     80c:	6e5f5f00 	tneaget	r18, rfsl0
     810:	5f646565 		r27, r4, r12
     814:	61686377 	muli	r11, r8, 25463
     818:	00745f72 		r3, r20, r11
     81c:	65725f5f 	bsefi	r11, r18, 29, 31
     820:	746c7573 		r3, r12, r14
     824:	6573755f 	bslli	r11, r19, 31
     828:	6568635f 	bsrai	r11, r8, 31
     82c:	5f206b63 		r25, r0, r13
     830:	7474615f 		r3, r20, r12
     834:	75626972 		r11, r2, r13
     838:	5f5f6574 		r26, r31, r12
     83c:	5f5f2828 		r26, r31, r5
     840:	6e726177 	ncget	r19, rfsl7
     844:	756e755f 		r11, r14, r14
     848:	5f646573 		r27, r4, r12
     84c:	75736572 		r11, r19, r12
     850:	5f5f746c 		r26, r31, r14
     854:	5f002929 		r24, r0, r5
     858:	4e49555f 	caputd	r9, r10
     85c:	4d5f3854 	agetd	r10, r7
     860:	5f5f5841 		r26, r31, r11
     864:	66783020 	bsrli	r19, r24, 0
     868:	5f5f0066 		r26, r31, r0
     86c:	6b636f6c 		r27, r3, r13
     870:	6f6c635f 	ncget	r27, rfsl15
     874:	725f6573 		r18, r31, r12
     878:	72756365 		r19, r21, r12
     87c:	65766973 	bsrli	r11, r22, 19
     880:	636f6c28 	muli	r27, r15, 27688
     884:	2820296b 	addic	r1, r0, 10603
     888:	5341435f 		r26, r1, r8
     88c:	4f565f54 	ncaputd	r22, r11
     890:	30204449 	addik	r1, r0, 17481
     894:	675f0029 	bsrli	r26, r31, 9
     898:	61647465 	muli	r11, r4, 29797
     89c:	655f6574 	bslli	r10, r31, 20
     8a0:	5f007272 		r24, r0, r14
     8a4:	746c756d 		r3, r12, r14
     8a8:	544e4900 		r2, r14, r9
     8ac:	4d5f3631 	neputd	r31, r6
     8b0:	28205841 	addic	r1, r0, 22593
     8b4:	4e495f5f 	ncaputd	r9, r11
     8b8:	5f363154 		r25, r22, r6
     8bc:	5f58414d 		r26, r24, r8
     8c0:	4500295f 	bsrl	r8, r0, r5
     8c4:	31204243 	addik	r9, r0, 16963
     8c8:	45445f00 		r10, r4, r11
     8cc:	5f4e5546 		r26, r14, r10
     8d0:	44494f56 		r2, r9, r9
     8d4:	6d616e28 	necaget	r11, rfsl8
     8d8:	6e202965 	caget	r17, rfsl5
     8dc:	28656d61 	addic	r3, r5, 28001
     8e0:	414f4e5f 		r10, r15, r9
     8e4:	29534752 	addic	r10, r19, 18258
     8e8:	544e4900 		r2, r14, r9
     8ec:	5341465f 		r26, r1, r8
     8f0:	5f343654 		r25, r20, r6
     8f4:	204e494d 	addi	r2, r14, 18765
     8f8:	5f5f2d28 		r26, r31, r5
     8fc:	5f544e49 		r26, r20, r9
     900:	54534146 		r2, r19, r8
     904:	4d5f3436 	eputd	r31, r6
     908:	5f5f5841 		r26, r31, r11
     90c:	31202d20 	addik	r9, r0, 11552
     910:	5f5f0029 		r26, r31, r0
     914:	657a6973 	bsrli	r11, r26, 19
     918:	0020745f 		r1, r0, r14
     91c:	6f625f5f 	tneaget	r27, rfsl15
     920:	65646e75 	bsefi	r11, r4, 25, 21
     924:	5f002064 		r24, r0, r4
     928:	746e695f 		r3, r14, r13
     92c:	7361665f 		r27, r1, r12
     930:	5f323374 		r25, r18, r6
     934:	65645f74 	bsefi	r11, r4, 29, 20
     938:	656e6966 	bsrli	r11, r14, 6
     93c:	00312064 		r1, r17, r4
     940:	34206b4e 	rsubik	r1, r0, 27470
     944:	5f5f5f00 		r26, r31, r11
     948:	5f746e69 		r27, r20, r13
     94c:	61686377 	muli	r11, r8, 25463
     950:	5f745f72 		r27, r20, r11
     954:	43002068 		r24, r0, r4
     958:	31204342 	addik	r9, r0, 17218
     95c:	544e4900 		r2, r14, r9
     960:	435f3631 		r26, r31, r6
     964:	20297828 	addi	r1, r9, 30760
     968:	4e495f5f 	ncaputd	r9, r11
     96c:	5f363154 		r25, r22, r6
     970:	29782843 	addic	r11, r24, 10307
     974:	4f505f00 	ncputd	r16, r11
     978:	45544e49 		r10, r20, r9
     97c:	4e495f52 	ncaputd	r9, r11
     980:	6f6c2054 	cget	r27, rfsl4
     984:	5f00676e 		r24, r0, r12
     988:	4345445f 		r26, r5, r8
     98c:	4d5f3233 	negetd	r10, r6
     990:	455f4e49 		r10, r31, r9
     994:	5f5f5058 		r26, r31, r10
     998:	392d2820 	addikc	r9, r13, 10272
     99c:	5f002934 		r24, r0, r5
     9a0:	4e4f435f 	ncagetd	r18, r8
     9a4:	31544143 	addik	r10, r20, 16707
     9a8:	792c7828 		r9, r12, r15
     9ac:	20782029 	addi	r3, r24, 8233
     9b0:	79202323 		r9, r0, r4
     9b4:	5f545f00 		r26, r20, r11
     9b8:	455a4953 	bsrl	r10, r26, r9
     9bc:	5f5f0020 		r26, r31, r0
     9c0:	33544e49 	addik	r26, r20, 20041
     9c4:	28435f32 	addic	r2, r3, 24370
     9c8:	63202963 	muli	r25, r0, 10595
     9cc:	20232320 	addi	r1, r3, 8992
     9d0:	5f5f004c 		r26, r31, r0
     9d4:	4544524f 	bsra	r10, r4, r10
     9d8:	49425f52 		r10, r2, r11
     9dc:	4e455f47 	ncaputd	r5, r11
     9e0:	4e414944 	cagetd	r18, r9
     9e4:	34205f5f 	rsubik	r1, r0, 24415
     9e8:	00313233 		r1, r17, r6
     9ec:	38544e49 	addikc	r2, r20, 20041
     9f0:	4e494d5f 	caputd	r9, r9
     9f4:	5f2d2820 		r25, r13, r5
     9f8:	544e495f 		r2, r14, r9
     9fc:	414d5f38 		r10, r13, r11
     a00:	205f5f58 	addi	r2, r31, 24408
     a04:	2931202d 	addic	r9, r17, 8237
     a08:	59535f00 		r10, r19, r11
     a0c:	535f5f53 		r26, r31, r11
     a10:	4e494454 	aputd	r9, r8
     a14:	20485f54 	addi	r2, r8, 24404
     a18:	544e4900 		r2, r14, r9
     a1c:	41454c5f 		r10, r5, r9
     a20:	34365453 	rsubik	r1, r22, 21587
     a24:	58414d5f 		r2, r1, r9
     a28:	5f5f2820 		r26, r31, r5
     a2c:	5f544e49 		r26, r20, r9
     a30:	5341454c 		r26, r1, r8
     a34:	5f343654 		r25, r20, r6
     a38:	5f58414d 		r26, r24, r8
     a3c:	5f00295f 		r24, r0, r5
     a40:	4e454552 	caputd	r5, r8
     a44:	4d455f54 	ncaputd	r5, r11
     a48:	45475245 	bsra	r10, r7, r10
     a4c:	5f59434e 		r26, r25, r8
     a50:	455a4953 	bsrl	r10, r26, r9
     a54:	00353220 		r1, r21, r6
     a58:	49555f5f 		r10, r21, r11
     a5c:	465f544e 	bsll	r18, r31, r10
     a60:	38545341 	addikc	r2, r20, 21313
     a64:	58414d5f 		r2, r1, r9
     a68:	30205f5f 	addik	r1, r0, 24415
     a6c:	66666678 	bsefi	r19, r6, 25, 24
     a70:	66666666 	bsefi	r19, r6, 25, 6
     a74:	5f005566 		r24, r0, r10
     a78:	48544f4e 		r2, r20, r9
     a7c:	20574f52 	addi	r2, r23, 20306
     a80:	445f5f00 		r2, r31, r11
     a84:	32334345 	addik	r17, r19, 17221
     a88:	5350455f 		r26, r16, r8
     a8c:	4e4f4c49 	aputd	r15, r9
     a90:	31205f5f 	addik	r9, r0, 24415
     a94:	44362d45 	bsll	r1, r22, r5
     a98:	5f5f0046 		r26, r31, r0
     a9c:	5f736168 		r27, r19, r12
     aa0:	65747865 	bsrli	r11, r20, 5
     aa4:	6f69736e 	tncget	r27, rfsl14
     aa8:	5f5f206e 		r26, r31, r4
     aac:	5f736168 		r27, r19, r12
     ab0:	74616566 		r3, r1, r12
     ab4:	00657275 		r3, r5, r14
     ab8:	4e495f5f 	ncaputd	r9, r11
     abc:	454c5f54 		r10, r12, r11
     ac0:	36545341 	rsubik	r18, r20, 21313
     ac4:	59545f34 		r10, r20, r11
     ac8:	5f5f4550 		r26, r31, r8
     acc:	6e6f6c20 	necaget	r19, rfsl0
     ad0:	6f6c2067 	cget	r27, rfsl7
     ad4:	6920676e 		r9, r0, r12
     ad8:	4900746e 		r8, r0, r14
     adc:	4c5f544e 	aputd	r31, r10
     ae0:	54534145 		r2, r19, r8
     ae4:	414d5f38 		r10, r13, r11
     ae8:	5f282058 		r25, r8, r4
     aec:	544e495f 		r2, r14, r9
     af0:	41454c5f 		r10, r5, r9
     af4:	5f385453 		r25, r24, r10
     af8:	5f58414d 		r26, r24, r8
     afc:	5f00295f 		r24, r0, r5
     b00:	6e69755f 	tnecget	r19, rfsl15
     b04:	745f3874 		r2, r31, r7
     b08:	4e5f5f00 	ncputd	r31, r11
     b0c:	494c5745 		r10, r12, r10
     b10:	5f485f42 		r26, r8, r11
     b14:	0031205f 		r1, r17, r4
     b18:	4545525f 	bsra	r10, r5, r10
     b1c:	495f544e 		r10, r31, r10
     b20:	2854494e 	addic	r2, r20, 18766
     b24:	29726176 	addic	r11, r18, 24950
     b28:	30207b20 	addik	r1, r0, 31520
     b2c:	5f28202c 		r25, r8, r4
     b30:	4c49465f 	naputd	r9, r8
     b34:	292a2045 	addic	r9, r10, 8261
     b38:	735f5f26 		r26, r31, r11
     b3c:	61665f66 	muli	r11, r6, 24422
     b40:	735f656b 		r26, r31, r12
     b44:	6e696474 	necget	r19, rfsl4
     b48:	5f28202c 		r25, r8, r4
     b4c:	4c49465f 	naputd	r9, r8
     b50:	292a2045 	addic	r9, r10, 8261
     b54:	735f5f26 		r26, r31, r11
     b58:	61665f66 	muli	r11, r6, 24422
     b5c:	735f656b 		r26, r31, r12
     b60:	756f6474 		r11, r15, r12
     b64:	28202c74 	addic	r1, r0, 11380
     b68:	49465f5f 		r10, r6, r11
     b6c:	2a20454c 	addic	r17, r0, 17740
     b70:	5f5f2629 		r26, r31, r4
     b74:	665f6673 	bsefi	r18, r31, 25, 19
     b78:	5f656b61 		r27, r5, r13
     b7c:	65647473 	bslli	r11, r4, 19
     b80:	202c7272 	addi	r1, r12, 29298
     b84:	5f202c30 		r25, r0, r5
     b88:	4c4c554e 	caputd	r12, r10
     b8c:	2c30202c 	rsubic	r1, r16, 8236
     b90:	202c3020 	addi	r1, r12, 12320
     b94:	2c224322 	rsubic	r1, r2, 17186
     b98:	554e5f20 		r10, r14, r11
     b9c:	202c4c4c 	addi	r1, r12, 19532
     ba0:	4c554e5f 	naputd	r21, r9
     ba4:	30202c4c 	addik	r1, r0, 11340
     ba8:	2c30202c 	rsubic	r1, r16, 8236
     bac:	554e5f20 		r10, r14, r11
     bb0:	202c4c4c 	addi	r1, r12, 19532
     bb4:	4c554e5f 	naputd	r21, r9
     bb8:	5f202c4c 		r25, r0, r5
     bbc:	4c4c554e 	caputd	r12, r10
     bc0:	4e5f202c 	egetd	r18, r4
     bc4:	2c4c4c55 	rsubic	r2, r12, 19541
     bc8:	554e5f20 		r10, r14, r11
     bcc:	202c4c4c 	addi	r1, r12, 19532
     bd0:	4545525f 	bsra	r10, r5, r10
     bd4:	495f544e 		r10, r31, r10
     bd8:	5f54494e 		r26, r20, r9
     bdc:	58455441 		r2, r5, r10
     be0:	7b205449 		r25, r0, r10
     be4:	4c554e5f 	naputd	r21, r9
     be8:	30202c4c 	addik	r1, r0, 11340
     bec:	4e5f202c 	egetd	r18, r4
     bf0:	7d4c4c55 		r10, r12, r9
     bf4:	4e5f202c 	egetd	r18, r4
     bf8:	2c4c4c55 	rsubic	r2, r12, 19541
     bfc:	554e5f20 		r10, r14, r11
     c00:	202c4c4c 	addi	r1, r12, 19532
     c04:	4c554e5f 	naputd	r21, r9
     c08:	007d204c 		r3, r29, r4
     c0c:	4545525f 	bsra	r10, r5, r10
     c10:	4d5f544e 	aputd	r31, r10
     c14:	4f545242 	nagetd	r26, r10
     c18:	535f4357 		r26, r31, r8
     c1c:	45544154 	bsrl	r10, r20, r8
     c20:	72747028 		r19, r20, r14
     c24:	28282029 	addic	r1, r8, 8233
     c28:	29727470 	addic	r11, r18, 29808
     c2c:	6d5f3e2d 	tecaget	r10, rfsl13
     c30:	2d637369 	rsubic	r11, r3, 29545
     c34:	626d5f3e 	muli	r19, r13, 24382
     c38:	776f7472 		r27, r15, r14
     c3c:	74735f63 		r3, r19, r11
     c40:	29657461 	addic	r11, r5, 29793
     c44:	53454100 		r26, r5, r8
     c48:	7874635f 		r3, r20, r12
     c4c:	7465735f 		r3, r5, r14
     c50:	0076695f 		r3, r22, r13
     c54:	4e495f5f 	ncaputd	r9, r11
     c58:	20343654 	addi	r1, r20, 13908
     c5c:	226c6c22 	addi	r19, r12, 27682
     c60:	495f5f00 		r10, r31, r11
     c64:	5450544e 		r2, r16, r10
     c68:	414d5f52 		r10, r13, r11
     c6c:	205f5f58 	addi	r2, r31, 24408
     c70:	66377830 	bsrli	r17, r23, 16
     c74:	66666666 	bsefi	r19, r6, 25, 6
     c78:	5f006666 		r24, r0, r12
     c7c:	656c6966 	bsrli	r11, r12, 6
     c80:	525f5f00 		r18, r31, r11
     c84:	5f444e41 		r26, r4, r9
     c88:	0058414d 		r2, r24, r8
     c8c:	6e6f6352 	ncget	r19, rfsl2
     c90:	555f5f00 		r10, r31, r11
     c94:	5f544e49 		r26, r20, r9
     c98:	54534146 		r2, r19, r8
     c9c:	4d5f3631 	neputd	r31, r6
     ca0:	5f5f5841 		r26, r31, r11
     ca4:	66783020 	bsrli	r19, r24, 0
     ca8:	66666666 	bsefi	r19, r6, 25, 6
     cac:	55666666 		r11, r6, r12
     cb0:	544e4900 		r2, r14, r9
     cb4:	41454c5f 		r10, r5, r9
     cb8:	34365453 	rsubik	r1, r22, 21587
     cbc:	4e494d5f 	caputd	r9, r9
     cc0:	5f2d2820 		r25, r13, r5
     cc4:	544e495f 		r2, r14, r9
     cc8:	41454c5f 		r10, r5, r9
     ccc:	34365453 	rsubik	r1, r22, 21587
     cd0:	58414d5f 		r2, r1, r9
     cd4:	2d205f5f 	rsubic	r9, r0, 24415
     cd8:	00293120 		r1, r9, r6
     cdc:	5f6e6f5f 		r27, r14, r13
     ce0:	74697865 		r3, r9, r15
     ce4:	6772615f 	bsrli	r27, r18, 31
     ce8:	5f5f0073 		r26, r31, r0
     cec:	43554e47 		r26, r21, r9
     cf0:	454b494c 	bsrl	r10, r11, r9
     cf4:	4955425f 		r10, r21, r8
     cf8:	4e49544c 	aputd	r9, r10
     cfc:	4e4f435f 	ncagetd	r18, r8
     d00:	4e415453 	aputd	r1, r10
     d04:	20505f54 	addi	r2, r16, 24404
     d08:	525f0031 		r18, r31, r0
     d0c:	544e4545 		r2, r14, r8
     d10:	4548435f 	bsra	r10, r8, r8
     d14:	76284b43 		r17, r8, r9
     d18:	772c7261 		r25, r12, r14
     d1c:	2c746168 	rsubic	r3, r20, 24936
     d20:	65707974 	bsrli	r11, r16, 20
     d24:	7a69732c 		r19, r9, r14
     d28:	6e692c65 	ecaget	r19, rfsl5
     d2c:	20297469 	addi	r1, r9, 29801
     d30:	7b206f64 		r25, r0, r13
     d34:	72747320 		r19, r20, r14
     d38:	20746375 	addi	r3, r20, 25461
     d3c:	6565725f 	bsrai	r11, r5, 31
     d40:	2a20746e 	addic	r17, r0, 29806
     d44:	3d20725f 	rsubikc	r9, r0, 29279
     d48:	61762820 	muli	r11, r22, 10272
     d4c:	203b2972 	addi	r1, r27, 10610
     d50:	28206669 	addic	r1, r0, 26217
     d54:	3e2d725f 	rsubikc	r17, r13, 29279
     d58:	74616877 		r3, r1, r13
     d5c:	203d3d20 	addi	r1, r29, 15648
     d60:	4c4c554e 	caputd	r12, r10
     d64:	207b2029 	addi	r3, r27, 8233
     d68:	3e2d725f 	rsubikc	r17, r13, 29279
     d6c:	74616877 		r3, r1, r13
     d70:	28203d20 	addic	r1, r0, 15648
     d74:	65707974 	bsrli	r11, r16, 20
     d78:	6c616d29 	necaget	r3, rfsl9
     d7c:	28636f6c 	addic	r3, r3, 28524
     d80:	657a6973 	bsrli	r11, r26, 19
     d84:	5f203b29 		r25, r0, r7
     d88:	6565725f 	bsrai	r11, r5, 31
     d8c:	615f746e 	muli	r10, r31, 29806
     d90:	72657373 		r19, r5, r14
     d94:	725f2874 		r18, r31, r5
     d98:	68773e2d 		r3, r23, r7
     d9c:	3b297461 	addikc	r25, r9, 29793
     da0:	696e6920 		r11, r14, r13
     da4:	7d203b74 		r9, r0, r7
     da8:	77207d20 		r25, r0, r15
     dac:	656c6968 	bsrli	r11, r12, 8
     db0:	29302820 	addic	r9, r16, 10272
     db4:	775f5f00 		r26, r31, r11
     db8:	5f006863 		r24, r0, r13
     dbc:	554e475f 		r10, r14, r8
     dc0:	52505f43 		r18, r16, r11
     dc4:	51455245 		r10, r5, r10
     dc8:	6a616d28 		r19, r1, r13
     dcc:	6e696d2c 	necaget	r19, rfsl12
     dd0:	28282029 	addic	r1, r8, 8233
     dd4:	4e475f5f 	ncaputd	r7, r11
     dd8:	5f5f4355 		r26, r31, r8
     ddc:	203c3c20 	addi	r1, r28, 15392
     de0:	20293631 	addi	r1, r9, 13873
     de4:	5f5f202b 		r26, r31, r4
     de8:	43554e47 		r26, r21, r9
     dec:	4e494d5f 	caputd	r9, r9
     df0:	5f5f524f 		r26, r31, r10
     df4:	203d3e20 	addi	r1, r29, 15904
     df8:	616d2828 	muli	r11, r13, 10280
     dfc:	3c20296a 	rsubikc	r1, r0, 10602
     e00:	3631203c 	rsubik	r17, r17, 8252
     e04:	202b2029 	addi	r1, r11, 8233
     e08:	6e696d28 	necaget	r19, rfsl8
     e0c:	5f002929 		r24, r0, r5
     e10:	43575f54 		r26, r23, r11
     e14:	20524148 	addi	r2, r18, 16712
     e18:	4c5f5f00 	ncputd	r31, r11
     e1c:	5f4c4244 		r26, r12, r8
     e20:	5f534148 		r26, r19, r8
     e24:	45495551 	bsll	r10, r9, r10
     e28:	414e5f54 		r10, r14, r11
     e2c:	205f5f4e 	addi	r2, r31, 24398
     e30:	435f0031 		r26, r31, r0
     e34:	54534e4f 		r2, r19, r9
     e38:	6e6f6320 	ncget	r19, rfsl0
     e3c:	49007473 		r8, r0, r14
     e40:	465f544e 	bsll	r18, r31, r10
     e44:	33545341 	addik	r26, r20, 21313
     e48:	494d5f32 		r10, r13, r11
     e4c:	2d28204e 	rsubic	r9, r8, 8270
     e50:	4e495f5f 	ncaputd	r9, r11
     e54:	41465f54 		r10, r6, r11
     e58:	32335453 	addik	r17, r19, 21587
     e5c:	58414d5f 		r2, r1, r9
     e60:	2d205f5f 	rsubic	r9, r0, 24415
     e64:	00293120 		r1, r9, r6
     e68:	5359535f 		r26, r25, r10
     e6c:	5a49535f 		r18, r9, r10
     e70:	5f545f45 		r26, r20, r11
     e74:	5f002048 		r24, r0, r4
     e78:	4e49555f 	caputd	r9, r10
     e7c:	454c5f54 		r10, r12, r11
     e80:	38545341 	addikc	r2, r20, 21313
     e84:	5059545f 		r2, r25, r10
     e88:	205f5f45 	addi	r2, r31, 24389
     e8c:	69736e75 		r11, r19, r13
     e90:	64656e67 	bsefi	r3, r5, 25, 7
     e94:	61686320 	muli	r11, r8, 25376
     e98:	525f0072 		r18, r31, r0
     e9c:	544e4545 		r2, r14, r8
     ea0:	5445475f 		r2, r5, r8
     ea4:	45544144 	bsrl	r10, r20, r8
     ea8:	5252455f 		r18, r18, r8
     eac:	7028505f 		r1, r8, r10
     eb0:	20297274 	addi	r1, r9, 29300
     eb4:	28282628 	addic	r1, r8, 9768
     eb8:	29727470 	addic	r11, r18, 29808
     ebc:	6d5f3e2d 	tecaget	r10, rfsl13
     ec0:	2d637369 	rsubic	r11, r3, 29545
     ec4:	65675f3e 	bsefi	r11, r7, 28, 30
     ec8:	74616474 		r3, r1, r12
     ecc:	72655f65 		r19, r5, r11
     ed0:	00292972 		r1, r9, r5
     ed4:	6f6c5f5f 	tneaget	r27, rfsl15
     ed8:	5f736b63 		r27, r19, r13
     edc:	6c637865 	tncaget	r3, rfsl5
     ee0:	76697375 		r19, r9, r14
     ee4:	2e2e2865 	rsubic	r17, r14, 10341
     ee8:	5f20292e 		r25, r0, r5
     eec:	636f6c5f 	muli	r27, r15, 27743
     ef0:	6e615f6b 	tneaget	r19, rfsl11
     ef4:	61746f6e 	muli	r11, r20, 28526
     ef8:	65286574 	bslli	r9, r8, 20
     efc:	756c6378 		r11, r12, r12
     f00:	65766973 	bsrli	r11, r22, 19
     f04:	636f6c5f 	muli	r27, r15, 27743
     f08:	75665f6b 		r11, r6, r11
     f0c:	6974636e 		r11, r20, r12
     f10:	5f286e6f 		r25, r8, r13
     f14:	5f41565f 		r26, r1, r10
     f18:	53475241 		r26, r7, r10
     f1c:	29295f5f 	addic	r9, r9, 24415
     f20:	20724e00 	addi	r3, r18, 19968
     f24:	5f003031 		r24, r0, r6
     f28:	6c72626d 	ncget	r3, rfsl13
     f2c:	735f6e65 		r26, r31, r13
     f30:	65746174 	bsrli	r11, r20, 20
     f34:	495f5f00 		r10, r31, r11
     f38:	465f544e 	bsll	r18, r31, r10
     f3c:	36545341 	rsubik	r18, r20, 21313
     f40:	414d5f34 		r10, r13, r11
     f44:	205f5f58 	addi	r2, r31, 24408
     f48:	66377830 	bsrli	r17, r23, 16
     f4c:	66666666 	bsefi	r19, r6, 25, 6
     f50:	66666666 	bsefi	r19, r6, 25, 6
     f54:	66666666 	bsefi	r19, r6, 25, 6
     f58:	4c4c6666 	neaputd	r12, r12
     f5c:	65725f00 	bsefi	r11, r18, 28, 0
     f60:	746c7573 		r3, r12, r14
     f64:	5f006b5f 		r24, r0, r13
     f68:	5454494c 		r2, r20, r9
     f6c:	455f454c 	bsll	r10, r31, r8
     f70:	4149444e 		r10, r9, r8
     f74:	0031204e 		r1, r17, r4
     f78:	45445f5f 		r10, r4, r11
     f7c:	38323143 	addikc	r1, r18, 12611
     f80:	4e494d5f 	caputd	r9, r9
     f84:	5058455f 		r2, r24, r8
     f88:	28205f5f 	addic	r1, r0, 24415
     f8c:	3431362d 	rsubik	r1, r17, 13869
     f90:	5f002932 		r24, r0, r5
     f94:	544e495f 		r2, r14, r9
     f98:	5341465f 		r26, r1, r8
     f9c:	545f3854 		r2, r31, r7
     fa0:	5f455059 		r26, r5, r10
     fa4:	6e69205f 	cget	r19, rfsl15
     fa8:	4e5f0074 	eagetd	r18, r0
     fac:	4c4e494f 	cagetd	r2, r9
     fb0:	20454e49 	addi	r2, r5, 20041
     fb4:	74615f5f 		r3, r1, r11
     fb8:	62697274 	muli	r19, r9, 29300
     fbc:	5f657475 		r27, r5, r14
     fc0:	2828205f 	addic	r1, r8, 8287
     fc4:	6f6e5f5f 	tneaget	r27, rfsl15
     fc8:	696c6e69 		r11, r12, r13
     fcc:	5f5f656e 		r26, r31, r12
     fd0:	5f002929 		r24, r0, r5
     fd4:	7a69735f 		r19, r9, r14
     fd8:	5f745f65 		r27, r20, r11
     fdc:	5f00205f 		r24, r0, r4
     fe0:	4e49555f 	caputd	r9, r10
     fe4:	58414d54 		r2, r1, r9
     fe8:	6328435f 	muli	r25, r8, 17247
     fec:	20632029 	addi	r3, r3, 8233
     ff0:	55202323 		r9, r0, r4
     ff4:	5f004c4c 		r24, r0, r9
     ff8:	5a49535f 		r18, r9, r10
     ffc:	5f464f45 		r26, r6, r9
    1000:	4e494f50 	ncaputd	r9, r9
    1004:	5f524554 		r26, r18, r8
    1008:	0034205f 		r1, r20, r4
    100c:	4e495f5f 	ncaputd	r9, r11
    1010:	454c5f54 		r10, r12, r11
    1014:	38545341 	addikc	r2, r20, 21313
    1018:	5059545f 		r2, r25, r10
    101c:	205f5f45 	addi	r2, r31, 24389
    1020:	6e676973 	ncaget	r19, rfsl3
    1024:	63206465 	muli	r25, r0, 25701
    1028:	00726168 		r3, r18, r12
    102c:	636f6c5f 	muli	r27, r15, 27743
    1030:	69746c61 		r11, r20, r13
    1034:	625f656d 	muli	r18, r31, 25965
    1038:	5f006675 		r24, r0, r12
    103c:	4343475f 		r26, r3, r8
    1040:	4f54415f 	cagetd	r26, r8
    1044:	5f43494d 		r26, r3, r9
    1048:	4c4f4f42 	ncaputd	r15, r9
    104c:	434f4c5f 		r26, r15, r9
    1050:	52465f4b 		r18, r6, r11
    1054:	31204545 	addik	r9, r0, 17733
    1058:	45525f00 		r10, r18, r11
    105c:	5f544e45 		r26, r20, r9
    1060:	54525453 		r2, r18, r10
    1064:	4c5f4b4f 	ncagetd	r2, r9
    1068:	28545341 	addic	r2, r20, 21313
    106c:	29727470 	addic	r11, r18, 29808
    1070:	70282820 		r1, r8, r5
    1074:	2d297274 	rsubic	r9, r9, 29300
    1078:	696d5f3e 		r11, r13, r11
    107c:	3e2d6373 	rsubikc	r17, r13, 25459
    1080:	7274735f 		r19, r20, r14
    1084:	5f6b6f74 		r27, r11, r13
    1088:	7473616c 		r3, r19, r12
    108c:	5f5f0029 		r26, r31, r0
    1090:	746e695f 		r3, r14, r13
    1094:	745f3436 		r2, r31, r6
    1098:	6665645f 	bslli	r19, r5, 31
    109c:	64656e69 	bsefi	r3, r5, 25, 9
    10a0:	55003120 		r8, r0, r6
    10a4:	50544e49 		r2, r20, r9
    10a8:	4d5f5254 	nagetd	r10, r10
    10ac:	28205841 	addic	r1, r0, 22593
    10b0:	49555f5f 		r10, r21, r11
    10b4:	5450544e 		r2, r16, r10
    10b8:	414d5f52 		r10, r13, r11
    10bc:	295f5f58 	addic	r10, r31, 24408
    10c0:	6e665f00 	tneaget	r19, rfsl0
    10c4:	65707974 	bsrli	r11, r16, 20
    10c8:	445f0073 	bsrl	r2, r31, r0
    10cc:	55414645 		r10, r1, r8
    10d0:	535f544c 		r26, r31, r10
    10d4:	4352554f 		r26, r18, r10
    10d8:	5f5f0045 		r26, r31, r0
    10dc:	736e6f63 		r27, r14, r13
    10e0:	6f632074 	cget	r27, rfsl4
    10e4:	0074736e 		r3, r20, r14
    10e8:	5a49535f 		r18, r9, r10
    10ec:	5f545f45 		r26, r20, r11
    10f0:	4c434544 	caputd	r3, r8
    10f4:	44455241 	bsra	r2, r5, r10
    10f8:	5f5f0020 		r26, r31, r0
    10fc:	52414843 		r18, r1, r9
    1100:	545f3233 		r2, r31, r6
    1104:	5f455059 		r26, r5, r10
    1108:	6f6c205f 	cget	r27, rfsl15
    110c:	7520676e 		r9, r0, r12
    1110:	6769736e 	bsrai	r27, r9, 14
    1114:	2064656e 	addi	r3, r4, 25966
    1118:	00746e69 		r3, r20, r13
    111c:	534f505f 		r26, r15, r10
    1120:	435f5849 		r26, r31, r11
    1124:	554f535f 		r10, r15, r10
    1128:	20454352 	addi	r2, r5, 17234
    112c:	38303032 	addikc	r1, r16, 12338
    1130:	004c3930 		r2, r12, r7
    1134:	43435f5f 		r26, r3, r11
    1138:	5055535f 		r2, r21, r10
    113c:	54524f50 		r2, r18, r9
    1140:	59445f53 		r10, r4, r11
    1144:	494d414e 		r10, r13, r8
    1148:	52415f43 		r18, r1, r11
    114c:	5f594152 		r26, r25, r8
    1150:	54494e49 		r2, r9, r9
    1154:	5f003120 		r24, r0, r6
    1158:	4e49555f 	caputd	r9, r10
    115c:	41465f54 		r10, r6, r11
    1160:	32335453 	addik	r17, r19, 21587
    1164:	58414d5f 		r2, r1, r9
    1168:	30205f5f 	addik	r1, r0, 24415
    116c:	66666678 	bsefi	r19, r6, 25, 24
    1170:	66666666 	bsefi	r19, r6, 25, 6
    1174:	5f005566 		r24, r0, r10
    1178:	5f6d745f 		r27, r13, r14
    117c:	006e6f6d 		r3, r14, r13
    1180:	4c465f5f 	ncaputd	r6, r11
    1184:	414d5f54 		r10, r13, r11
    1188:	58455f58 		r2, r5, r11
    118c:	205f5f50 	addi	r2, r31, 24400
    1190:	00383231 		r1, r24, r6
    1194:	5241505f 		r18, r1, r10
    1198:	28534d41 	addic	r2, r19, 19777
    119c:	61726170 	muli	r11, r18, 24944
    11a0:	73696c6d 		r27, r9, r13
    11a4:	70202974 		r1, r0, r5
    11a8:	6d617261 	tncget	r11, rfsl1
    11ac:	7473696c 		r3, r19, r13
    11b0:	45525f00 		r10, r18, r11
    11b4:	5f544e45 		r26, r20, r9
    11b8:	525f504d 		r18, r31, r10
    11bc:	4c555345 	ncagetd	r2, r10
    11c0:	284b5f54 	addic	r2, r11, 24404
    11c4:	29727470 	addic	r11, r18, 29808
    11c8:	70282820 		r1, r8, r5
    11cc:	2d297274 	rsubic	r9, r9, 29300
    11d0:	706d5f3e 		r3, r13, r11
    11d4:	725f3e2d 		r18, r31, r7
    11d8:	6c757365 	tncget	r3, rfsl5
    11dc:	296b5f74 	addic	r11, r11, 24436
    11e0:	535f5f00 		r26, r31, r11
    11e4:	4f455a49 	nagetd	r26, r11
    11e8:	4f445f46 	ncaputd	r4, r11
    11ec:	454c4255 	bsra	r10, r12, r8
    11f0:	38205f5f 	addikc	r1, r0, 24415
    11f4:	775f5f00 		r26, r31, r11
    11f8:	00626863 		r3, r2, r13
    11fc:	53746567 		r27, r20, r12
    1200:	49786f42 		r11, r24, r13
    1204:	7265766e 		r19, r5, r14
    1208:	756e2874 		r11, r14, r5
    120c:	2820296d 	addic	r1, r0, 10605
    1210:	6f627372 	tncget	r27, rfsl2
    1214:	6e285b78 	tnaget	r17, rfsl8
    1218:	5d296d75 		r9, r9, r13
    121c:	5f5f0029 		r26, r31, r0
    1220:	54534146 		r2, r19, r8
    1224:	00203631 		r1, r0, r6
    1228:	73696d5f 		r27, r9, r13
    122c:	65725f63 	bsefi	r11, r18, 29, 3
    1230:	00746e65 		r3, r20, r13
    1234:	4545525f 	bsra	r10, r5, r10
    1238:	525f544e 		r18, r31, r10
    123c:	34444e41 	rsubik	r2, r4, 20033
    1240:	45535f38 		r10, r19, r11
    1244:	70284445 		r1, r8, r8
    1248:	20297274 	addi	r1, r9, 29300
    124c:	74702828 		r3, r16, r5
    1250:	3e2d2972 	rsubikc	r17, r13, 10610
    1254:	3834725f 	addikc	r1, r20, 29279
    1258:	735f3e2d 		r26, r31, r7
    125c:	29646565 	addic	r11, r4, 25957
    1260:	53454100 		r26, r5, r8
    1264:	4342435f 		r26, r2, r8
    1268:	636e655f 	muli	r27, r14, 25951
    126c:	74707972 		r3, r16, r15
    1270:	6675625f 	bsrai	r19, r21, 31
    1274:	00726566 		r3, r18, r12
    1278:	45445f5f 		r10, r4, r11
    127c:	5f343643 		r25, r20, r6
    1280:	5f58414d 		r26, r24, r8
    1284:	2e39205f 	rsubic	r17, r25, 8287
    1288:	39393939 	addikc	r9, r25, 14649
    128c:	39393939 	addikc	r9, r25, 14649
    1290:	39393939 	addikc	r9, r25, 14649
    1294:	45393939 	bsrl	r9, r25, r7
    1298:	44343833 	bsrl	r1, r20, r7
    129c:	5f5f0044 		r26, r31, r0
    12a0:	4c57454e 	caputd	r23, r8
    12a4:	5f5f4249 		r26, r31, r8
    12a8:	5f003220 		r24, r0, r6
    12ac:	544c465f 		r2, r12, r8
    12b0:	4e494d5f 	caputd	r9, r9
    12b4:	5f30315f 		r25, r16, r6
    12b8:	5f505845 		r26, r16, r11
    12bc:	2d28205f 	rsubic	r9, r8, 8287
    12c0:	00293733 		r1, r9, r6
    12c4:	53415f5f 		r26, r1, r11
    12c8:	4d414e4d 	naputd	r1, r9
    12cc:	6e632845 	caget	r19, rfsl5
    12d0:	29656d61 	addic	r11, r5, 28001
    12d4:	585f5f20 		r2, r31, r11
    12d8:	49525453 		r10, r18, r10
    12dc:	2820474e 	addic	r1, r0, 18254
    12e0:	53555f5f 		r26, r21, r11
    12e4:	4c5f5245 	nagetd	r2, r10
    12e8:	4c454241 	nagetd	r2, r8
    12ec:	4552505f 	bsrl	r10, r18, r10
    12f0:	5f584946 		r26, r24, r9
    12f4:	6320295f 	muli	r25, r0, 10591
    12f8:	656d616e 	bsrli	r11, r13, 14
    12fc:	465f5f00 		r18, r31, r11
    1300:	445f544c 	bsll	r2, r31, r10
    1304:	4d494345 	ncagetd	r10, r8
    1308:	445f4c41 	bsll	r2, r31, r9
    130c:	5f5f4749 		r26, r31, r8
    1310:	5f003920 		r24, r0, r7
    1314:	7373615f 		r27, r19, r12
    1318:	73747265 		r27, r20, r14
    131c:	6378655f 	muli	r27, r24, 25951
    1320:	6973756c 		r11, r19, r14
    1324:	2e286576 	rsubic	r17, r8, 25974
    1328:	20292e2e 	addi	r1, r9, 11822
    132c:	6f6c5f5f 	tneaget	r27, rfsl15
    1330:	615f6b63 	muli	r10, r31, 27491
    1334:	746f6e6e 		r3, r15, r13
    1338:	28657461 	addic	r3, r5, 29793
    133c:	65737361 	bsrai	r11, r19, 1
    1340:	655f7472 	bslli	r10, r31, 18
    1344:	756c6378 		r11, r12, r12
    1348:	65766973 	bsrli	r11, r22, 19
    134c:	636f6c5f 	muli	r27, r15, 27743
    1350:	5f5f286b 		r26, r31, r5
    1354:	415f4156 		r10, r31, r8
    1358:	5f534752 		r26, r19, r8
    135c:	0029295f 		r1, r9, r5
    1360:	66735f5f 	bsefi	r19, r19, 29, 31
    1364:	6b61665f 		r27, r1, r12
    1368:	74735f65 		r3, r19, r11
    136c:	006e6964 		r3, r14, r13
    1370:	74705f5f 		r3, r16, r11
    1374:	20745f72 	addi	r3, r20, 24434
    1378:	64696f76 	bsefi	r3, r9, 29, 22
    137c:	5f002a20 		r24, r0, r5
    1380:	554e475f 		r10, r14, r8
    1384:	54535f43 		r2, r19, r11
    1388:	495f4344 		r10, r31, r8
    138c:	4e494c4e 	aputd	r9, r9
    1390:	205f5f45 	addi	r2, r31, 24389
    1394:	5f5f0031 		r26, r31, r0
    1398:	61776c61 	muli	r11, r23, 27745
    139c:	695f7379 		r10, r31, r14
    13a0:	6e696c6e 	necaget	r19, rfsl14
    13a4:	5f5f2065 		r26, r31, r4
    13a8:	72747461 		r19, r20, r14
    13ac:	74756269 		r3, r21, r12
    13b0:	285f5f65 	addic	r2, r31, 24421
    13b4:	615f5f28 	muli	r10, r31, 24360
    13b8:	7961776c 		r11, r1, r14
    13bc:	6e695f73 	tneaget	r19, rfsl3
    13c0:	656e696c 	bsrli	r11, r14, 12
    13c4:	29295f5f 	addic	r9, r9, 24415
    13c8:	6e5f5f00 	tneaget	r18, rfsl0
    13cc:	6f6c5f6f 	tneaget	r27, rfsl15
    13d0:	615f6b63 	muli	r10, r31, 27491
    13d4:	796c616e 		r11, r12, r12
    13d8:	20736973 	addi	r3, r19, 26995
    13dc:	6f6c5f5f 	tneaget	r27, rfsl15
    13e0:	615f6b63 	muli	r10, r31, 27491
    13e4:	746f6e6e 		r3, r15, r13
    13e8:	28657461 	addic	r3, r5, 29793
    13ec:	745f6f6e 		r2, r31, r13
    13f0:	61657268 	muli	r11, r5, 29288
    13f4:	61735f64 	muli	r11, r19, 24420
